ARM GAS  /tmp/ccwUacce.s 			page 1


   1              		.cpu cortex-m3
   2              		.eabi_attribute 20, 1
   3              		.eabi_attribute 21, 1
   4              		.eabi_attribute 23, 3
   5              		.eabi_attribute 24, 1
   6              		.eabi_attribute 25, 1
   7              		.eabi_attribute 26, 1
   8              		.eabi_attribute 30, 6
   9              		.eabi_attribute 34, 1
  10              		.eabi_attribute 18, 4
  11              		.file	"stm32f1xx_ll_dma.c"
  12              		.text
  13              	.Ltext0:
  14              		.cfi_sections	.debug_frame
  15              		.section	.rodata.CHANNEL_OFFSET_TAB,"a",%progbits
  16              		.align	2
  19              	CHANNEL_OFFSET_TAB:
  20 0000 08       		.byte	8
  21 0001 1C       		.byte	28
  22 0002 30       		.byte	48
  23 0003 44       		.byte	68
  24 0004 58       		.byte	88
  25 0005 6C       		.byte	108
  26 0006 80       		.byte	-128
  27              		.section	.text.LL_DMA_ConfigTransfer,"ax",%progbits
  28              		.align	1
  29              		.syntax unified
  30              		.thumb
  31              		.thumb_func
  32              		.fpu softvfp
  34              	LL_DMA_ConfigTransfer:
  35              	.LFB66:
  36              		.file 1 "Drivers/STM32F1xx_HAL_Driver/Inc/stm32f1xx_ll_dma.h"
   1:Drivers/STM32F1xx_HAL_Driver/Inc/stm32f1xx_ll_dma.h **** /**
   2:Drivers/STM32F1xx_HAL_Driver/Inc/stm32f1xx_ll_dma.h ****   ******************************************************************************
   3:Drivers/STM32F1xx_HAL_Driver/Inc/stm32f1xx_ll_dma.h ****   * @file    stm32f1xx_ll_dma.h
   4:Drivers/STM32F1xx_HAL_Driver/Inc/stm32f1xx_ll_dma.h ****   * @author  MCD Application Team
   5:Drivers/STM32F1xx_HAL_Driver/Inc/stm32f1xx_ll_dma.h ****   * @brief   Header file of DMA LL module.
   6:Drivers/STM32F1xx_HAL_Driver/Inc/stm32f1xx_ll_dma.h ****   ******************************************************************************
   7:Drivers/STM32F1xx_HAL_Driver/Inc/stm32f1xx_ll_dma.h ****   * @attention
   8:Drivers/STM32F1xx_HAL_Driver/Inc/stm32f1xx_ll_dma.h ****   *
   9:Drivers/STM32F1xx_HAL_Driver/Inc/stm32f1xx_ll_dma.h ****   * <h2><center>&copy; COPYRIGHT(c) 2016 STMicroelectronics</center></h2>
  10:Drivers/STM32F1xx_HAL_Driver/Inc/stm32f1xx_ll_dma.h ****   *
  11:Drivers/STM32F1xx_HAL_Driver/Inc/stm32f1xx_ll_dma.h ****   * Redistribution and use in source and binary forms, with or without modification,
  12:Drivers/STM32F1xx_HAL_Driver/Inc/stm32f1xx_ll_dma.h ****   * are permitted provided that the following conditions are met:
  13:Drivers/STM32F1xx_HAL_Driver/Inc/stm32f1xx_ll_dma.h ****   *   1. Redistributions of source code must retain the above copyright notice,
  14:Drivers/STM32F1xx_HAL_Driver/Inc/stm32f1xx_ll_dma.h ****   *      this list of conditions and the following disclaimer.
  15:Drivers/STM32F1xx_HAL_Driver/Inc/stm32f1xx_ll_dma.h ****   *   2. Redistributions in binary form must reproduce the above copyright notice,
  16:Drivers/STM32F1xx_HAL_Driver/Inc/stm32f1xx_ll_dma.h ****   *      this list of conditions and the following disclaimer in the documentation
  17:Drivers/STM32F1xx_HAL_Driver/Inc/stm32f1xx_ll_dma.h ****   *      and/or other materials provided with the distribution.
  18:Drivers/STM32F1xx_HAL_Driver/Inc/stm32f1xx_ll_dma.h ****   *   3. Neither the name of STMicroelectronics nor the names of its contributors
  19:Drivers/STM32F1xx_HAL_Driver/Inc/stm32f1xx_ll_dma.h ****   *      may be used to endorse or promote products derived from this software
  20:Drivers/STM32F1xx_HAL_Driver/Inc/stm32f1xx_ll_dma.h ****   *      without specific prior written permission.
  21:Drivers/STM32F1xx_HAL_Driver/Inc/stm32f1xx_ll_dma.h ****   *
  22:Drivers/STM32F1xx_HAL_Driver/Inc/stm32f1xx_ll_dma.h ****   * THIS SOFTWARE IS PROVIDED BY THE COPYRIGHT HOLDERS AND CONTRIBUTORS "AS IS"
  23:Drivers/STM32F1xx_HAL_Driver/Inc/stm32f1xx_ll_dma.h ****   * AND ANY EXPRESS OR IMPLIED WARRANTIES, INCLUDING, BUT NOT LIMITED TO, THE
  24:Drivers/STM32F1xx_HAL_Driver/Inc/stm32f1xx_ll_dma.h ****   * IMPLIED WARRANTIES OF MERCHANTABILITY AND FITNESS FOR A PARTICULAR PURPOSE ARE
ARM GAS  /tmp/ccwUacce.s 			page 2


  25:Drivers/STM32F1xx_HAL_Driver/Inc/stm32f1xx_ll_dma.h ****   * DISCLAIMED. IN NO EVENT SHALL THE COPYRIGHT HOLDER OR CONTRIBUTORS BE LIABLE
  26:Drivers/STM32F1xx_HAL_Driver/Inc/stm32f1xx_ll_dma.h ****   * FOR ANY DIRECT, INDIRECT, INCIDENTAL, SPECIAL, EXEMPLARY, OR CONSEQUENTIAL
  27:Drivers/STM32F1xx_HAL_Driver/Inc/stm32f1xx_ll_dma.h ****   * DAMAGES (INCLUDING, BUT NOT LIMITED TO, PROCUREMENT OF SUBSTITUTE GOODS OR
  28:Drivers/STM32F1xx_HAL_Driver/Inc/stm32f1xx_ll_dma.h ****   * SERVICES; LOSS OF USE, DATA, OR PROFITS; OR BUSINESS INTERRUPTION) HOWEVER
  29:Drivers/STM32F1xx_HAL_Driver/Inc/stm32f1xx_ll_dma.h ****   * CAUSED AND ON ANY THEORY OF LIABILITY, WHETHER IN CONTRACT, STRICT LIABILITY,
  30:Drivers/STM32F1xx_HAL_Driver/Inc/stm32f1xx_ll_dma.h ****   * OR TORT (INCLUDING NEGLIGENCE OR OTHERWISE) ARISING IN ANY WAY OUT OF THE USE
  31:Drivers/STM32F1xx_HAL_Driver/Inc/stm32f1xx_ll_dma.h ****   * OF THIS SOFTWARE, EVEN IF ADVISED OF THE POSSIBILITY OF SUCH DAMAGE.
  32:Drivers/STM32F1xx_HAL_Driver/Inc/stm32f1xx_ll_dma.h ****   *
  33:Drivers/STM32F1xx_HAL_Driver/Inc/stm32f1xx_ll_dma.h ****   ******************************************************************************
  34:Drivers/STM32F1xx_HAL_Driver/Inc/stm32f1xx_ll_dma.h ****   */
  35:Drivers/STM32F1xx_HAL_Driver/Inc/stm32f1xx_ll_dma.h **** 
  36:Drivers/STM32F1xx_HAL_Driver/Inc/stm32f1xx_ll_dma.h **** /* Define to prevent recursive inclusion -------------------------------------*/
  37:Drivers/STM32F1xx_HAL_Driver/Inc/stm32f1xx_ll_dma.h **** #ifndef __STM32F1xx_LL_DMA_H
  38:Drivers/STM32F1xx_HAL_Driver/Inc/stm32f1xx_ll_dma.h **** #define __STM32F1xx_LL_DMA_H
  39:Drivers/STM32F1xx_HAL_Driver/Inc/stm32f1xx_ll_dma.h **** 
  40:Drivers/STM32F1xx_HAL_Driver/Inc/stm32f1xx_ll_dma.h **** #ifdef __cplusplus
  41:Drivers/STM32F1xx_HAL_Driver/Inc/stm32f1xx_ll_dma.h **** extern "C" {
  42:Drivers/STM32F1xx_HAL_Driver/Inc/stm32f1xx_ll_dma.h **** #endif
  43:Drivers/STM32F1xx_HAL_Driver/Inc/stm32f1xx_ll_dma.h **** 
  44:Drivers/STM32F1xx_HAL_Driver/Inc/stm32f1xx_ll_dma.h **** /* Includes ------------------------------------------------------------------*/
  45:Drivers/STM32F1xx_HAL_Driver/Inc/stm32f1xx_ll_dma.h **** #include "stm32f1xx.h"
  46:Drivers/STM32F1xx_HAL_Driver/Inc/stm32f1xx_ll_dma.h **** 
  47:Drivers/STM32F1xx_HAL_Driver/Inc/stm32f1xx_ll_dma.h **** /** @addtogroup STM32F1xx_LL_Driver
  48:Drivers/STM32F1xx_HAL_Driver/Inc/stm32f1xx_ll_dma.h ****   * @{
  49:Drivers/STM32F1xx_HAL_Driver/Inc/stm32f1xx_ll_dma.h ****   */
  50:Drivers/STM32F1xx_HAL_Driver/Inc/stm32f1xx_ll_dma.h **** 
  51:Drivers/STM32F1xx_HAL_Driver/Inc/stm32f1xx_ll_dma.h **** #if defined (DMA1) || defined (DMA2)
  52:Drivers/STM32F1xx_HAL_Driver/Inc/stm32f1xx_ll_dma.h **** 
  53:Drivers/STM32F1xx_HAL_Driver/Inc/stm32f1xx_ll_dma.h **** /** @defgroup DMA_LL DMA
  54:Drivers/STM32F1xx_HAL_Driver/Inc/stm32f1xx_ll_dma.h ****   * @{
  55:Drivers/STM32F1xx_HAL_Driver/Inc/stm32f1xx_ll_dma.h ****   */
  56:Drivers/STM32F1xx_HAL_Driver/Inc/stm32f1xx_ll_dma.h **** 
  57:Drivers/STM32F1xx_HAL_Driver/Inc/stm32f1xx_ll_dma.h **** /* Private types -------------------------------------------------------------*/
  58:Drivers/STM32F1xx_HAL_Driver/Inc/stm32f1xx_ll_dma.h **** /* Private variables ---------------------------------------------------------*/
  59:Drivers/STM32F1xx_HAL_Driver/Inc/stm32f1xx_ll_dma.h **** /** @defgroup DMA_LL_Private_Variables DMA Private Variables
  60:Drivers/STM32F1xx_HAL_Driver/Inc/stm32f1xx_ll_dma.h ****   * @{
  61:Drivers/STM32F1xx_HAL_Driver/Inc/stm32f1xx_ll_dma.h ****   */
  62:Drivers/STM32F1xx_HAL_Driver/Inc/stm32f1xx_ll_dma.h **** /* Array used to get the DMA channel register offset versus channel index LL_DMA_CHANNEL_x */
  63:Drivers/STM32F1xx_HAL_Driver/Inc/stm32f1xx_ll_dma.h **** static const uint8_t CHANNEL_OFFSET_TAB[] =
  64:Drivers/STM32F1xx_HAL_Driver/Inc/stm32f1xx_ll_dma.h **** {
  65:Drivers/STM32F1xx_HAL_Driver/Inc/stm32f1xx_ll_dma.h ****   (uint8_t)(DMA1_Channel1_BASE - DMA1_BASE),
  66:Drivers/STM32F1xx_HAL_Driver/Inc/stm32f1xx_ll_dma.h ****   (uint8_t)(DMA1_Channel2_BASE - DMA1_BASE),
  67:Drivers/STM32F1xx_HAL_Driver/Inc/stm32f1xx_ll_dma.h ****   (uint8_t)(DMA1_Channel3_BASE - DMA1_BASE),
  68:Drivers/STM32F1xx_HAL_Driver/Inc/stm32f1xx_ll_dma.h ****   (uint8_t)(DMA1_Channel4_BASE - DMA1_BASE),
  69:Drivers/STM32F1xx_HAL_Driver/Inc/stm32f1xx_ll_dma.h ****   (uint8_t)(DMA1_Channel5_BASE - DMA1_BASE),
  70:Drivers/STM32F1xx_HAL_Driver/Inc/stm32f1xx_ll_dma.h ****   (uint8_t)(DMA1_Channel6_BASE - DMA1_BASE),
  71:Drivers/STM32F1xx_HAL_Driver/Inc/stm32f1xx_ll_dma.h ****   (uint8_t)(DMA1_Channel7_BASE - DMA1_BASE)
  72:Drivers/STM32F1xx_HAL_Driver/Inc/stm32f1xx_ll_dma.h **** };
  73:Drivers/STM32F1xx_HAL_Driver/Inc/stm32f1xx_ll_dma.h **** /**
  74:Drivers/STM32F1xx_HAL_Driver/Inc/stm32f1xx_ll_dma.h ****   * @}
  75:Drivers/STM32F1xx_HAL_Driver/Inc/stm32f1xx_ll_dma.h ****   */
  76:Drivers/STM32F1xx_HAL_Driver/Inc/stm32f1xx_ll_dma.h **** /* Private constants ---------------------------------------------------------*/
  77:Drivers/STM32F1xx_HAL_Driver/Inc/stm32f1xx_ll_dma.h **** /* Private macros ------------------------------------------------------------*/
  78:Drivers/STM32F1xx_HAL_Driver/Inc/stm32f1xx_ll_dma.h **** #if defined(USE_FULL_LL_DRIVER)
  79:Drivers/STM32F1xx_HAL_Driver/Inc/stm32f1xx_ll_dma.h **** /** @defgroup DMA_LL_Private_Macros DMA Private Macros
  80:Drivers/STM32F1xx_HAL_Driver/Inc/stm32f1xx_ll_dma.h ****   * @{
  81:Drivers/STM32F1xx_HAL_Driver/Inc/stm32f1xx_ll_dma.h ****   */
ARM GAS  /tmp/ccwUacce.s 			page 3


  82:Drivers/STM32F1xx_HAL_Driver/Inc/stm32f1xx_ll_dma.h **** /**
  83:Drivers/STM32F1xx_HAL_Driver/Inc/stm32f1xx_ll_dma.h ****   * @}
  84:Drivers/STM32F1xx_HAL_Driver/Inc/stm32f1xx_ll_dma.h ****   */
  85:Drivers/STM32F1xx_HAL_Driver/Inc/stm32f1xx_ll_dma.h **** #endif /*USE_FULL_LL_DRIVER*/
  86:Drivers/STM32F1xx_HAL_Driver/Inc/stm32f1xx_ll_dma.h **** 
  87:Drivers/STM32F1xx_HAL_Driver/Inc/stm32f1xx_ll_dma.h **** /* Exported types ------------------------------------------------------------*/
  88:Drivers/STM32F1xx_HAL_Driver/Inc/stm32f1xx_ll_dma.h **** #if defined(USE_FULL_LL_DRIVER)
  89:Drivers/STM32F1xx_HAL_Driver/Inc/stm32f1xx_ll_dma.h **** /** @defgroup DMA_LL_ES_INIT DMA Exported Init structure
  90:Drivers/STM32F1xx_HAL_Driver/Inc/stm32f1xx_ll_dma.h ****   * @{
  91:Drivers/STM32F1xx_HAL_Driver/Inc/stm32f1xx_ll_dma.h ****   */
  92:Drivers/STM32F1xx_HAL_Driver/Inc/stm32f1xx_ll_dma.h **** typedef struct
  93:Drivers/STM32F1xx_HAL_Driver/Inc/stm32f1xx_ll_dma.h **** {
  94:Drivers/STM32F1xx_HAL_Driver/Inc/stm32f1xx_ll_dma.h ****   uint32_t PeriphOrM2MSrcAddress;  /*!< Specifies the peripheral base address for DMA transfer
  95:Drivers/STM32F1xx_HAL_Driver/Inc/stm32f1xx_ll_dma.h ****                                         or as Source base address in case of memory to memory trans
  96:Drivers/STM32F1xx_HAL_Driver/Inc/stm32f1xx_ll_dma.h **** 
  97:Drivers/STM32F1xx_HAL_Driver/Inc/stm32f1xx_ll_dma.h ****                                         This parameter must be a value between Min_Data = 0 and Max
  98:Drivers/STM32F1xx_HAL_Driver/Inc/stm32f1xx_ll_dma.h **** 
  99:Drivers/STM32F1xx_HAL_Driver/Inc/stm32f1xx_ll_dma.h ****   uint32_t MemoryOrM2MDstAddress;  /*!< Specifies the memory base address for DMA transfer
 100:Drivers/STM32F1xx_HAL_Driver/Inc/stm32f1xx_ll_dma.h ****                                         or as Destination base address in case of memory to memory 
 101:Drivers/STM32F1xx_HAL_Driver/Inc/stm32f1xx_ll_dma.h **** 
 102:Drivers/STM32F1xx_HAL_Driver/Inc/stm32f1xx_ll_dma.h ****                                         This parameter must be a value between Min_Data = 0 and Max
 103:Drivers/STM32F1xx_HAL_Driver/Inc/stm32f1xx_ll_dma.h **** 
 104:Drivers/STM32F1xx_HAL_Driver/Inc/stm32f1xx_ll_dma.h ****   uint32_t Direction;              /*!< Specifies if the data will be transferred from memory to pe
 105:Drivers/STM32F1xx_HAL_Driver/Inc/stm32f1xx_ll_dma.h ****                                         from memory to memory or from peripheral to memory.
 106:Drivers/STM32F1xx_HAL_Driver/Inc/stm32f1xx_ll_dma.h ****                                         This parameter can be a value of @ref DMA_LL_EC_DIRECTION
 107:Drivers/STM32F1xx_HAL_Driver/Inc/stm32f1xx_ll_dma.h **** 
 108:Drivers/STM32F1xx_HAL_Driver/Inc/stm32f1xx_ll_dma.h ****                                         This feature can be modified afterwards using unitary funct
 109:Drivers/STM32F1xx_HAL_Driver/Inc/stm32f1xx_ll_dma.h **** 
 110:Drivers/STM32F1xx_HAL_Driver/Inc/stm32f1xx_ll_dma.h ****   uint32_t Mode;                   /*!< Specifies the normal or circular operation mode.
 111:Drivers/STM32F1xx_HAL_Driver/Inc/stm32f1xx_ll_dma.h ****                                         This parameter can be a value of @ref DMA_LL_EC_MODE
 112:Drivers/STM32F1xx_HAL_Driver/Inc/stm32f1xx_ll_dma.h ****                                         @note: The circular buffer mode cannot be used if the memor
 113:Drivers/STM32F1xx_HAL_Driver/Inc/stm32f1xx_ll_dma.h ****                                                data transfer direction is configured on the selecte
 114:Drivers/STM32F1xx_HAL_Driver/Inc/stm32f1xx_ll_dma.h **** 
 115:Drivers/STM32F1xx_HAL_Driver/Inc/stm32f1xx_ll_dma.h ****                                         This feature can be modified afterwards using unitary funct
 116:Drivers/STM32F1xx_HAL_Driver/Inc/stm32f1xx_ll_dma.h **** 
 117:Drivers/STM32F1xx_HAL_Driver/Inc/stm32f1xx_ll_dma.h ****   uint32_t PeriphOrM2MSrcIncMode;  /*!< Specifies whether the Peripheral address or Source address 
 118:Drivers/STM32F1xx_HAL_Driver/Inc/stm32f1xx_ll_dma.h ****                                         is incremented or not.
 119:Drivers/STM32F1xx_HAL_Driver/Inc/stm32f1xx_ll_dma.h ****                                         This parameter can be a value of @ref DMA_LL_EC_PERIPH
 120:Drivers/STM32F1xx_HAL_Driver/Inc/stm32f1xx_ll_dma.h **** 
 121:Drivers/STM32F1xx_HAL_Driver/Inc/stm32f1xx_ll_dma.h ****                                         This feature can be modified afterwards using unitary funct
 122:Drivers/STM32F1xx_HAL_Driver/Inc/stm32f1xx_ll_dma.h **** 
 123:Drivers/STM32F1xx_HAL_Driver/Inc/stm32f1xx_ll_dma.h ****   uint32_t MemoryOrM2MDstIncMode;  /*!< Specifies whether the Memory address or Destination address
 124:Drivers/STM32F1xx_HAL_Driver/Inc/stm32f1xx_ll_dma.h ****                                         is incremented or not.
 125:Drivers/STM32F1xx_HAL_Driver/Inc/stm32f1xx_ll_dma.h ****                                         This parameter can be a value of @ref DMA_LL_EC_MEMORY
 126:Drivers/STM32F1xx_HAL_Driver/Inc/stm32f1xx_ll_dma.h **** 
 127:Drivers/STM32F1xx_HAL_Driver/Inc/stm32f1xx_ll_dma.h ****                                         This feature can be modified afterwards using unitary funct
 128:Drivers/STM32F1xx_HAL_Driver/Inc/stm32f1xx_ll_dma.h **** 
 129:Drivers/STM32F1xx_HAL_Driver/Inc/stm32f1xx_ll_dma.h ****   uint32_t PeriphOrM2MSrcDataSize; /*!< Specifies the Peripheral data size alignment or Source data
 130:Drivers/STM32F1xx_HAL_Driver/Inc/stm32f1xx_ll_dma.h ****                                         in case of memory to memory transfer direction.
 131:Drivers/STM32F1xx_HAL_Driver/Inc/stm32f1xx_ll_dma.h ****                                         This parameter can be a value of @ref DMA_LL_EC_PDATAALIGN
 132:Drivers/STM32F1xx_HAL_Driver/Inc/stm32f1xx_ll_dma.h **** 
 133:Drivers/STM32F1xx_HAL_Driver/Inc/stm32f1xx_ll_dma.h ****                                         This feature can be modified afterwards using unitary funct
 134:Drivers/STM32F1xx_HAL_Driver/Inc/stm32f1xx_ll_dma.h **** 
 135:Drivers/STM32F1xx_HAL_Driver/Inc/stm32f1xx_ll_dma.h ****   uint32_t MemoryOrM2MDstDataSize; /*!< Specifies the Memory data size alignment or Destination dat
 136:Drivers/STM32F1xx_HAL_Driver/Inc/stm32f1xx_ll_dma.h ****                                         in case of memory to memory transfer direction.
 137:Drivers/STM32F1xx_HAL_Driver/Inc/stm32f1xx_ll_dma.h ****                                         This parameter can be a value of @ref DMA_LL_EC_MDATAALIGN
 138:Drivers/STM32F1xx_HAL_Driver/Inc/stm32f1xx_ll_dma.h **** 
ARM GAS  /tmp/ccwUacce.s 			page 4


 139:Drivers/STM32F1xx_HAL_Driver/Inc/stm32f1xx_ll_dma.h ****                                         This feature can be modified afterwards using unitary funct
 140:Drivers/STM32F1xx_HAL_Driver/Inc/stm32f1xx_ll_dma.h **** 
 141:Drivers/STM32F1xx_HAL_Driver/Inc/stm32f1xx_ll_dma.h ****   uint32_t NbData;                 /*!< Specifies the number of data to transfer, in data unit.
 142:Drivers/STM32F1xx_HAL_Driver/Inc/stm32f1xx_ll_dma.h ****                                         The data unit is equal to the source buffer configuration s
 143:Drivers/STM32F1xx_HAL_Driver/Inc/stm32f1xx_ll_dma.h ****                                         or MemorySize parameters depending in the transfer directio
 144:Drivers/STM32F1xx_HAL_Driver/Inc/stm32f1xx_ll_dma.h ****                                         This parameter must be a value between Min_Data = 0 and Max
 145:Drivers/STM32F1xx_HAL_Driver/Inc/stm32f1xx_ll_dma.h **** 
 146:Drivers/STM32F1xx_HAL_Driver/Inc/stm32f1xx_ll_dma.h ****                                         This feature can be modified afterwards using unitary funct
 147:Drivers/STM32F1xx_HAL_Driver/Inc/stm32f1xx_ll_dma.h **** 
 148:Drivers/STM32F1xx_HAL_Driver/Inc/stm32f1xx_ll_dma.h ****   uint32_t Priority;               /*!< Specifies the channel priority level.
 149:Drivers/STM32F1xx_HAL_Driver/Inc/stm32f1xx_ll_dma.h ****                                         This parameter can be a value of @ref DMA_LL_EC_PRIORITY
 150:Drivers/STM32F1xx_HAL_Driver/Inc/stm32f1xx_ll_dma.h **** 
 151:Drivers/STM32F1xx_HAL_Driver/Inc/stm32f1xx_ll_dma.h ****                                         This feature can be modified afterwards using unitary funct
 152:Drivers/STM32F1xx_HAL_Driver/Inc/stm32f1xx_ll_dma.h **** 
 153:Drivers/STM32F1xx_HAL_Driver/Inc/stm32f1xx_ll_dma.h **** } LL_DMA_InitTypeDef;
 154:Drivers/STM32F1xx_HAL_Driver/Inc/stm32f1xx_ll_dma.h **** /**
 155:Drivers/STM32F1xx_HAL_Driver/Inc/stm32f1xx_ll_dma.h ****   * @}
 156:Drivers/STM32F1xx_HAL_Driver/Inc/stm32f1xx_ll_dma.h ****   */
 157:Drivers/STM32F1xx_HAL_Driver/Inc/stm32f1xx_ll_dma.h **** #endif /*USE_FULL_LL_DRIVER*/
 158:Drivers/STM32F1xx_HAL_Driver/Inc/stm32f1xx_ll_dma.h **** 
 159:Drivers/STM32F1xx_HAL_Driver/Inc/stm32f1xx_ll_dma.h **** /* Exported constants --------------------------------------------------------*/
 160:Drivers/STM32F1xx_HAL_Driver/Inc/stm32f1xx_ll_dma.h **** /** @defgroup DMA_LL_Exported_Constants DMA Exported Constants
 161:Drivers/STM32F1xx_HAL_Driver/Inc/stm32f1xx_ll_dma.h ****   * @{
 162:Drivers/STM32F1xx_HAL_Driver/Inc/stm32f1xx_ll_dma.h ****   */
 163:Drivers/STM32F1xx_HAL_Driver/Inc/stm32f1xx_ll_dma.h **** /** @defgroup DMA_LL_EC_CLEAR_FLAG Clear Flags Defines
 164:Drivers/STM32F1xx_HAL_Driver/Inc/stm32f1xx_ll_dma.h ****   * @brief    Flags defines which can be used with LL_DMA_WriteReg function
 165:Drivers/STM32F1xx_HAL_Driver/Inc/stm32f1xx_ll_dma.h ****   * @{
 166:Drivers/STM32F1xx_HAL_Driver/Inc/stm32f1xx_ll_dma.h ****   */
 167:Drivers/STM32F1xx_HAL_Driver/Inc/stm32f1xx_ll_dma.h **** #define LL_DMA_IFCR_CGIF1                 DMA_IFCR_CGIF1        /*!< Channel 1 global flag         
 168:Drivers/STM32F1xx_HAL_Driver/Inc/stm32f1xx_ll_dma.h **** #define LL_DMA_IFCR_CTCIF1                DMA_IFCR_CTCIF1       /*!< Channel 1 transfer complete fl
 169:Drivers/STM32F1xx_HAL_Driver/Inc/stm32f1xx_ll_dma.h **** #define LL_DMA_IFCR_CHTIF1                DMA_IFCR_CHTIF1       /*!< Channel 1 half transfer flag  
 170:Drivers/STM32F1xx_HAL_Driver/Inc/stm32f1xx_ll_dma.h **** #define LL_DMA_IFCR_CTEIF1                DMA_IFCR_CTEIF1       /*!< Channel 1 transfer error flag 
 171:Drivers/STM32F1xx_HAL_Driver/Inc/stm32f1xx_ll_dma.h **** #define LL_DMA_IFCR_CGIF2                 DMA_IFCR_CGIF2        /*!< Channel 2 global flag         
 172:Drivers/STM32F1xx_HAL_Driver/Inc/stm32f1xx_ll_dma.h **** #define LL_DMA_IFCR_CTCIF2                DMA_IFCR_CTCIF2       /*!< Channel 2 transfer complete fl
 173:Drivers/STM32F1xx_HAL_Driver/Inc/stm32f1xx_ll_dma.h **** #define LL_DMA_IFCR_CHTIF2                DMA_IFCR_CHTIF2       /*!< Channel 2 half transfer flag  
 174:Drivers/STM32F1xx_HAL_Driver/Inc/stm32f1xx_ll_dma.h **** #define LL_DMA_IFCR_CTEIF2                DMA_IFCR_CTEIF2       /*!< Channel 2 transfer error flag 
 175:Drivers/STM32F1xx_HAL_Driver/Inc/stm32f1xx_ll_dma.h **** #define LL_DMA_IFCR_CGIF3                 DMA_IFCR_CGIF3        /*!< Channel 3 global flag         
 176:Drivers/STM32F1xx_HAL_Driver/Inc/stm32f1xx_ll_dma.h **** #define LL_DMA_IFCR_CTCIF3                DMA_IFCR_CTCIF3       /*!< Channel 3 transfer complete fl
 177:Drivers/STM32F1xx_HAL_Driver/Inc/stm32f1xx_ll_dma.h **** #define LL_DMA_IFCR_CHTIF3                DMA_IFCR_CHTIF3       /*!< Channel 3 half transfer flag  
 178:Drivers/STM32F1xx_HAL_Driver/Inc/stm32f1xx_ll_dma.h **** #define LL_DMA_IFCR_CTEIF3                DMA_IFCR_CTEIF3       /*!< Channel 3 transfer error flag 
 179:Drivers/STM32F1xx_HAL_Driver/Inc/stm32f1xx_ll_dma.h **** #define LL_DMA_IFCR_CGIF4                 DMA_IFCR_CGIF4        /*!< Channel 4 global flag         
 180:Drivers/STM32F1xx_HAL_Driver/Inc/stm32f1xx_ll_dma.h **** #define LL_DMA_IFCR_CTCIF4                DMA_IFCR_CTCIF4       /*!< Channel 4 transfer complete fl
 181:Drivers/STM32F1xx_HAL_Driver/Inc/stm32f1xx_ll_dma.h **** #define LL_DMA_IFCR_CHTIF4                DMA_IFCR_CHTIF4       /*!< Channel 4 half transfer flag  
 182:Drivers/STM32F1xx_HAL_Driver/Inc/stm32f1xx_ll_dma.h **** #define LL_DMA_IFCR_CTEIF4                DMA_IFCR_CTEIF4       /*!< Channel 4 transfer error flag 
 183:Drivers/STM32F1xx_HAL_Driver/Inc/stm32f1xx_ll_dma.h **** #define LL_DMA_IFCR_CGIF5                 DMA_IFCR_CGIF5        /*!< Channel 5 global flag         
 184:Drivers/STM32F1xx_HAL_Driver/Inc/stm32f1xx_ll_dma.h **** #define LL_DMA_IFCR_CTCIF5                DMA_IFCR_CTCIF5       /*!< Channel 5 transfer complete fl
 185:Drivers/STM32F1xx_HAL_Driver/Inc/stm32f1xx_ll_dma.h **** #define LL_DMA_IFCR_CHTIF5                DMA_IFCR_CHTIF5       /*!< Channel 5 half transfer flag  
 186:Drivers/STM32F1xx_HAL_Driver/Inc/stm32f1xx_ll_dma.h **** #define LL_DMA_IFCR_CTEIF5                DMA_IFCR_CTEIF5       /*!< Channel 5 transfer error flag 
 187:Drivers/STM32F1xx_HAL_Driver/Inc/stm32f1xx_ll_dma.h **** #define LL_DMA_IFCR_CGIF6                 DMA_IFCR_CGIF6        /*!< Channel 6 global flag         
 188:Drivers/STM32F1xx_HAL_Driver/Inc/stm32f1xx_ll_dma.h **** #define LL_DMA_IFCR_CTCIF6                DMA_IFCR_CTCIF6       /*!< Channel 6 transfer complete fl
 189:Drivers/STM32F1xx_HAL_Driver/Inc/stm32f1xx_ll_dma.h **** #define LL_DMA_IFCR_CHTIF6                DMA_IFCR_CHTIF6       /*!< Channel 6 half transfer flag  
 190:Drivers/STM32F1xx_HAL_Driver/Inc/stm32f1xx_ll_dma.h **** #define LL_DMA_IFCR_CTEIF6                DMA_IFCR_CTEIF6       /*!< Channel 6 transfer error flag 
 191:Drivers/STM32F1xx_HAL_Driver/Inc/stm32f1xx_ll_dma.h **** #define LL_DMA_IFCR_CGIF7                 DMA_IFCR_CGIF7        /*!< Channel 7 global flag         
 192:Drivers/STM32F1xx_HAL_Driver/Inc/stm32f1xx_ll_dma.h **** #define LL_DMA_IFCR_CTCIF7                DMA_IFCR_CTCIF7       /*!< Channel 7 transfer complete fl
 193:Drivers/STM32F1xx_HAL_Driver/Inc/stm32f1xx_ll_dma.h **** #define LL_DMA_IFCR_CHTIF7                DMA_IFCR_CHTIF7       /*!< Channel 7 half transfer flag  
 194:Drivers/STM32F1xx_HAL_Driver/Inc/stm32f1xx_ll_dma.h **** #define LL_DMA_IFCR_CTEIF7                DMA_IFCR_CTEIF7       /*!< Channel 7 transfer error flag 
 195:Drivers/STM32F1xx_HAL_Driver/Inc/stm32f1xx_ll_dma.h **** /**
ARM GAS  /tmp/ccwUacce.s 			page 5


 196:Drivers/STM32F1xx_HAL_Driver/Inc/stm32f1xx_ll_dma.h ****   * @}
 197:Drivers/STM32F1xx_HAL_Driver/Inc/stm32f1xx_ll_dma.h ****   */
 198:Drivers/STM32F1xx_HAL_Driver/Inc/stm32f1xx_ll_dma.h **** 
 199:Drivers/STM32F1xx_HAL_Driver/Inc/stm32f1xx_ll_dma.h **** /** @defgroup DMA_LL_EC_GET_FLAG Get Flags Defines
 200:Drivers/STM32F1xx_HAL_Driver/Inc/stm32f1xx_ll_dma.h ****   * @brief    Flags defines which can be used with LL_DMA_ReadReg function
 201:Drivers/STM32F1xx_HAL_Driver/Inc/stm32f1xx_ll_dma.h ****   * @{
 202:Drivers/STM32F1xx_HAL_Driver/Inc/stm32f1xx_ll_dma.h ****   */
 203:Drivers/STM32F1xx_HAL_Driver/Inc/stm32f1xx_ll_dma.h **** #define LL_DMA_ISR_GIF1                   DMA_ISR_GIF1          /*!< Channel 1 global flag         
 204:Drivers/STM32F1xx_HAL_Driver/Inc/stm32f1xx_ll_dma.h **** #define LL_DMA_ISR_TCIF1                  DMA_ISR_TCIF1         /*!< Channel 1 transfer complete fl
 205:Drivers/STM32F1xx_HAL_Driver/Inc/stm32f1xx_ll_dma.h **** #define LL_DMA_ISR_HTIF1                  DMA_ISR_HTIF1         /*!< Channel 1 half transfer flag  
 206:Drivers/STM32F1xx_HAL_Driver/Inc/stm32f1xx_ll_dma.h **** #define LL_DMA_ISR_TEIF1                  DMA_ISR_TEIF1         /*!< Channel 1 transfer error flag 
 207:Drivers/STM32F1xx_HAL_Driver/Inc/stm32f1xx_ll_dma.h **** #define LL_DMA_ISR_GIF2                   DMA_ISR_GIF2          /*!< Channel 2 global flag         
 208:Drivers/STM32F1xx_HAL_Driver/Inc/stm32f1xx_ll_dma.h **** #define LL_DMA_ISR_TCIF2                  DMA_ISR_TCIF2         /*!< Channel 2 transfer complete fl
 209:Drivers/STM32F1xx_HAL_Driver/Inc/stm32f1xx_ll_dma.h **** #define LL_DMA_ISR_HTIF2                  DMA_ISR_HTIF2         /*!< Channel 2 half transfer flag  
 210:Drivers/STM32F1xx_HAL_Driver/Inc/stm32f1xx_ll_dma.h **** #define LL_DMA_ISR_TEIF2                  DMA_ISR_TEIF2         /*!< Channel 2 transfer error flag 
 211:Drivers/STM32F1xx_HAL_Driver/Inc/stm32f1xx_ll_dma.h **** #define LL_DMA_ISR_GIF3                   DMA_ISR_GIF3          /*!< Channel 3 global flag         
 212:Drivers/STM32F1xx_HAL_Driver/Inc/stm32f1xx_ll_dma.h **** #define LL_DMA_ISR_TCIF3                  DMA_ISR_TCIF3         /*!< Channel 3 transfer complete fl
 213:Drivers/STM32F1xx_HAL_Driver/Inc/stm32f1xx_ll_dma.h **** #define LL_DMA_ISR_HTIF3                  DMA_ISR_HTIF3         /*!< Channel 3 half transfer flag  
 214:Drivers/STM32F1xx_HAL_Driver/Inc/stm32f1xx_ll_dma.h **** #define LL_DMA_ISR_TEIF3                  DMA_ISR_TEIF3         /*!< Channel 3 transfer error flag 
 215:Drivers/STM32F1xx_HAL_Driver/Inc/stm32f1xx_ll_dma.h **** #define LL_DMA_ISR_GIF4                   DMA_ISR_GIF4          /*!< Channel 4 global flag         
 216:Drivers/STM32F1xx_HAL_Driver/Inc/stm32f1xx_ll_dma.h **** #define LL_DMA_ISR_TCIF4                  DMA_ISR_TCIF4         /*!< Channel 4 transfer complete fl
 217:Drivers/STM32F1xx_HAL_Driver/Inc/stm32f1xx_ll_dma.h **** #define LL_DMA_ISR_HTIF4                  DMA_ISR_HTIF4         /*!< Channel 4 half transfer flag  
 218:Drivers/STM32F1xx_HAL_Driver/Inc/stm32f1xx_ll_dma.h **** #define LL_DMA_ISR_TEIF4                  DMA_ISR_TEIF4         /*!< Channel 4 transfer error flag 
 219:Drivers/STM32F1xx_HAL_Driver/Inc/stm32f1xx_ll_dma.h **** #define LL_DMA_ISR_GIF5                   DMA_ISR_GIF5          /*!< Channel 5 global flag         
 220:Drivers/STM32F1xx_HAL_Driver/Inc/stm32f1xx_ll_dma.h **** #define LL_DMA_ISR_TCIF5                  DMA_ISR_TCIF5         /*!< Channel 5 transfer complete fl
 221:Drivers/STM32F1xx_HAL_Driver/Inc/stm32f1xx_ll_dma.h **** #define LL_DMA_ISR_HTIF5                  DMA_ISR_HTIF5         /*!< Channel 5 half transfer flag  
 222:Drivers/STM32F1xx_HAL_Driver/Inc/stm32f1xx_ll_dma.h **** #define LL_DMA_ISR_TEIF5                  DMA_ISR_TEIF5         /*!< Channel 5 transfer error flag 
 223:Drivers/STM32F1xx_HAL_Driver/Inc/stm32f1xx_ll_dma.h **** #define LL_DMA_ISR_GIF6                   DMA_ISR_GIF6          /*!< Channel 6 global flag         
 224:Drivers/STM32F1xx_HAL_Driver/Inc/stm32f1xx_ll_dma.h **** #define LL_DMA_ISR_TCIF6                  DMA_ISR_TCIF6         /*!< Channel 6 transfer complete fl
 225:Drivers/STM32F1xx_HAL_Driver/Inc/stm32f1xx_ll_dma.h **** #define LL_DMA_ISR_HTIF6                  DMA_ISR_HTIF6         /*!< Channel 6 half transfer flag  
 226:Drivers/STM32F1xx_HAL_Driver/Inc/stm32f1xx_ll_dma.h **** #define LL_DMA_ISR_TEIF6                  DMA_ISR_TEIF6         /*!< Channel 6 transfer error flag 
 227:Drivers/STM32F1xx_HAL_Driver/Inc/stm32f1xx_ll_dma.h **** #define LL_DMA_ISR_GIF7                   DMA_ISR_GIF7          /*!< Channel 7 global flag         
 228:Drivers/STM32F1xx_HAL_Driver/Inc/stm32f1xx_ll_dma.h **** #define LL_DMA_ISR_TCIF7                  DMA_ISR_TCIF7         /*!< Channel 7 transfer complete fl
 229:Drivers/STM32F1xx_HAL_Driver/Inc/stm32f1xx_ll_dma.h **** #define LL_DMA_ISR_HTIF7                  DMA_ISR_HTIF7         /*!< Channel 7 half transfer flag  
 230:Drivers/STM32F1xx_HAL_Driver/Inc/stm32f1xx_ll_dma.h **** #define LL_DMA_ISR_TEIF7                  DMA_ISR_TEIF7         /*!< Channel 7 transfer error flag 
 231:Drivers/STM32F1xx_HAL_Driver/Inc/stm32f1xx_ll_dma.h **** /**
 232:Drivers/STM32F1xx_HAL_Driver/Inc/stm32f1xx_ll_dma.h ****   * @}
 233:Drivers/STM32F1xx_HAL_Driver/Inc/stm32f1xx_ll_dma.h ****   */
 234:Drivers/STM32F1xx_HAL_Driver/Inc/stm32f1xx_ll_dma.h **** 
 235:Drivers/STM32F1xx_HAL_Driver/Inc/stm32f1xx_ll_dma.h **** /** @defgroup DMA_LL_EC_IT IT Defines
 236:Drivers/STM32F1xx_HAL_Driver/Inc/stm32f1xx_ll_dma.h ****   * @brief    IT defines which can be used with LL_DMA_ReadReg and  LL_DMA_WriteReg functions
 237:Drivers/STM32F1xx_HAL_Driver/Inc/stm32f1xx_ll_dma.h ****   * @{
 238:Drivers/STM32F1xx_HAL_Driver/Inc/stm32f1xx_ll_dma.h ****   */
 239:Drivers/STM32F1xx_HAL_Driver/Inc/stm32f1xx_ll_dma.h **** #define LL_DMA_CCR_TCIE                   DMA_CCR_TCIE          /*!< Transfer complete interrupt */
 240:Drivers/STM32F1xx_HAL_Driver/Inc/stm32f1xx_ll_dma.h **** #define LL_DMA_CCR_HTIE                   DMA_CCR_HTIE          /*!< Half Transfer interrupt     */
 241:Drivers/STM32F1xx_HAL_Driver/Inc/stm32f1xx_ll_dma.h **** #define LL_DMA_CCR_TEIE                   DMA_CCR_TEIE          /*!< Transfer error interrupt    */
 242:Drivers/STM32F1xx_HAL_Driver/Inc/stm32f1xx_ll_dma.h **** /**
 243:Drivers/STM32F1xx_HAL_Driver/Inc/stm32f1xx_ll_dma.h ****   * @}
 244:Drivers/STM32F1xx_HAL_Driver/Inc/stm32f1xx_ll_dma.h ****   */
 245:Drivers/STM32F1xx_HAL_Driver/Inc/stm32f1xx_ll_dma.h **** 
 246:Drivers/STM32F1xx_HAL_Driver/Inc/stm32f1xx_ll_dma.h **** /** @defgroup DMA_LL_EC_CHANNEL CHANNEL
 247:Drivers/STM32F1xx_HAL_Driver/Inc/stm32f1xx_ll_dma.h ****   * @{
 248:Drivers/STM32F1xx_HAL_Driver/Inc/stm32f1xx_ll_dma.h ****   */
 249:Drivers/STM32F1xx_HAL_Driver/Inc/stm32f1xx_ll_dma.h **** #define LL_DMA_CHANNEL_1                  0x00000001U /*!< DMA Channel 1 */
 250:Drivers/STM32F1xx_HAL_Driver/Inc/stm32f1xx_ll_dma.h **** #define LL_DMA_CHANNEL_2                  0x00000002U /*!< DMA Channel 2 */
 251:Drivers/STM32F1xx_HAL_Driver/Inc/stm32f1xx_ll_dma.h **** #define LL_DMA_CHANNEL_3                  0x00000003U /*!< DMA Channel 3 */
 252:Drivers/STM32F1xx_HAL_Driver/Inc/stm32f1xx_ll_dma.h **** #define LL_DMA_CHANNEL_4                  0x00000004U /*!< DMA Channel 4 */
ARM GAS  /tmp/ccwUacce.s 			page 6


 253:Drivers/STM32F1xx_HAL_Driver/Inc/stm32f1xx_ll_dma.h **** #define LL_DMA_CHANNEL_5                  0x00000005U /*!< DMA Channel 5 */
 254:Drivers/STM32F1xx_HAL_Driver/Inc/stm32f1xx_ll_dma.h **** #define LL_DMA_CHANNEL_6                  0x00000006U /*!< DMA Channel 6 */
 255:Drivers/STM32F1xx_HAL_Driver/Inc/stm32f1xx_ll_dma.h **** #define LL_DMA_CHANNEL_7                  0x00000007U /*!< DMA Channel 7 */
 256:Drivers/STM32F1xx_HAL_Driver/Inc/stm32f1xx_ll_dma.h **** #if defined(USE_FULL_LL_DRIVER)
 257:Drivers/STM32F1xx_HAL_Driver/Inc/stm32f1xx_ll_dma.h **** #define LL_DMA_CHANNEL_ALL                0xFFFF0000U /*!< DMA Channel all (used only for function 
 258:Drivers/STM32F1xx_HAL_Driver/Inc/stm32f1xx_ll_dma.h **** #endif /*USE_FULL_LL_DRIVER*/
 259:Drivers/STM32F1xx_HAL_Driver/Inc/stm32f1xx_ll_dma.h **** /**
 260:Drivers/STM32F1xx_HAL_Driver/Inc/stm32f1xx_ll_dma.h ****   * @}
 261:Drivers/STM32F1xx_HAL_Driver/Inc/stm32f1xx_ll_dma.h ****   */
 262:Drivers/STM32F1xx_HAL_Driver/Inc/stm32f1xx_ll_dma.h **** 
 263:Drivers/STM32F1xx_HAL_Driver/Inc/stm32f1xx_ll_dma.h **** /** @defgroup DMA_LL_EC_DIRECTION Transfer Direction
 264:Drivers/STM32F1xx_HAL_Driver/Inc/stm32f1xx_ll_dma.h ****   * @{
 265:Drivers/STM32F1xx_HAL_Driver/Inc/stm32f1xx_ll_dma.h ****   */
 266:Drivers/STM32F1xx_HAL_Driver/Inc/stm32f1xx_ll_dma.h **** #define LL_DMA_DIRECTION_PERIPH_TO_MEMORY 0x00000000U             /*!< Peripheral to memory directi
 267:Drivers/STM32F1xx_HAL_Driver/Inc/stm32f1xx_ll_dma.h **** #define LL_DMA_DIRECTION_MEMORY_TO_PERIPH DMA_CCR_DIR             /*!< Memory to peripheral directi
 268:Drivers/STM32F1xx_HAL_Driver/Inc/stm32f1xx_ll_dma.h **** #define LL_DMA_DIRECTION_MEMORY_TO_MEMORY DMA_CCR_MEM2MEM         /*!< Memory to memory direction  
 269:Drivers/STM32F1xx_HAL_Driver/Inc/stm32f1xx_ll_dma.h **** /**
 270:Drivers/STM32F1xx_HAL_Driver/Inc/stm32f1xx_ll_dma.h ****   * @}
 271:Drivers/STM32F1xx_HAL_Driver/Inc/stm32f1xx_ll_dma.h ****   */
 272:Drivers/STM32F1xx_HAL_Driver/Inc/stm32f1xx_ll_dma.h **** 
 273:Drivers/STM32F1xx_HAL_Driver/Inc/stm32f1xx_ll_dma.h **** /** @defgroup DMA_LL_EC_MODE Transfer mode
 274:Drivers/STM32F1xx_HAL_Driver/Inc/stm32f1xx_ll_dma.h ****   * @{
 275:Drivers/STM32F1xx_HAL_Driver/Inc/stm32f1xx_ll_dma.h ****   */
 276:Drivers/STM32F1xx_HAL_Driver/Inc/stm32f1xx_ll_dma.h **** #define LL_DMA_MODE_NORMAL                0x00000000U             /*!< Normal Mode                 
 277:Drivers/STM32F1xx_HAL_Driver/Inc/stm32f1xx_ll_dma.h **** #define LL_DMA_MODE_CIRCULAR              DMA_CCR_CIRC            /*!< Circular Mode               
 278:Drivers/STM32F1xx_HAL_Driver/Inc/stm32f1xx_ll_dma.h **** /**
 279:Drivers/STM32F1xx_HAL_Driver/Inc/stm32f1xx_ll_dma.h ****   * @}
 280:Drivers/STM32F1xx_HAL_Driver/Inc/stm32f1xx_ll_dma.h ****   */
 281:Drivers/STM32F1xx_HAL_Driver/Inc/stm32f1xx_ll_dma.h **** 
 282:Drivers/STM32F1xx_HAL_Driver/Inc/stm32f1xx_ll_dma.h **** /** @defgroup DMA_LL_EC_PERIPH Peripheral increment mode
 283:Drivers/STM32F1xx_HAL_Driver/Inc/stm32f1xx_ll_dma.h ****   * @{
 284:Drivers/STM32F1xx_HAL_Driver/Inc/stm32f1xx_ll_dma.h ****   */
 285:Drivers/STM32F1xx_HAL_Driver/Inc/stm32f1xx_ll_dma.h **** #define LL_DMA_PERIPH_INCREMENT           DMA_CCR_PINC            /*!< Peripheral increment mode En
 286:Drivers/STM32F1xx_HAL_Driver/Inc/stm32f1xx_ll_dma.h **** #define LL_DMA_PERIPH_NOINCREMENT         0x00000000U             /*!< Peripheral increment mode Di
 287:Drivers/STM32F1xx_HAL_Driver/Inc/stm32f1xx_ll_dma.h **** /**
 288:Drivers/STM32F1xx_HAL_Driver/Inc/stm32f1xx_ll_dma.h ****   * @}
 289:Drivers/STM32F1xx_HAL_Driver/Inc/stm32f1xx_ll_dma.h ****   */
 290:Drivers/STM32F1xx_HAL_Driver/Inc/stm32f1xx_ll_dma.h **** 
 291:Drivers/STM32F1xx_HAL_Driver/Inc/stm32f1xx_ll_dma.h **** /** @defgroup DMA_LL_EC_MEMORY Memory increment mode
 292:Drivers/STM32F1xx_HAL_Driver/Inc/stm32f1xx_ll_dma.h ****   * @{
 293:Drivers/STM32F1xx_HAL_Driver/Inc/stm32f1xx_ll_dma.h ****   */
 294:Drivers/STM32F1xx_HAL_Driver/Inc/stm32f1xx_ll_dma.h **** #define LL_DMA_MEMORY_INCREMENT           DMA_CCR_MINC            /*!< Memory increment mode Enable
 295:Drivers/STM32F1xx_HAL_Driver/Inc/stm32f1xx_ll_dma.h **** #define LL_DMA_MEMORY_NOINCREMENT         0x00000000U             /*!< Memory increment mode Disabl
 296:Drivers/STM32F1xx_HAL_Driver/Inc/stm32f1xx_ll_dma.h **** /**
 297:Drivers/STM32F1xx_HAL_Driver/Inc/stm32f1xx_ll_dma.h ****   * @}
 298:Drivers/STM32F1xx_HAL_Driver/Inc/stm32f1xx_ll_dma.h ****   */
 299:Drivers/STM32F1xx_HAL_Driver/Inc/stm32f1xx_ll_dma.h **** 
 300:Drivers/STM32F1xx_HAL_Driver/Inc/stm32f1xx_ll_dma.h **** /** @defgroup DMA_LL_EC_PDATAALIGN Peripheral data alignment
 301:Drivers/STM32F1xx_HAL_Driver/Inc/stm32f1xx_ll_dma.h ****   * @{
 302:Drivers/STM32F1xx_HAL_Driver/Inc/stm32f1xx_ll_dma.h ****   */
 303:Drivers/STM32F1xx_HAL_Driver/Inc/stm32f1xx_ll_dma.h **** #define LL_DMA_PDATAALIGN_BYTE            0x00000000U             /*!< Peripheral data alignment : 
 304:Drivers/STM32F1xx_HAL_Driver/Inc/stm32f1xx_ll_dma.h **** #define LL_DMA_PDATAALIGN_HALFWORD        DMA_CCR_PSIZE_0         /*!< Peripheral data alignment : 
 305:Drivers/STM32F1xx_HAL_Driver/Inc/stm32f1xx_ll_dma.h **** #define LL_DMA_PDATAALIGN_WORD            DMA_CCR_PSIZE_1         /*!< Peripheral data alignment : 
 306:Drivers/STM32F1xx_HAL_Driver/Inc/stm32f1xx_ll_dma.h **** /**
 307:Drivers/STM32F1xx_HAL_Driver/Inc/stm32f1xx_ll_dma.h ****   * @}
 308:Drivers/STM32F1xx_HAL_Driver/Inc/stm32f1xx_ll_dma.h ****   */
 309:Drivers/STM32F1xx_HAL_Driver/Inc/stm32f1xx_ll_dma.h **** 
ARM GAS  /tmp/ccwUacce.s 			page 7


 310:Drivers/STM32F1xx_HAL_Driver/Inc/stm32f1xx_ll_dma.h **** /** @defgroup DMA_LL_EC_MDATAALIGN Memory data alignment
 311:Drivers/STM32F1xx_HAL_Driver/Inc/stm32f1xx_ll_dma.h ****   * @{
 312:Drivers/STM32F1xx_HAL_Driver/Inc/stm32f1xx_ll_dma.h ****   */
 313:Drivers/STM32F1xx_HAL_Driver/Inc/stm32f1xx_ll_dma.h **** #define LL_DMA_MDATAALIGN_BYTE            0x00000000U             /*!< Memory data alignment : Byte
 314:Drivers/STM32F1xx_HAL_Driver/Inc/stm32f1xx_ll_dma.h **** #define LL_DMA_MDATAALIGN_HALFWORD        DMA_CCR_MSIZE_0         /*!< Memory data alignment : Half
 315:Drivers/STM32F1xx_HAL_Driver/Inc/stm32f1xx_ll_dma.h **** #define LL_DMA_MDATAALIGN_WORD            DMA_CCR_MSIZE_1         /*!< Memory data alignment : Word
 316:Drivers/STM32F1xx_HAL_Driver/Inc/stm32f1xx_ll_dma.h **** /**
 317:Drivers/STM32F1xx_HAL_Driver/Inc/stm32f1xx_ll_dma.h ****   * @}
 318:Drivers/STM32F1xx_HAL_Driver/Inc/stm32f1xx_ll_dma.h ****   */
 319:Drivers/STM32F1xx_HAL_Driver/Inc/stm32f1xx_ll_dma.h **** 
 320:Drivers/STM32F1xx_HAL_Driver/Inc/stm32f1xx_ll_dma.h **** /** @defgroup DMA_LL_EC_PRIORITY Transfer Priority level
 321:Drivers/STM32F1xx_HAL_Driver/Inc/stm32f1xx_ll_dma.h ****   * @{
 322:Drivers/STM32F1xx_HAL_Driver/Inc/stm32f1xx_ll_dma.h ****   */
 323:Drivers/STM32F1xx_HAL_Driver/Inc/stm32f1xx_ll_dma.h **** #define LL_DMA_PRIORITY_LOW               0x00000000U             /*!< Priority level : Low       *
 324:Drivers/STM32F1xx_HAL_Driver/Inc/stm32f1xx_ll_dma.h **** #define LL_DMA_PRIORITY_MEDIUM            DMA_CCR_PL_0            /*!< Priority level : Medium    *
 325:Drivers/STM32F1xx_HAL_Driver/Inc/stm32f1xx_ll_dma.h **** #define LL_DMA_PRIORITY_HIGH              DMA_CCR_PL_1            /*!< Priority level : High      *
 326:Drivers/STM32F1xx_HAL_Driver/Inc/stm32f1xx_ll_dma.h **** #define LL_DMA_PRIORITY_VERYHIGH          DMA_CCR_PL              /*!< Priority level : Very_High *
 327:Drivers/STM32F1xx_HAL_Driver/Inc/stm32f1xx_ll_dma.h **** /**
 328:Drivers/STM32F1xx_HAL_Driver/Inc/stm32f1xx_ll_dma.h ****   * @}
 329:Drivers/STM32F1xx_HAL_Driver/Inc/stm32f1xx_ll_dma.h ****   */
 330:Drivers/STM32F1xx_HAL_Driver/Inc/stm32f1xx_ll_dma.h **** 
 331:Drivers/STM32F1xx_HAL_Driver/Inc/stm32f1xx_ll_dma.h **** /**
 332:Drivers/STM32F1xx_HAL_Driver/Inc/stm32f1xx_ll_dma.h ****   * @}
 333:Drivers/STM32F1xx_HAL_Driver/Inc/stm32f1xx_ll_dma.h ****   */
 334:Drivers/STM32F1xx_HAL_Driver/Inc/stm32f1xx_ll_dma.h **** 
 335:Drivers/STM32F1xx_HAL_Driver/Inc/stm32f1xx_ll_dma.h **** /* Exported macro ------------------------------------------------------------*/
 336:Drivers/STM32F1xx_HAL_Driver/Inc/stm32f1xx_ll_dma.h **** /** @defgroup DMA_LL_Exported_Macros DMA Exported Macros
 337:Drivers/STM32F1xx_HAL_Driver/Inc/stm32f1xx_ll_dma.h ****   * @{
 338:Drivers/STM32F1xx_HAL_Driver/Inc/stm32f1xx_ll_dma.h ****   */
 339:Drivers/STM32F1xx_HAL_Driver/Inc/stm32f1xx_ll_dma.h **** 
 340:Drivers/STM32F1xx_HAL_Driver/Inc/stm32f1xx_ll_dma.h **** /** @defgroup DMA_LL_EM_WRITE_READ Common Write and read registers macros
 341:Drivers/STM32F1xx_HAL_Driver/Inc/stm32f1xx_ll_dma.h ****   * @{
 342:Drivers/STM32F1xx_HAL_Driver/Inc/stm32f1xx_ll_dma.h ****   */
 343:Drivers/STM32F1xx_HAL_Driver/Inc/stm32f1xx_ll_dma.h **** /**
 344:Drivers/STM32F1xx_HAL_Driver/Inc/stm32f1xx_ll_dma.h ****   * @brief  Write a value in DMA register
 345:Drivers/STM32F1xx_HAL_Driver/Inc/stm32f1xx_ll_dma.h ****   * @param  __INSTANCE__ DMA Instance
 346:Drivers/STM32F1xx_HAL_Driver/Inc/stm32f1xx_ll_dma.h ****   * @param  __REG__ Register to be written
 347:Drivers/STM32F1xx_HAL_Driver/Inc/stm32f1xx_ll_dma.h ****   * @param  __VALUE__ Value to be written in the register
 348:Drivers/STM32F1xx_HAL_Driver/Inc/stm32f1xx_ll_dma.h ****   * @retval None
 349:Drivers/STM32F1xx_HAL_Driver/Inc/stm32f1xx_ll_dma.h ****   */
 350:Drivers/STM32F1xx_HAL_Driver/Inc/stm32f1xx_ll_dma.h **** #define LL_DMA_WriteReg(__INSTANCE__, __REG__, __VALUE__) WRITE_REG(__INSTANCE__->__REG__, (__VALUE
 351:Drivers/STM32F1xx_HAL_Driver/Inc/stm32f1xx_ll_dma.h **** 
 352:Drivers/STM32F1xx_HAL_Driver/Inc/stm32f1xx_ll_dma.h **** /**
 353:Drivers/STM32F1xx_HAL_Driver/Inc/stm32f1xx_ll_dma.h ****   * @brief  Read a value in DMA register
 354:Drivers/STM32F1xx_HAL_Driver/Inc/stm32f1xx_ll_dma.h ****   * @param  __INSTANCE__ DMA Instance
 355:Drivers/STM32F1xx_HAL_Driver/Inc/stm32f1xx_ll_dma.h ****   * @param  __REG__ Register to be read
 356:Drivers/STM32F1xx_HAL_Driver/Inc/stm32f1xx_ll_dma.h ****   * @retval Register value
 357:Drivers/STM32F1xx_HAL_Driver/Inc/stm32f1xx_ll_dma.h ****   */
 358:Drivers/STM32F1xx_HAL_Driver/Inc/stm32f1xx_ll_dma.h **** #define LL_DMA_ReadReg(__INSTANCE__, __REG__) READ_REG(__INSTANCE__->__REG__)
 359:Drivers/STM32F1xx_HAL_Driver/Inc/stm32f1xx_ll_dma.h **** /**
 360:Drivers/STM32F1xx_HAL_Driver/Inc/stm32f1xx_ll_dma.h ****   * @}
 361:Drivers/STM32F1xx_HAL_Driver/Inc/stm32f1xx_ll_dma.h ****   */
 362:Drivers/STM32F1xx_HAL_Driver/Inc/stm32f1xx_ll_dma.h **** 
 363:Drivers/STM32F1xx_HAL_Driver/Inc/stm32f1xx_ll_dma.h **** /** @defgroup DMA_LL_EM_CONVERT_DMAxCHANNELy Convert DMAxChannely
 364:Drivers/STM32F1xx_HAL_Driver/Inc/stm32f1xx_ll_dma.h ****   * @{
 365:Drivers/STM32F1xx_HAL_Driver/Inc/stm32f1xx_ll_dma.h ****   */
 366:Drivers/STM32F1xx_HAL_Driver/Inc/stm32f1xx_ll_dma.h **** 
ARM GAS  /tmp/ccwUacce.s 			page 8


 367:Drivers/STM32F1xx_HAL_Driver/Inc/stm32f1xx_ll_dma.h **** /**
 368:Drivers/STM32F1xx_HAL_Driver/Inc/stm32f1xx_ll_dma.h ****   * @brief  Convert DMAx_Channely into DMAx
 369:Drivers/STM32F1xx_HAL_Driver/Inc/stm32f1xx_ll_dma.h ****   * @param  __CHANNEL_INSTANCE__ DMAx_Channely
 370:Drivers/STM32F1xx_HAL_Driver/Inc/stm32f1xx_ll_dma.h ****   * @retval DMAx
 371:Drivers/STM32F1xx_HAL_Driver/Inc/stm32f1xx_ll_dma.h ****   */
 372:Drivers/STM32F1xx_HAL_Driver/Inc/stm32f1xx_ll_dma.h **** #if defined(DMA2)
 373:Drivers/STM32F1xx_HAL_Driver/Inc/stm32f1xx_ll_dma.h **** #define __LL_DMA_GET_INSTANCE(__CHANNEL_INSTANCE__)   \
 374:Drivers/STM32F1xx_HAL_Driver/Inc/stm32f1xx_ll_dma.h **** (((uint32_t)(__CHANNEL_INSTANCE__) > ((uint32_t)DMA1_Channel7)) ?  DMA2 : DMA1)
 375:Drivers/STM32F1xx_HAL_Driver/Inc/stm32f1xx_ll_dma.h **** #else
 376:Drivers/STM32F1xx_HAL_Driver/Inc/stm32f1xx_ll_dma.h **** #define __LL_DMA_GET_INSTANCE(__CHANNEL_INSTANCE__)  (DMA1)
 377:Drivers/STM32F1xx_HAL_Driver/Inc/stm32f1xx_ll_dma.h **** #endif
 378:Drivers/STM32F1xx_HAL_Driver/Inc/stm32f1xx_ll_dma.h **** 
 379:Drivers/STM32F1xx_HAL_Driver/Inc/stm32f1xx_ll_dma.h **** /**
 380:Drivers/STM32F1xx_HAL_Driver/Inc/stm32f1xx_ll_dma.h ****   * @brief  Convert DMAx_Channely into LL_DMA_CHANNEL_y
 381:Drivers/STM32F1xx_HAL_Driver/Inc/stm32f1xx_ll_dma.h ****   * @param  __CHANNEL_INSTANCE__ DMAx_Channely
 382:Drivers/STM32F1xx_HAL_Driver/Inc/stm32f1xx_ll_dma.h ****   * @retval LL_DMA_CHANNEL_y
 383:Drivers/STM32F1xx_HAL_Driver/Inc/stm32f1xx_ll_dma.h ****   */
 384:Drivers/STM32F1xx_HAL_Driver/Inc/stm32f1xx_ll_dma.h **** #if defined (DMA2)
 385:Drivers/STM32F1xx_HAL_Driver/Inc/stm32f1xx_ll_dma.h **** #define __LL_DMA_GET_CHANNEL(__CHANNEL_INSTANCE__)   \
 386:Drivers/STM32F1xx_HAL_Driver/Inc/stm32f1xx_ll_dma.h **** (((uint32_t)(__CHANNEL_INSTANCE__) == ((uint32_t)DMA1_Channel1)) ? LL_DMA_CHANNEL_1 : \
 387:Drivers/STM32F1xx_HAL_Driver/Inc/stm32f1xx_ll_dma.h ****  ((uint32_t)(__CHANNEL_INSTANCE__) == ((uint32_t)DMA2_Channel1)) ? LL_DMA_CHANNEL_1 : \
 388:Drivers/STM32F1xx_HAL_Driver/Inc/stm32f1xx_ll_dma.h ****  ((uint32_t)(__CHANNEL_INSTANCE__) == ((uint32_t)DMA1_Channel2)) ? LL_DMA_CHANNEL_2 : \
 389:Drivers/STM32F1xx_HAL_Driver/Inc/stm32f1xx_ll_dma.h ****  ((uint32_t)(__CHANNEL_INSTANCE__) == ((uint32_t)DMA2_Channel2)) ? LL_DMA_CHANNEL_2 : \
 390:Drivers/STM32F1xx_HAL_Driver/Inc/stm32f1xx_ll_dma.h ****  ((uint32_t)(__CHANNEL_INSTANCE__) == ((uint32_t)DMA1_Channel3)) ? LL_DMA_CHANNEL_3 : \
 391:Drivers/STM32F1xx_HAL_Driver/Inc/stm32f1xx_ll_dma.h ****  ((uint32_t)(__CHANNEL_INSTANCE__) == ((uint32_t)DMA2_Channel3)) ? LL_DMA_CHANNEL_3 : \
 392:Drivers/STM32F1xx_HAL_Driver/Inc/stm32f1xx_ll_dma.h ****  ((uint32_t)(__CHANNEL_INSTANCE__) == ((uint32_t)DMA1_Channel4)) ? LL_DMA_CHANNEL_4 : \
 393:Drivers/STM32F1xx_HAL_Driver/Inc/stm32f1xx_ll_dma.h ****  ((uint32_t)(__CHANNEL_INSTANCE__) == ((uint32_t)DMA2_Channel4)) ? LL_DMA_CHANNEL_4 : \
 394:Drivers/STM32F1xx_HAL_Driver/Inc/stm32f1xx_ll_dma.h ****  ((uint32_t)(__CHANNEL_INSTANCE__) == ((uint32_t)DMA1_Channel5)) ? LL_DMA_CHANNEL_5 : \
 395:Drivers/STM32F1xx_HAL_Driver/Inc/stm32f1xx_ll_dma.h ****  ((uint32_t)(__CHANNEL_INSTANCE__) == ((uint32_t)DMA2_Channel5)) ? LL_DMA_CHANNEL_5 : \
 396:Drivers/STM32F1xx_HAL_Driver/Inc/stm32f1xx_ll_dma.h ****  ((uint32_t)(__CHANNEL_INSTANCE__) == ((uint32_t)DMA1_Channel6)) ? LL_DMA_CHANNEL_6 : \
 397:Drivers/STM32F1xx_HAL_Driver/Inc/stm32f1xx_ll_dma.h ****  LL_DMA_CHANNEL_7)
 398:Drivers/STM32F1xx_HAL_Driver/Inc/stm32f1xx_ll_dma.h **** #else
 399:Drivers/STM32F1xx_HAL_Driver/Inc/stm32f1xx_ll_dma.h **** #define __LL_DMA_GET_CHANNEL(__CHANNEL_INSTANCE__)   \
 400:Drivers/STM32F1xx_HAL_Driver/Inc/stm32f1xx_ll_dma.h **** (((uint32_t)(__CHANNEL_INSTANCE__) == ((uint32_t)DMA1_Channel1)) ? LL_DMA_CHANNEL_1 : \
 401:Drivers/STM32F1xx_HAL_Driver/Inc/stm32f1xx_ll_dma.h ****  ((uint32_t)(__CHANNEL_INSTANCE__) == ((uint32_t)DMA1_Channel2)) ? LL_DMA_CHANNEL_2 : \
 402:Drivers/STM32F1xx_HAL_Driver/Inc/stm32f1xx_ll_dma.h ****  ((uint32_t)(__CHANNEL_INSTANCE__) == ((uint32_t)DMA1_Channel3)) ? LL_DMA_CHANNEL_3 : \
 403:Drivers/STM32F1xx_HAL_Driver/Inc/stm32f1xx_ll_dma.h ****  ((uint32_t)(__CHANNEL_INSTANCE__) == ((uint32_t)DMA1_Channel4)) ? LL_DMA_CHANNEL_4 : \
 404:Drivers/STM32F1xx_HAL_Driver/Inc/stm32f1xx_ll_dma.h ****  ((uint32_t)(__CHANNEL_INSTANCE__) == ((uint32_t)DMA1_Channel5)) ? LL_DMA_CHANNEL_5 : \
 405:Drivers/STM32F1xx_HAL_Driver/Inc/stm32f1xx_ll_dma.h ****  ((uint32_t)(__CHANNEL_INSTANCE__) == ((uint32_t)DMA1_Channel6)) ? LL_DMA_CHANNEL_6 : \
 406:Drivers/STM32F1xx_HAL_Driver/Inc/stm32f1xx_ll_dma.h ****  LL_DMA_CHANNEL_7)
 407:Drivers/STM32F1xx_HAL_Driver/Inc/stm32f1xx_ll_dma.h **** #endif
 408:Drivers/STM32F1xx_HAL_Driver/Inc/stm32f1xx_ll_dma.h **** 
 409:Drivers/STM32F1xx_HAL_Driver/Inc/stm32f1xx_ll_dma.h **** /**
 410:Drivers/STM32F1xx_HAL_Driver/Inc/stm32f1xx_ll_dma.h ****   * @brief  Convert DMA Instance DMAx and LL_DMA_CHANNEL_y into DMAx_Channely
 411:Drivers/STM32F1xx_HAL_Driver/Inc/stm32f1xx_ll_dma.h ****   * @param  __DMA_INSTANCE__ DMAx
 412:Drivers/STM32F1xx_HAL_Driver/Inc/stm32f1xx_ll_dma.h ****   * @param  __CHANNEL__ LL_DMA_CHANNEL_y
 413:Drivers/STM32F1xx_HAL_Driver/Inc/stm32f1xx_ll_dma.h ****   * @retval DMAx_Channely
 414:Drivers/STM32F1xx_HAL_Driver/Inc/stm32f1xx_ll_dma.h ****   */
 415:Drivers/STM32F1xx_HAL_Driver/Inc/stm32f1xx_ll_dma.h **** #if defined (DMA2)
 416:Drivers/STM32F1xx_HAL_Driver/Inc/stm32f1xx_ll_dma.h **** #define __LL_DMA_GET_CHANNEL_INSTANCE(__DMA_INSTANCE__, __CHANNEL__)   \
 417:Drivers/STM32F1xx_HAL_Driver/Inc/stm32f1xx_ll_dma.h **** ((((uint32_t)(__DMA_INSTANCE__) == ((uint32_t)DMA1)) && ((uint32_t)(__CHANNEL__) == ((uint32_t)LL_D
 418:Drivers/STM32F1xx_HAL_Driver/Inc/stm32f1xx_ll_dma.h ****  (((uint32_t)(__DMA_INSTANCE__) == ((uint32_t)DMA2)) && ((uint32_t)(__CHANNEL__) == ((uint32_t)LL_D
 419:Drivers/STM32F1xx_HAL_Driver/Inc/stm32f1xx_ll_dma.h ****  (((uint32_t)(__DMA_INSTANCE__) == ((uint32_t)DMA1)) && ((uint32_t)(__CHANNEL__) == ((uint32_t)LL_D
 420:Drivers/STM32F1xx_HAL_Driver/Inc/stm32f1xx_ll_dma.h ****  (((uint32_t)(__DMA_INSTANCE__) == ((uint32_t)DMA2)) && ((uint32_t)(__CHANNEL__) == ((uint32_t)LL_D
 421:Drivers/STM32F1xx_HAL_Driver/Inc/stm32f1xx_ll_dma.h ****  (((uint32_t)(__DMA_INSTANCE__) == ((uint32_t)DMA1)) && ((uint32_t)(__CHANNEL__) == ((uint32_t)LL_D
 422:Drivers/STM32F1xx_HAL_Driver/Inc/stm32f1xx_ll_dma.h ****  (((uint32_t)(__DMA_INSTANCE__) == ((uint32_t)DMA2)) && ((uint32_t)(__CHANNEL__) == ((uint32_t)LL_D
 423:Drivers/STM32F1xx_HAL_Driver/Inc/stm32f1xx_ll_dma.h ****  (((uint32_t)(__DMA_INSTANCE__) == ((uint32_t)DMA1)) && ((uint32_t)(__CHANNEL__) == ((uint32_t)LL_D
ARM GAS  /tmp/ccwUacce.s 			page 9


 424:Drivers/STM32F1xx_HAL_Driver/Inc/stm32f1xx_ll_dma.h ****  (((uint32_t)(__DMA_INSTANCE__) == ((uint32_t)DMA2)) && ((uint32_t)(__CHANNEL__) == ((uint32_t)LL_D
 425:Drivers/STM32F1xx_HAL_Driver/Inc/stm32f1xx_ll_dma.h ****  (((uint32_t)(__DMA_INSTANCE__) == ((uint32_t)DMA1)) && ((uint32_t)(__CHANNEL__) == ((uint32_t)LL_D
 426:Drivers/STM32F1xx_HAL_Driver/Inc/stm32f1xx_ll_dma.h ****  (((uint32_t)(__DMA_INSTANCE__) == ((uint32_t)DMA2)) && ((uint32_t)(__CHANNEL__) == ((uint32_t)LL_D
 427:Drivers/STM32F1xx_HAL_Driver/Inc/stm32f1xx_ll_dma.h ****  (((uint32_t)(__DMA_INSTANCE__) == ((uint32_t)DMA1)) && ((uint32_t)(__CHANNEL__) == ((uint32_t)LL_D
 428:Drivers/STM32F1xx_HAL_Driver/Inc/stm32f1xx_ll_dma.h ****  DMA1_Channel7)
 429:Drivers/STM32F1xx_HAL_Driver/Inc/stm32f1xx_ll_dma.h **** #else
 430:Drivers/STM32F1xx_HAL_Driver/Inc/stm32f1xx_ll_dma.h **** #define __LL_DMA_GET_CHANNEL_INSTANCE(__DMA_INSTANCE__, __CHANNEL__)   \
 431:Drivers/STM32F1xx_HAL_Driver/Inc/stm32f1xx_ll_dma.h **** ((((uint32_t)(__DMA_INSTANCE__) == ((uint32_t)DMA1)) && ((uint32_t)(__CHANNEL__) == ((uint32_t)LL_D
 432:Drivers/STM32F1xx_HAL_Driver/Inc/stm32f1xx_ll_dma.h ****  (((uint32_t)(__DMA_INSTANCE__) == ((uint32_t)DMA1)) && ((uint32_t)(__CHANNEL__) == ((uint32_t)LL_D
 433:Drivers/STM32F1xx_HAL_Driver/Inc/stm32f1xx_ll_dma.h ****  (((uint32_t)(__DMA_INSTANCE__) == ((uint32_t)DMA1)) && ((uint32_t)(__CHANNEL__) == ((uint32_t)LL_D
 434:Drivers/STM32F1xx_HAL_Driver/Inc/stm32f1xx_ll_dma.h ****  (((uint32_t)(__DMA_INSTANCE__) == ((uint32_t)DMA1)) && ((uint32_t)(__CHANNEL__) == ((uint32_t)LL_D
 435:Drivers/STM32F1xx_HAL_Driver/Inc/stm32f1xx_ll_dma.h ****  (((uint32_t)(__DMA_INSTANCE__) == ((uint32_t)DMA1)) && ((uint32_t)(__CHANNEL__) == ((uint32_t)LL_D
 436:Drivers/STM32F1xx_HAL_Driver/Inc/stm32f1xx_ll_dma.h ****  (((uint32_t)(__DMA_INSTANCE__) == ((uint32_t)DMA1)) && ((uint32_t)(__CHANNEL__) == ((uint32_t)LL_D
 437:Drivers/STM32F1xx_HAL_Driver/Inc/stm32f1xx_ll_dma.h ****  DMA1_Channel7)
 438:Drivers/STM32F1xx_HAL_Driver/Inc/stm32f1xx_ll_dma.h **** #endif
 439:Drivers/STM32F1xx_HAL_Driver/Inc/stm32f1xx_ll_dma.h **** 
 440:Drivers/STM32F1xx_HAL_Driver/Inc/stm32f1xx_ll_dma.h **** /**
 441:Drivers/STM32F1xx_HAL_Driver/Inc/stm32f1xx_ll_dma.h ****   * @}
 442:Drivers/STM32F1xx_HAL_Driver/Inc/stm32f1xx_ll_dma.h ****   */
 443:Drivers/STM32F1xx_HAL_Driver/Inc/stm32f1xx_ll_dma.h **** 
 444:Drivers/STM32F1xx_HAL_Driver/Inc/stm32f1xx_ll_dma.h **** /**
 445:Drivers/STM32F1xx_HAL_Driver/Inc/stm32f1xx_ll_dma.h ****   * @}
 446:Drivers/STM32F1xx_HAL_Driver/Inc/stm32f1xx_ll_dma.h ****   */
 447:Drivers/STM32F1xx_HAL_Driver/Inc/stm32f1xx_ll_dma.h **** 
 448:Drivers/STM32F1xx_HAL_Driver/Inc/stm32f1xx_ll_dma.h **** /* Exported functions --------------------------------------------------------*/
 449:Drivers/STM32F1xx_HAL_Driver/Inc/stm32f1xx_ll_dma.h **** /** @defgroup DMA_LL_Exported_Functions DMA Exported Functions
 450:Drivers/STM32F1xx_HAL_Driver/Inc/stm32f1xx_ll_dma.h ****  * @{
 451:Drivers/STM32F1xx_HAL_Driver/Inc/stm32f1xx_ll_dma.h ****  */
 452:Drivers/STM32F1xx_HAL_Driver/Inc/stm32f1xx_ll_dma.h **** 
 453:Drivers/STM32F1xx_HAL_Driver/Inc/stm32f1xx_ll_dma.h **** /** @defgroup DMA_LL_EF_Configuration Configuration
 454:Drivers/STM32F1xx_HAL_Driver/Inc/stm32f1xx_ll_dma.h ****   * @{
 455:Drivers/STM32F1xx_HAL_Driver/Inc/stm32f1xx_ll_dma.h ****   */
 456:Drivers/STM32F1xx_HAL_Driver/Inc/stm32f1xx_ll_dma.h **** /**
 457:Drivers/STM32F1xx_HAL_Driver/Inc/stm32f1xx_ll_dma.h ****   * @brief  Enable DMA channel.
 458:Drivers/STM32F1xx_HAL_Driver/Inc/stm32f1xx_ll_dma.h ****   * @rmtoll CCR          EN            LL_DMA_EnableChannel
 459:Drivers/STM32F1xx_HAL_Driver/Inc/stm32f1xx_ll_dma.h ****   * @param  DMAx DMAx Instance
 460:Drivers/STM32F1xx_HAL_Driver/Inc/stm32f1xx_ll_dma.h ****   * @param  Channel This parameter can be one of the following values:
 461:Drivers/STM32F1xx_HAL_Driver/Inc/stm32f1xx_ll_dma.h ****   *         @arg @ref LL_DMA_CHANNEL_1
 462:Drivers/STM32F1xx_HAL_Driver/Inc/stm32f1xx_ll_dma.h ****   *         @arg @ref LL_DMA_CHANNEL_2
 463:Drivers/STM32F1xx_HAL_Driver/Inc/stm32f1xx_ll_dma.h ****   *         @arg @ref LL_DMA_CHANNEL_3
 464:Drivers/STM32F1xx_HAL_Driver/Inc/stm32f1xx_ll_dma.h ****   *         @arg @ref LL_DMA_CHANNEL_4
 465:Drivers/STM32F1xx_HAL_Driver/Inc/stm32f1xx_ll_dma.h ****   *         @arg @ref LL_DMA_CHANNEL_5
 466:Drivers/STM32F1xx_HAL_Driver/Inc/stm32f1xx_ll_dma.h ****   *         @arg @ref LL_DMA_CHANNEL_6
 467:Drivers/STM32F1xx_HAL_Driver/Inc/stm32f1xx_ll_dma.h ****   *         @arg @ref LL_DMA_CHANNEL_7
 468:Drivers/STM32F1xx_HAL_Driver/Inc/stm32f1xx_ll_dma.h ****   * @retval None
 469:Drivers/STM32F1xx_HAL_Driver/Inc/stm32f1xx_ll_dma.h ****   */
 470:Drivers/STM32F1xx_HAL_Driver/Inc/stm32f1xx_ll_dma.h **** __STATIC_INLINE void LL_DMA_EnableChannel(DMA_TypeDef *DMAx, uint32_t Channel)
 471:Drivers/STM32F1xx_HAL_Driver/Inc/stm32f1xx_ll_dma.h **** {
 472:Drivers/STM32F1xx_HAL_Driver/Inc/stm32f1xx_ll_dma.h ****   SET_BIT(((DMA_Channel_TypeDef *)((uint32_t)((uint32_t)DMAx + CHANNEL_OFFSET_TAB[Channel - 1U])))-
 473:Drivers/STM32F1xx_HAL_Driver/Inc/stm32f1xx_ll_dma.h **** }
 474:Drivers/STM32F1xx_HAL_Driver/Inc/stm32f1xx_ll_dma.h **** 
 475:Drivers/STM32F1xx_HAL_Driver/Inc/stm32f1xx_ll_dma.h **** /**
 476:Drivers/STM32F1xx_HAL_Driver/Inc/stm32f1xx_ll_dma.h ****   * @brief  Disable DMA channel.
 477:Drivers/STM32F1xx_HAL_Driver/Inc/stm32f1xx_ll_dma.h ****   * @rmtoll CCR          EN            LL_DMA_DisableChannel
 478:Drivers/STM32F1xx_HAL_Driver/Inc/stm32f1xx_ll_dma.h ****   * @param  DMAx DMAx Instance
 479:Drivers/STM32F1xx_HAL_Driver/Inc/stm32f1xx_ll_dma.h ****   * @param  Channel This parameter can be one of the following values:
 480:Drivers/STM32F1xx_HAL_Driver/Inc/stm32f1xx_ll_dma.h ****   *         @arg @ref LL_DMA_CHANNEL_1
ARM GAS  /tmp/ccwUacce.s 			page 10


 481:Drivers/STM32F1xx_HAL_Driver/Inc/stm32f1xx_ll_dma.h ****   *         @arg @ref LL_DMA_CHANNEL_2
 482:Drivers/STM32F1xx_HAL_Driver/Inc/stm32f1xx_ll_dma.h ****   *         @arg @ref LL_DMA_CHANNEL_3
 483:Drivers/STM32F1xx_HAL_Driver/Inc/stm32f1xx_ll_dma.h ****   *         @arg @ref LL_DMA_CHANNEL_4
 484:Drivers/STM32F1xx_HAL_Driver/Inc/stm32f1xx_ll_dma.h ****   *         @arg @ref LL_DMA_CHANNEL_5
 485:Drivers/STM32F1xx_HAL_Driver/Inc/stm32f1xx_ll_dma.h ****   *         @arg @ref LL_DMA_CHANNEL_6
 486:Drivers/STM32F1xx_HAL_Driver/Inc/stm32f1xx_ll_dma.h ****   *         @arg @ref LL_DMA_CHANNEL_7
 487:Drivers/STM32F1xx_HAL_Driver/Inc/stm32f1xx_ll_dma.h ****   * @retval None
 488:Drivers/STM32F1xx_HAL_Driver/Inc/stm32f1xx_ll_dma.h ****   */
 489:Drivers/STM32F1xx_HAL_Driver/Inc/stm32f1xx_ll_dma.h **** __STATIC_INLINE void LL_DMA_DisableChannel(DMA_TypeDef *DMAx, uint32_t Channel)
 490:Drivers/STM32F1xx_HAL_Driver/Inc/stm32f1xx_ll_dma.h **** {
 491:Drivers/STM32F1xx_HAL_Driver/Inc/stm32f1xx_ll_dma.h ****   CLEAR_BIT(((DMA_Channel_TypeDef *)((uint32_t)((uint32_t)DMAx + CHANNEL_OFFSET_TAB[Channel - 1U]))
 492:Drivers/STM32F1xx_HAL_Driver/Inc/stm32f1xx_ll_dma.h **** }
 493:Drivers/STM32F1xx_HAL_Driver/Inc/stm32f1xx_ll_dma.h **** 
 494:Drivers/STM32F1xx_HAL_Driver/Inc/stm32f1xx_ll_dma.h **** /**
 495:Drivers/STM32F1xx_HAL_Driver/Inc/stm32f1xx_ll_dma.h ****   * @brief  Check if DMA channel is enabled or disabled.
 496:Drivers/STM32F1xx_HAL_Driver/Inc/stm32f1xx_ll_dma.h ****   * @rmtoll CCR          EN            LL_DMA_IsEnabledChannel
 497:Drivers/STM32F1xx_HAL_Driver/Inc/stm32f1xx_ll_dma.h ****   * @param  DMAx DMAx Instance
 498:Drivers/STM32F1xx_HAL_Driver/Inc/stm32f1xx_ll_dma.h ****   * @param  Channel This parameter can be one of the following values:
 499:Drivers/STM32F1xx_HAL_Driver/Inc/stm32f1xx_ll_dma.h ****   *         @arg @ref LL_DMA_CHANNEL_1
 500:Drivers/STM32F1xx_HAL_Driver/Inc/stm32f1xx_ll_dma.h ****   *         @arg @ref LL_DMA_CHANNEL_2
 501:Drivers/STM32F1xx_HAL_Driver/Inc/stm32f1xx_ll_dma.h ****   *         @arg @ref LL_DMA_CHANNEL_3
 502:Drivers/STM32F1xx_HAL_Driver/Inc/stm32f1xx_ll_dma.h ****   *         @arg @ref LL_DMA_CHANNEL_4
 503:Drivers/STM32F1xx_HAL_Driver/Inc/stm32f1xx_ll_dma.h ****   *         @arg @ref LL_DMA_CHANNEL_5
 504:Drivers/STM32F1xx_HAL_Driver/Inc/stm32f1xx_ll_dma.h ****   *         @arg @ref LL_DMA_CHANNEL_6
 505:Drivers/STM32F1xx_HAL_Driver/Inc/stm32f1xx_ll_dma.h ****   *         @arg @ref LL_DMA_CHANNEL_7
 506:Drivers/STM32F1xx_HAL_Driver/Inc/stm32f1xx_ll_dma.h ****   * @retval State of bit (1 or 0).
 507:Drivers/STM32F1xx_HAL_Driver/Inc/stm32f1xx_ll_dma.h ****   */
 508:Drivers/STM32F1xx_HAL_Driver/Inc/stm32f1xx_ll_dma.h **** __STATIC_INLINE uint32_t LL_DMA_IsEnabledChannel(DMA_TypeDef *DMAx, uint32_t Channel)
 509:Drivers/STM32F1xx_HAL_Driver/Inc/stm32f1xx_ll_dma.h **** {
 510:Drivers/STM32F1xx_HAL_Driver/Inc/stm32f1xx_ll_dma.h ****   return (READ_BIT(((DMA_Channel_TypeDef *)((uint32_t)((uint32_t)DMAx + CHANNEL_OFFSET_TAB[Channel 
 511:Drivers/STM32F1xx_HAL_Driver/Inc/stm32f1xx_ll_dma.h ****                    DMA_CCR_EN) == (DMA_CCR_EN));
 512:Drivers/STM32F1xx_HAL_Driver/Inc/stm32f1xx_ll_dma.h **** }
 513:Drivers/STM32F1xx_HAL_Driver/Inc/stm32f1xx_ll_dma.h **** 
 514:Drivers/STM32F1xx_HAL_Driver/Inc/stm32f1xx_ll_dma.h **** /**
 515:Drivers/STM32F1xx_HAL_Driver/Inc/stm32f1xx_ll_dma.h ****   * @brief  Configure all parameters link to DMA transfer.
 516:Drivers/STM32F1xx_HAL_Driver/Inc/stm32f1xx_ll_dma.h ****   * @rmtoll CCR          DIR           LL_DMA_ConfigTransfer\n
 517:Drivers/STM32F1xx_HAL_Driver/Inc/stm32f1xx_ll_dma.h ****   *         CCR          MEM2MEM       LL_DMA_ConfigTransfer\n
 518:Drivers/STM32F1xx_HAL_Driver/Inc/stm32f1xx_ll_dma.h ****   *         CCR          CIRC          LL_DMA_ConfigTransfer\n
 519:Drivers/STM32F1xx_HAL_Driver/Inc/stm32f1xx_ll_dma.h ****   *         CCR          PINC          LL_DMA_ConfigTransfer\n
 520:Drivers/STM32F1xx_HAL_Driver/Inc/stm32f1xx_ll_dma.h ****   *         CCR          MINC          LL_DMA_ConfigTransfer\n
 521:Drivers/STM32F1xx_HAL_Driver/Inc/stm32f1xx_ll_dma.h ****   *         CCR          PSIZE         LL_DMA_ConfigTransfer\n
 522:Drivers/STM32F1xx_HAL_Driver/Inc/stm32f1xx_ll_dma.h ****   *         CCR          MSIZE         LL_DMA_ConfigTransfer\n
 523:Drivers/STM32F1xx_HAL_Driver/Inc/stm32f1xx_ll_dma.h ****   *         CCR          PL            LL_DMA_ConfigTransfer
 524:Drivers/STM32F1xx_HAL_Driver/Inc/stm32f1xx_ll_dma.h ****   * @param  DMAx DMAx Instance
 525:Drivers/STM32F1xx_HAL_Driver/Inc/stm32f1xx_ll_dma.h ****   * @param  Channel This parameter can be one of the following values:
 526:Drivers/STM32F1xx_HAL_Driver/Inc/stm32f1xx_ll_dma.h ****   *         @arg @ref LL_DMA_CHANNEL_1
 527:Drivers/STM32F1xx_HAL_Driver/Inc/stm32f1xx_ll_dma.h ****   *         @arg @ref LL_DMA_CHANNEL_2
 528:Drivers/STM32F1xx_HAL_Driver/Inc/stm32f1xx_ll_dma.h ****   *         @arg @ref LL_DMA_CHANNEL_3
 529:Drivers/STM32F1xx_HAL_Driver/Inc/stm32f1xx_ll_dma.h ****   *         @arg @ref LL_DMA_CHANNEL_4
 530:Drivers/STM32F1xx_HAL_Driver/Inc/stm32f1xx_ll_dma.h ****   *         @arg @ref LL_DMA_CHANNEL_5
 531:Drivers/STM32F1xx_HAL_Driver/Inc/stm32f1xx_ll_dma.h ****   *         @arg @ref LL_DMA_CHANNEL_6
 532:Drivers/STM32F1xx_HAL_Driver/Inc/stm32f1xx_ll_dma.h ****   *         @arg @ref LL_DMA_CHANNEL_7
 533:Drivers/STM32F1xx_HAL_Driver/Inc/stm32f1xx_ll_dma.h ****   * @param  Configuration This parameter must be a combination of all the following values:
 534:Drivers/STM32F1xx_HAL_Driver/Inc/stm32f1xx_ll_dma.h ****   *         @arg @ref LL_DMA_DIRECTION_PERIPH_TO_MEMORY or @ref LL_DMA_DIRECTION_MEMORY_TO_PERIPH o
 535:Drivers/STM32F1xx_HAL_Driver/Inc/stm32f1xx_ll_dma.h ****   *         @arg @ref LL_DMA_MODE_NORMAL or @ref LL_DMA_MODE_CIRCULAR
 536:Drivers/STM32F1xx_HAL_Driver/Inc/stm32f1xx_ll_dma.h ****   *         @arg @ref LL_DMA_PERIPH_INCREMENT or @ref LL_DMA_PERIPH_NOINCREMENT
 537:Drivers/STM32F1xx_HAL_Driver/Inc/stm32f1xx_ll_dma.h ****   *         @arg @ref LL_DMA_MEMORY_INCREMENT or @ref LL_DMA_MEMORY_NOINCREMENT
ARM GAS  /tmp/ccwUacce.s 			page 11


 538:Drivers/STM32F1xx_HAL_Driver/Inc/stm32f1xx_ll_dma.h ****   *         @arg @ref LL_DMA_PDATAALIGN_BYTE or @ref LL_DMA_PDATAALIGN_HALFWORD or @ref LL_DMA_PDAT
 539:Drivers/STM32F1xx_HAL_Driver/Inc/stm32f1xx_ll_dma.h ****   *         @arg @ref LL_DMA_MDATAALIGN_BYTE or @ref LL_DMA_MDATAALIGN_HALFWORD or @ref LL_DMA_MDAT
 540:Drivers/STM32F1xx_HAL_Driver/Inc/stm32f1xx_ll_dma.h ****   *         @arg @ref LL_DMA_PRIORITY_LOW or @ref LL_DMA_PRIORITY_MEDIUM or @ref LL_DMA_PRIORITY_HI
 541:Drivers/STM32F1xx_HAL_Driver/Inc/stm32f1xx_ll_dma.h ****   * @retval None
 542:Drivers/STM32F1xx_HAL_Driver/Inc/stm32f1xx_ll_dma.h ****   */
 543:Drivers/STM32F1xx_HAL_Driver/Inc/stm32f1xx_ll_dma.h **** __STATIC_INLINE void LL_DMA_ConfigTransfer(DMA_TypeDef *DMAx, uint32_t Channel, uint32_t Configurat
 544:Drivers/STM32F1xx_HAL_Driver/Inc/stm32f1xx_ll_dma.h **** {
  37              		.loc 1 544 0
  38              		.cfi_startproc
  39              		@ args = 0, pretend = 0, frame = 16
  40              		@ frame_needed = 1, uses_anonymous_args = 0
  41              		@ link register save eliminated.
  42 0000 80B4     		push	{r7}
  43              	.LCFI0:
  44              		.cfi_def_cfa_offset 4
  45              		.cfi_offset 7, -4
  46 0002 85B0     		sub	sp, sp, #20
  47              	.LCFI1:
  48              		.cfi_def_cfa_offset 24
  49 0004 00AF     		add	r7, sp, #0
  50              	.LCFI2:
  51              		.cfi_def_cfa_register 7
  52 0006 F860     		str	r0, [r7, #12]
  53 0008 B960     		str	r1, [r7, #8]
  54 000a 7A60     		str	r2, [r7, #4]
 545:Drivers/STM32F1xx_HAL_Driver/Inc/stm32f1xx_ll_dma.h ****   MODIFY_REG(((DMA_Channel_TypeDef *)((uint32_t)((uint32_t)DMAx + CHANNEL_OFFSET_TAB[Channel - 1U])
  55              		.loc 1 545 0
  56 000c BB68     		ldr	r3, [r7, #8]
  57 000e 013B     		subs	r3, r3, #1
  58 0010 0C4A     		ldr	r2, .L2
  59 0012 D35C     		ldrb	r3, [r2, r3]	@ zero_extendqisi2
  60 0014 1A46     		mov	r2, r3
  61 0016 FB68     		ldr	r3, [r7, #12]
  62 0018 1344     		add	r3, r3, r2
  63 001a 1B68     		ldr	r3, [r3]
  64 001c 23F4FF43 		bic	r3, r3, #32640
  65 0020 23F07003 		bic	r3, r3, #112
  66 0024 BA68     		ldr	r2, [r7, #8]
  67 0026 013A     		subs	r2, r2, #1
  68 0028 0649     		ldr	r1, .L2
  69 002a 8A5C     		ldrb	r2, [r1, r2]	@ zero_extendqisi2
  70 002c 1146     		mov	r1, r2
  71 002e FA68     		ldr	r2, [r7, #12]
  72 0030 0A44     		add	r2, r2, r1
  73 0032 1146     		mov	r1, r2
  74 0034 7A68     		ldr	r2, [r7, #4]
  75 0036 1343     		orrs	r3, r3, r2
  76 0038 0B60     		str	r3, [r1]
 546:Drivers/STM32F1xx_HAL_Driver/Inc/stm32f1xx_ll_dma.h ****              DMA_CCR_DIR | DMA_CCR_MEM2MEM | DMA_CCR_CIRC | DMA_CCR_PINC | DMA_CCR_MINC | DMA_CCR_P
 547:Drivers/STM32F1xx_HAL_Driver/Inc/stm32f1xx_ll_dma.h ****              Configuration);
 548:Drivers/STM32F1xx_HAL_Driver/Inc/stm32f1xx_ll_dma.h **** }
  77              		.loc 1 548 0
  78 003a 00BF     		nop
  79 003c 1437     		adds	r7, r7, #20
  80              	.LCFI3:
  81              		.cfi_def_cfa_offset 4
  82 003e BD46     		mov	sp, r7
ARM GAS  /tmp/ccwUacce.s 			page 12


  83              	.LCFI4:
  84              		.cfi_def_cfa_register 13
  85              		@ sp needed
  86 0040 80BC     		pop	{r7}
  87              	.LCFI5:
  88              		.cfi_restore 7
  89              		.cfi_def_cfa_offset 0
  90 0042 7047     		bx	lr
  91              	.L3:
  92              		.align	2
  93              	.L2:
  94 0044 00000000 		.word	CHANNEL_OFFSET_TAB
  95              		.cfi_endproc
  96              	.LFE66:
  98              		.section	.text.LL_DMA_SetDataLength,"ax",%progbits
  99              		.align	1
 100              		.syntax unified
 101              		.thumb
 102              		.thumb_func
 103              		.fpu softvfp
 105              	LL_DMA_SetDataLength:
 106              	.LFB81:
 549:Drivers/STM32F1xx_HAL_Driver/Inc/stm32f1xx_ll_dma.h **** 
 550:Drivers/STM32F1xx_HAL_Driver/Inc/stm32f1xx_ll_dma.h **** /**
 551:Drivers/STM32F1xx_HAL_Driver/Inc/stm32f1xx_ll_dma.h ****   * @brief  Set Data transfer direction (read from peripheral or from memory).
 552:Drivers/STM32F1xx_HAL_Driver/Inc/stm32f1xx_ll_dma.h ****   * @rmtoll CCR          DIR           LL_DMA_SetDataTransferDirection\n
 553:Drivers/STM32F1xx_HAL_Driver/Inc/stm32f1xx_ll_dma.h ****   *         CCR          MEM2MEM       LL_DMA_SetDataTransferDirection
 554:Drivers/STM32F1xx_HAL_Driver/Inc/stm32f1xx_ll_dma.h ****   * @param  DMAx DMAx Instance
 555:Drivers/STM32F1xx_HAL_Driver/Inc/stm32f1xx_ll_dma.h ****   * @param  Channel This parameter can be one of the following values:
 556:Drivers/STM32F1xx_HAL_Driver/Inc/stm32f1xx_ll_dma.h ****   *         @arg @ref LL_DMA_CHANNEL_1
 557:Drivers/STM32F1xx_HAL_Driver/Inc/stm32f1xx_ll_dma.h ****   *         @arg @ref LL_DMA_CHANNEL_2
 558:Drivers/STM32F1xx_HAL_Driver/Inc/stm32f1xx_ll_dma.h ****   *         @arg @ref LL_DMA_CHANNEL_3
 559:Drivers/STM32F1xx_HAL_Driver/Inc/stm32f1xx_ll_dma.h ****   *         @arg @ref LL_DMA_CHANNEL_4
 560:Drivers/STM32F1xx_HAL_Driver/Inc/stm32f1xx_ll_dma.h ****   *         @arg @ref LL_DMA_CHANNEL_5
 561:Drivers/STM32F1xx_HAL_Driver/Inc/stm32f1xx_ll_dma.h ****   *         @arg @ref LL_DMA_CHANNEL_6
 562:Drivers/STM32F1xx_HAL_Driver/Inc/stm32f1xx_ll_dma.h ****   *         @arg @ref LL_DMA_CHANNEL_7
 563:Drivers/STM32F1xx_HAL_Driver/Inc/stm32f1xx_ll_dma.h ****   * @param  Direction This parameter can be one of the following values:
 564:Drivers/STM32F1xx_HAL_Driver/Inc/stm32f1xx_ll_dma.h ****   *         @arg @ref LL_DMA_DIRECTION_PERIPH_TO_MEMORY
 565:Drivers/STM32F1xx_HAL_Driver/Inc/stm32f1xx_ll_dma.h ****   *         @arg @ref LL_DMA_DIRECTION_MEMORY_TO_PERIPH
 566:Drivers/STM32F1xx_HAL_Driver/Inc/stm32f1xx_ll_dma.h ****   *         @arg @ref LL_DMA_DIRECTION_MEMORY_TO_MEMORY
 567:Drivers/STM32F1xx_HAL_Driver/Inc/stm32f1xx_ll_dma.h ****   * @retval None
 568:Drivers/STM32F1xx_HAL_Driver/Inc/stm32f1xx_ll_dma.h ****   */
 569:Drivers/STM32F1xx_HAL_Driver/Inc/stm32f1xx_ll_dma.h **** __STATIC_INLINE void LL_DMA_SetDataTransferDirection(DMA_TypeDef *DMAx, uint32_t Channel, uint32_t 
 570:Drivers/STM32F1xx_HAL_Driver/Inc/stm32f1xx_ll_dma.h **** {
 571:Drivers/STM32F1xx_HAL_Driver/Inc/stm32f1xx_ll_dma.h ****   MODIFY_REG(((DMA_Channel_TypeDef *)((uint32_t)((uint32_t)DMAx + CHANNEL_OFFSET_TAB[Channel - 1U])
 572:Drivers/STM32F1xx_HAL_Driver/Inc/stm32f1xx_ll_dma.h ****              DMA_CCR_DIR | DMA_CCR_MEM2MEM, Direction);
 573:Drivers/STM32F1xx_HAL_Driver/Inc/stm32f1xx_ll_dma.h **** }
 574:Drivers/STM32F1xx_HAL_Driver/Inc/stm32f1xx_ll_dma.h **** 
 575:Drivers/STM32F1xx_HAL_Driver/Inc/stm32f1xx_ll_dma.h **** /**
 576:Drivers/STM32F1xx_HAL_Driver/Inc/stm32f1xx_ll_dma.h ****   * @brief  Get Data transfer direction (read from peripheral or from memory).
 577:Drivers/STM32F1xx_HAL_Driver/Inc/stm32f1xx_ll_dma.h ****   * @rmtoll CCR          DIR           LL_DMA_GetDataTransferDirection\n
 578:Drivers/STM32F1xx_HAL_Driver/Inc/stm32f1xx_ll_dma.h ****   *         CCR          MEM2MEM       LL_DMA_GetDataTransferDirection
 579:Drivers/STM32F1xx_HAL_Driver/Inc/stm32f1xx_ll_dma.h ****   * @param  DMAx DMAx Instance
 580:Drivers/STM32F1xx_HAL_Driver/Inc/stm32f1xx_ll_dma.h ****   * @param  Channel This parameter can be one of the following values:
 581:Drivers/STM32F1xx_HAL_Driver/Inc/stm32f1xx_ll_dma.h ****   *         @arg @ref LL_DMA_CHANNEL_1
 582:Drivers/STM32F1xx_HAL_Driver/Inc/stm32f1xx_ll_dma.h ****   *         @arg @ref LL_DMA_CHANNEL_2
 583:Drivers/STM32F1xx_HAL_Driver/Inc/stm32f1xx_ll_dma.h ****   *         @arg @ref LL_DMA_CHANNEL_3
ARM GAS  /tmp/ccwUacce.s 			page 13


 584:Drivers/STM32F1xx_HAL_Driver/Inc/stm32f1xx_ll_dma.h ****   *         @arg @ref LL_DMA_CHANNEL_4
 585:Drivers/STM32F1xx_HAL_Driver/Inc/stm32f1xx_ll_dma.h ****   *         @arg @ref LL_DMA_CHANNEL_5
 586:Drivers/STM32F1xx_HAL_Driver/Inc/stm32f1xx_ll_dma.h ****   *         @arg @ref LL_DMA_CHANNEL_6
 587:Drivers/STM32F1xx_HAL_Driver/Inc/stm32f1xx_ll_dma.h ****   *         @arg @ref LL_DMA_CHANNEL_7
 588:Drivers/STM32F1xx_HAL_Driver/Inc/stm32f1xx_ll_dma.h ****   * @retval Returned value can be one of the following values:
 589:Drivers/STM32F1xx_HAL_Driver/Inc/stm32f1xx_ll_dma.h ****   *         @arg @ref LL_DMA_DIRECTION_PERIPH_TO_MEMORY
 590:Drivers/STM32F1xx_HAL_Driver/Inc/stm32f1xx_ll_dma.h ****   *         @arg @ref LL_DMA_DIRECTION_MEMORY_TO_PERIPH
 591:Drivers/STM32F1xx_HAL_Driver/Inc/stm32f1xx_ll_dma.h ****   *         @arg @ref LL_DMA_DIRECTION_MEMORY_TO_MEMORY
 592:Drivers/STM32F1xx_HAL_Driver/Inc/stm32f1xx_ll_dma.h ****   */
 593:Drivers/STM32F1xx_HAL_Driver/Inc/stm32f1xx_ll_dma.h **** __STATIC_INLINE uint32_t LL_DMA_GetDataTransferDirection(DMA_TypeDef *DMAx, uint32_t Channel)
 594:Drivers/STM32F1xx_HAL_Driver/Inc/stm32f1xx_ll_dma.h **** {
 595:Drivers/STM32F1xx_HAL_Driver/Inc/stm32f1xx_ll_dma.h ****   return (READ_BIT(((DMA_Channel_TypeDef *)((uint32_t)((uint32_t)DMAx + CHANNEL_OFFSET_TAB[Channel 
 596:Drivers/STM32F1xx_HAL_Driver/Inc/stm32f1xx_ll_dma.h ****                    DMA_CCR_DIR | DMA_CCR_MEM2MEM));
 597:Drivers/STM32F1xx_HAL_Driver/Inc/stm32f1xx_ll_dma.h **** }
 598:Drivers/STM32F1xx_HAL_Driver/Inc/stm32f1xx_ll_dma.h **** 
 599:Drivers/STM32F1xx_HAL_Driver/Inc/stm32f1xx_ll_dma.h **** /**
 600:Drivers/STM32F1xx_HAL_Driver/Inc/stm32f1xx_ll_dma.h ****   * @brief  Set DMA mode circular or normal.
 601:Drivers/STM32F1xx_HAL_Driver/Inc/stm32f1xx_ll_dma.h ****   * @note The circular buffer mode cannot be used if the memory-to-memory
 602:Drivers/STM32F1xx_HAL_Driver/Inc/stm32f1xx_ll_dma.h ****   * data transfer is configured on the selected Channel.
 603:Drivers/STM32F1xx_HAL_Driver/Inc/stm32f1xx_ll_dma.h ****   * @rmtoll CCR          CIRC          LL_DMA_SetMode
 604:Drivers/STM32F1xx_HAL_Driver/Inc/stm32f1xx_ll_dma.h ****   * @param  DMAx DMAx Instance
 605:Drivers/STM32F1xx_HAL_Driver/Inc/stm32f1xx_ll_dma.h ****   * @param  Channel This parameter can be one of the following values:
 606:Drivers/STM32F1xx_HAL_Driver/Inc/stm32f1xx_ll_dma.h ****   *         @arg @ref LL_DMA_CHANNEL_1
 607:Drivers/STM32F1xx_HAL_Driver/Inc/stm32f1xx_ll_dma.h ****   *         @arg @ref LL_DMA_CHANNEL_2
 608:Drivers/STM32F1xx_HAL_Driver/Inc/stm32f1xx_ll_dma.h ****   *         @arg @ref LL_DMA_CHANNEL_3
 609:Drivers/STM32F1xx_HAL_Driver/Inc/stm32f1xx_ll_dma.h ****   *         @arg @ref LL_DMA_CHANNEL_4
 610:Drivers/STM32F1xx_HAL_Driver/Inc/stm32f1xx_ll_dma.h ****   *         @arg @ref LL_DMA_CHANNEL_5
 611:Drivers/STM32F1xx_HAL_Driver/Inc/stm32f1xx_ll_dma.h ****   *         @arg @ref LL_DMA_CHANNEL_6
 612:Drivers/STM32F1xx_HAL_Driver/Inc/stm32f1xx_ll_dma.h ****   *         @arg @ref LL_DMA_CHANNEL_7
 613:Drivers/STM32F1xx_HAL_Driver/Inc/stm32f1xx_ll_dma.h ****   * @param  Mode This parameter can be one of the following values:
 614:Drivers/STM32F1xx_HAL_Driver/Inc/stm32f1xx_ll_dma.h ****   *         @arg @ref LL_DMA_MODE_NORMAL
 615:Drivers/STM32F1xx_HAL_Driver/Inc/stm32f1xx_ll_dma.h ****   *         @arg @ref LL_DMA_MODE_CIRCULAR
 616:Drivers/STM32F1xx_HAL_Driver/Inc/stm32f1xx_ll_dma.h ****   * @retval None
 617:Drivers/STM32F1xx_HAL_Driver/Inc/stm32f1xx_ll_dma.h ****   */
 618:Drivers/STM32F1xx_HAL_Driver/Inc/stm32f1xx_ll_dma.h **** __STATIC_INLINE void LL_DMA_SetMode(DMA_TypeDef *DMAx, uint32_t Channel, uint32_t Mode)
 619:Drivers/STM32F1xx_HAL_Driver/Inc/stm32f1xx_ll_dma.h **** {
 620:Drivers/STM32F1xx_HAL_Driver/Inc/stm32f1xx_ll_dma.h ****   MODIFY_REG(((DMA_Channel_TypeDef *)((uint32_t)((uint32_t)DMAx + CHANNEL_OFFSET_TAB[Channel - 1U])
 621:Drivers/STM32F1xx_HAL_Driver/Inc/stm32f1xx_ll_dma.h ****              Mode);
 622:Drivers/STM32F1xx_HAL_Driver/Inc/stm32f1xx_ll_dma.h **** }
 623:Drivers/STM32F1xx_HAL_Driver/Inc/stm32f1xx_ll_dma.h **** 
 624:Drivers/STM32F1xx_HAL_Driver/Inc/stm32f1xx_ll_dma.h **** /**
 625:Drivers/STM32F1xx_HAL_Driver/Inc/stm32f1xx_ll_dma.h ****   * @brief  Get DMA mode circular or normal.
 626:Drivers/STM32F1xx_HAL_Driver/Inc/stm32f1xx_ll_dma.h ****   * @rmtoll CCR          CIRC          LL_DMA_GetMode
 627:Drivers/STM32F1xx_HAL_Driver/Inc/stm32f1xx_ll_dma.h ****   * @param  DMAx DMAx Instance
 628:Drivers/STM32F1xx_HAL_Driver/Inc/stm32f1xx_ll_dma.h ****   * @param  Channel This parameter can be one of the following values:
 629:Drivers/STM32F1xx_HAL_Driver/Inc/stm32f1xx_ll_dma.h ****   *         @arg @ref LL_DMA_CHANNEL_1
 630:Drivers/STM32F1xx_HAL_Driver/Inc/stm32f1xx_ll_dma.h ****   *         @arg @ref LL_DMA_CHANNEL_2
 631:Drivers/STM32F1xx_HAL_Driver/Inc/stm32f1xx_ll_dma.h ****   *         @arg @ref LL_DMA_CHANNEL_3
 632:Drivers/STM32F1xx_HAL_Driver/Inc/stm32f1xx_ll_dma.h ****   *         @arg @ref LL_DMA_CHANNEL_4
 633:Drivers/STM32F1xx_HAL_Driver/Inc/stm32f1xx_ll_dma.h ****   *         @arg @ref LL_DMA_CHANNEL_5
 634:Drivers/STM32F1xx_HAL_Driver/Inc/stm32f1xx_ll_dma.h ****   *         @arg @ref LL_DMA_CHANNEL_6
 635:Drivers/STM32F1xx_HAL_Driver/Inc/stm32f1xx_ll_dma.h ****   *         @arg @ref LL_DMA_CHANNEL_7
 636:Drivers/STM32F1xx_HAL_Driver/Inc/stm32f1xx_ll_dma.h ****   * @retval Returned value can be one of the following values:
 637:Drivers/STM32F1xx_HAL_Driver/Inc/stm32f1xx_ll_dma.h ****   *         @arg @ref LL_DMA_MODE_NORMAL
 638:Drivers/STM32F1xx_HAL_Driver/Inc/stm32f1xx_ll_dma.h ****   *         @arg @ref LL_DMA_MODE_CIRCULAR
 639:Drivers/STM32F1xx_HAL_Driver/Inc/stm32f1xx_ll_dma.h ****   */
 640:Drivers/STM32F1xx_HAL_Driver/Inc/stm32f1xx_ll_dma.h **** __STATIC_INLINE uint32_t LL_DMA_GetMode(DMA_TypeDef *DMAx, uint32_t Channel)
ARM GAS  /tmp/ccwUacce.s 			page 14


 641:Drivers/STM32F1xx_HAL_Driver/Inc/stm32f1xx_ll_dma.h **** {
 642:Drivers/STM32F1xx_HAL_Driver/Inc/stm32f1xx_ll_dma.h ****   return (READ_BIT(((DMA_Channel_TypeDef *)((uint32_t)((uint32_t)DMAx + CHANNEL_OFFSET_TAB[Channel 
 643:Drivers/STM32F1xx_HAL_Driver/Inc/stm32f1xx_ll_dma.h ****                    DMA_CCR_CIRC));
 644:Drivers/STM32F1xx_HAL_Driver/Inc/stm32f1xx_ll_dma.h **** }
 645:Drivers/STM32F1xx_HAL_Driver/Inc/stm32f1xx_ll_dma.h **** 
 646:Drivers/STM32F1xx_HAL_Driver/Inc/stm32f1xx_ll_dma.h **** /**
 647:Drivers/STM32F1xx_HAL_Driver/Inc/stm32f1xx_ll_dma.h ****   * @brief  Set Peripheral increment mode.
 648:Drivers/STM32F1xx_HAL_Driver/Inc/stm32f1xx_ll_dma.h ****   * @rmtoll CCR          PINC          LL_DMA_SetPeriphIncMode
 649:Drivers/STM32F1xx_HAL_Driver/Inc/stm32f1xx_ll_dma.h ****   * @param  DMAx DMAx Instance
 650:Drivers/STM32F1xx_HAL_Driver/Inc/stm32f1xx_ll_dma.h ****   * @param  Channel This parameter can be one of the following values:
 651:Drivers/STM32F1xx_HAL_Driver/Inc/stm32f1xx_ll_dma.h ****   *         @arg @ref LL_DMA_CHANNEL_1
 652:Drivers/STM32F1xx_HAL_Driver/Inc/stm32f1xx_ll_dma.h ****   *         @arg @ref LL_DMA_CHANNEL_2
 653:Drivers/STM32F1xx_HAL_Driver/Inc/stm32f1xx_ll_dma.h ****   *         @arg @ref LL_DMA_CHANNEL_3
 654:Drivers/STM32F1xx_HAL_Driver/Inc/stm32f1xx_ll_dma.h ****   *         @arg @ref LL_DMA_CHANNEL_4
 655:Drivers/STM32F1xx_HAL_Driver/Inc/stm32f1xx_ll_dma.h ****   *         @arg @ref LL_DMA_CHANNEL_5
 656:Drivers/STM32F1xx_HAL_Driver/Inc/stm32f1xx_ll_dma.h ****   *         @arg @ref LL_DMA_CHANNEL_6
 657:Drivers/STM32F1xx_HAL_Driver/Inc/stm32f1xx_ll_dma.h ****   *         @arg @ref LL_DMA_CHANNEL_7
 658:Drivers/STM32F1xx_HAL_Driver/Inc/stm32f1xx_ll_dma.h ****   * @param  PeriphOrM2MSrcIncMode This parameter can be one of the following values:
 659:Drivers/STM32F1xx_HAL_Driver/Inc/stm32f1xx_ll_dma.h ****   *         @arg @ref LL_DMA_PERIPH_INCREMENT
 660:Drivers/STM32F1xx_HAL_Driver/Inc/stm32f1xx_ll_dma.h ****   *         @arg @ref LL_DMA_PERIPH_NOINCREMENT
 661:Drivers/STM32F1xx_HAL_Driver/Inc/stm32f1xx_ll_dma.h ****   * @retval None
 662:Drivers/STM32F1xx_HAL_Driver/Inc/stm32f1xx_ll_dma.h ****   */
 663:Drivers/STM32F1xx_HAL_Driver/Inc/stm32f1xx_ll_dma.h **** __STATIC_INLINE void LL_DMA_SetPeriphIncMode(DMA_TypeDef *DMAx, uint32_t Channel, uint32_t PeriphOr
 664:Drivers/STM32F1xx_HAL_Driver/Inc/stm32f1xx_ll_dma.h **** {
 665:Drivers/STM32F1xx_HAL_Driver/Inc/stm32f1xx_ll_dma.h ****   MODIFY_REG(((DMA_Channel_TypeDef *)((uint32_t)((uint32_t)DMAx + CHANNEL_OFFSET_TAB[Channel - 1U])
 666:Drivers/STM32F1xx_HAL_Driver/Inc/stm32f1xx_ll_dma.h ****              PeriphOrM2MSrcIncMode);
 667:Drivers/STM32F1xx_HAL_Driver/Inc/stm32f1xx_ll_dma.h **** }
 668:Drivers/STM32F1xx_HAL_Driver/Inc/stm32f1xx_ll_dma.h **** 
 669:Drivers/STM32F1xx_HAL_Driver/Inc/stm32f1xx_ll_dma.h **** /**
 670:Drivers/STM32F1xx_HAL_Driver/Inc/stm32f1xx_ll_dma.h ****   * @brief  Get Peripheral increment mode.
 671:Drivers/STM32F1xx_HAL_Driver/Inc/stm32f1xx_ll_dma.h ****   * @rmtoll CCR          PINC          LL_DMA_GetPeriphIncMode
 672:Drivers/STM32F1xx_HAL_Driver/Inc/stm32f1xx_ll_dma.h ****   * @param  DMAx DMAx Instance
 673:Drivers/STM32F1xx_HAL_Driver/Inc/stm32f1xx_ll_dma.h ****   * @param  Channel This parameter can be one of the following values:
 674:Drivers/STM32F1xx_HAL_Driver/Inc/stm32f1xx_ll_dma.h ****   *         @arg @ref LL_DMA_CHANNEL_1
 675:Drivers/STM32F1xx_HAL_Driver/Inc/stm32f1xx_ll_dma.h ****   *         @arg @ref LL_DMA_CHANNEL_2
 676:Drivers/STM32F1xx_HAL_Driver/Inc/stm32f1xx_ll_dma.h ****   *         @arg @ref LL_DMA_CHANNEL_3
 677:Drivers/STM32F1xx_HAL_Driver/Inc/stm32f1xx_ll_dma.h ****   *         @arg @ref LL_DMA_CHANNEL_4
 678:Drivers/STM32F1xx_HAL_Driver/Inc/stm32f1xx_ll_dma.h ****   *         @arg @ref LL_DMA_CHANNEL_5
 679:Drivers/STM32F1xx_HAL_Driver/Inc/stm32f1xx_ll_dma.h ****   *         @arg @ref LL_DMA_CHANNEL_6
 680:Drivers/STM32F1xx_HAL_Driver/Inc/stm32f1xx_ll_dma.h ****   *         @arg @ref LL_DMA_CHANNEL_7
 681:Drivers/STM32F1xx_HAL_Driver/Inc/stm32f1xx_ll_dma.h ****   * @retval Returned value can be one of the following values:
 682:Drivers/STM32F1xx_HAL_Driver/Inc/stm32f1xx_ll_dma.h ****   *         @arg @ref LL_DMA_PERIPH_INCREMENT
 683:Drivers/STM32F1xx_HAL_Driver/Inc/stm32f1xx_ll_dma.h ****   *         @arg @ref LL_DMA_PERIPH_NOINCREMENT
 684:Drivers/STM32F1xx_HAL_Driver/Inc/stm32f1xx_ll_dma.h ****   */
 685:Drivers/STM32F1xx_HAL_Driver/Inc/stm32f1xx_ll_dma.h **** __STATIC_INLINE uint32_t LL_DMA_GetPeriphIncMode(DMA_TypeDef *DMAx, uint32_t Channel)
 686:Drivers/STM32F1xx_HAL_Driver/Inc/stm32f1xx_ll_dma.h **** {
 687:Drivers/STM32F1xx_HAL_Driver/Inc/stm32f1xx_ll_dma.h ****   return (READ_BIT(((DMA_Channel_TypeDef *)((uint32_t)((uint32_t)DMAx + CHANNEL_OFFSET_TAB[Channel 
 688:Drivers/STM32F1xx_HAL_Driver/Inc/stm32f1xx_ll_dma.h ****                    DMA_CCR_PINC));
 689:Drivers/STM32F1xx_HAL_Driver/Inc/stm32f1xx_ll_dma.h **** }
 690:Drivers/STM32F1xx_HAL_Driver/Inc/stm32f1xx_ll_dma.h **** 
 691:Drivers/STM32F1xx_HAL_Driver/Inc/stm32f1xx_ll_dma.h **** /**
 692:Drivers/STM32F1xx_HAL_Driver/Inc/stm32f1xx_ll_dma.h ****   * @brief  Set Memory increment mode.
 693:Drivers/STM32F1xx_HAL_Driver/Inc/stm32f1xx_ll_dma.h ****   * @rmtoll CCR          MINC          LL_DMA_SetMemoryIncMode
 694:Drivers/STM32F1xx_HAL_Driver/Inc/stm32f1xx_ll_dma.h ****   * @param  DMAx DMAx Instance
 695:Drivers/STM32F1xx_HAL_Driver/Inc/stm32f1xx_ll_dma.h ****   * @param  Channel This parameter can be one of the following values:
 696:Drivers/STM32F1xx_HAL_Driver/Inc/stm32f1xx_ll_dma.h ****   *         @arg @ref LL_DMA_CHANNEL_1
 697:Drivers/STM32F1xx_HAL_Driver/Inc/stm32f1xx_ll_dma.h ****   *         @arg @ref LL_DMA_CHANNEL_2
ARM GAS  /tmp/ccwUacce.s 			page 15


 698:Drivers/STM32F1xx_HAL_Driver/Inc/stm32f1xx_ll_dma.h ****   *         @arg @ref LL_DMA_CHANNEL_3
 699:Drivers/STM32F1xx_HAL_Driver/Inc/stm32f1xx_ll_dma.h ****   *         @arg @ref LL_DMA_CHANNEL_4
 700:Drivers/STM32F1xx_HAL_Driver/Inc/stm32f1xx_ll_dma.h ****   *         @arg @ref LL_DMA_CHANNEL_5
 701:Drivers/STM32F1xx_HAL_Driver/Inc/stm32f1xx_ll_dma.h ****   *         @arg @ref LL_DMA_CHANNEL_6
 702:Drivers/STM32F1xx_HAL_Driver/Inc/stm32f1xx_ll_dma.h ****   *         @arg @ref LL_DMA_CHANNEL_7
 703:Drivers/STM32F1xx_HAL_Driver/Inc/stm32f1xx_ll_dma.h ****   * @param  MemoryOrM2MDstIncMode This parameter can be one of the following values:
 704:Drivers/STM32F1xx_HAL_Driver/Inc/stm32f1xx_ll_dma.h ****   *         @arg @ref LL_DMA_MEMORY_INCREMENT
 705:Drivers/STM32F1xx_HAL_Driver/Inc/stm32f1xx_ll_dma.h ****   *         @arg @ref LL_DMA_MEMORY_NOINCREMENT
 706:Drivers/STM32F1xx_HAL_Driver/Inc/stm32f1xx_ll_dma.h ****   * @retval None
 707:Drivers/STM32F1xx_HAL_Driver/Inc/stm32f1xx_ll_dma.h ****   */
 708:Drivers/STM32F1xx_HAL_Driver/Inc/stm32f1xx_ll_dma.h **** __STATIC_INLINE void LL_DMA_SetMemoryIncMode(DMA_TypeDef *DMAx, uint32_t Channel, uint32_t MemoryOr
 709:Drivers/STM32F1xx_HAL_Driver/Inc/stm32f1xx_ll_dma.h **** {
 710:Drivers/STM32F1xx_HAL_Driver/Inc/stm32f1xx_ll_dma.h ****   MODIFY_REG(((DMA_Channel_TypeDef *)((uint32_t)((uint32_t)DMAx + CHANNEL_OFFSET_TAB[Channel - 1U])
 711:Drivers/STM32F1xx_HAL_Driver/Inc/stm32f1xx_ll_dma.h ****              MemoryOrM2MDstIncMode);
 712:Drivers/STM32F1xx_HAL_Driver/Inc/stm32f1xx_ll_dma.h **** }
 713:Drivers/STM32F1xx_HAL_Driver/Inc/stm32f1xx_ll_dma.h **** 
 714:Drivers/STM32F1xx_HAL_Driver/Inc/stm32f1xx_ll_dma.h **** /**
 715:Drivers/STM32F1xx_HAL_Driver/Inc/stm32f1xx_ll_dma.h ****   * @brief  Get Memory increment mode.
 716:Drivers/STM32F1xx_HAL_Driver/Inc/stm32f1xx_ll_dma.h ****   * @rmtoll CCR          MINC          LL_DMA_GetMemoryIncMode
 717:Drivers/STM32F1xx_HAL_Driver/Inc/stm32f1xx_ll_dma.h ****   * @param  DMAx DMAx Instance
 718:Drivers/STM32F1xx_HAL_Driver/Inc/stm32f1xx_ll_dma.h ****   * @param  Channel This parameter can be one of the following values:
 719:Drivers/STM32F1xx_HAL_Driver/Inc/stm32f1xx_ll_dma.h ****   *         @arg @ref LL_DMA_CHANNEL_1
 720:Drivers/STM32F1xx_HAL_Driver/Inc/stm32f1xx_ll_dma.h ****   *         @arg @ref LL_DMA_CHANNEL_2
 721:Drivers/STM32F1xx_HAL_Driver/Inc/stm32f1xx_ll_dma.h ****   *         @arg @ref LL_DMA_CHANNEL_3
 722:Drivers/STM32F1xx_HAL_Driver/Inc/stm32f1xx_ll_dma.h ****   *         @arg @ref LL_DMA_CHANNEL_4
 723:Drivers/STM32F1xx_HAL_Driver/Inc/stm32f1xx_ll_dma.h ****   *         @arg @ref LL_DMA_CHANNEL_5
 724:Drivers/STM32F1xx_HAL_Driver/Inc/stm32f1xx_ll_dma.h ****   *         @arg @ref LL_DMA_CHANNEL_6
 725:Drivers/STM32F1xx_HAL_Driver/Inc/stm32f1xx_ll_dma.h ****   *         @arg @ref LL_DMA_CHANNEL_7
 726:Drivers/STM32F1xx_HAL_Driver/Inc/stm32f1xx_ll_dma.h ****   * @retval Returned value can be one of the following values:
 727:Drivers/STM32F1xx_HAL_Driver/Inc/stm32f1xx_ll_dma.h ****   *         @arg @ref LL_DMA_MEMORY_INCREMENT
 728:Drivers/STM32F1xx_HAL_Driver/Inc/stm32f1xx_ll_dma.h ****   *         @arg @ref LL_DMA_MEMORY_NOINCREMENT
 729:Drivers/STM32F1xx_HAL_Driver/Inc/stm32f1xx_ll_dma.h ****   */
 730:Drivers/STM32F1xx_HAL_Driver/Inc/stm32f1xx_ll_dma.h **** __STATIC_INLINE uint32_t LL_DMA_GetMemoryIncMode(DMA_TypeDef *DMAx, uint32_t Channel)
 731:Drivers/STM32F1xx_HAL_Driver/Inc/stm32f1xx_ll_dma.h **** {
 732:Drivers/STM32F1xx_HAL_Driver/Inc/stm32f1xx_ll_dma.h ****   return (READ_BIT(((DMA_Channel_TypeDef *)((uint32_t)((uint32_t)DMAx + CHANNEL_OFFSET_TAB[Channel 
 733:Drivers/STM32F1xx_HAL_Driver/Inc/stm32f1xx_ll_dma.h ****                    DMA_CCR_MINC));
 734:Drivers/STM32F1xx_HAL_Driver/Inc/stm32f1xx_ll_dma.h **** }
 735:Drivers/STM32F1xx_HAL_Driver/Inc/stm32f1xx_ll_dma.h **** 
 736:Drivers/STM32F1xx_HAL_Driver/Inc/stm32f1xx_ll_dma.h **** /**
 737:Drivers/STM32F1xx_HAL_Driver/Inc/stm32f1xx_ll_dma.h ****   * @brief  Set Peripheral size.
 738:Drivers/STM32F1xx_HAL_Driver/Inc/stm32f1xx_ll_dma.h ****   * @rmtoll CCR          PSIZE         LL_DMA_SetPeriphSize
 739:Drivers/STM32F1xx_HAL_Driver/Inc/stm32f1xx_ll_dma.h ****   * @param  DMAx DMAx Instance
 740:Drivers/STM32F1xx_HAL_Driver/Inc/stm32f1xx_ll_dma.h ****   * @param  Channel This parameter can be one of the following values:
 741:Drivers/STM32F1xx_HAL_Driver/Inc/stm32f1xx_ll_dma.h ****   *         @arg @ref LL_DMA_CHANNEL_1
 742:Drivers/STM32F1xx_HAL_Driver/Inc/stm32f1xx_ll_dma.h ****   *         @arg @ref LL_DMA_CHANNEL_2
 743:Drivers/STM32F1xx_HAL_Driver/Inc/stm32f1xx_ll_dma.h ****   *         @arg @ref LL_DMA_CHANNEL_3
 744:Drivers/STM32F1xx_HAL_Driver/Inc/stm32f1xx_ll_dma.h ****   *         @arg @ref LL_DMA_CHANNEL_4
 745:Drivers/STM32F1xx_HAL_Driver/Inc/stm32f1xx_ll_dma.h ****   *         @arg @ref LL_DMA_CHANNEL_5
 746:Drivers/STM32F1xx_HAL_Driver/Inc/stm32f1xx_ll_dma.h ****   *         @arg @ref LL_DMA_CHANNEL_6
 747:Drivers/STM32F1xx_HAL_Driver/Inc/stm32f1xx_ll_dma.h ****   *         @arg @ref LL_DMA_CHANNEL_7
 748:Drivers/STM32F1xx_HAL_Driver/Inc/stm32f1xx_ll_dma.h ****   * @param  PeriphOrM2MSrcDataSize This parameter can be one of the following values:
 749:Drivers/STM32F1xx_HAL_Driver/Inc/stm32f1xx_ll_dma.h ****   *         @arg @ref LL_DMA_PDATAALIGN_BYTE
 750:Drivers/STM32F1xx_HAL_Driver/Inc/stm32f1xx_ll_dma.h ****   *         @arg @ref LL_DMA_PDATAALIGN_HALFWORD
 751:Drivers/STM32F1xx_HAL_Driver/Inc/stm32f1xx_ll_dma.h ****   *         @arg @ref LL_DMA_PDATAALIGN_WORD
 752:Drivers/STM32F1xx_HAL_Driver/Inc/stm32f1xx_ll_dma.h ****   * @retval None
 753:Drivers/STM32F1xx_HAL_Driver/Inc/stm32f1xx_ll_dma.h ****   */
 754:Drivers/STM32F1xx_HAL_Driver/Inc/stm32f1xx_ll_dma.h **** __STATIC_INLINE void LL_DMA_SetPeriphSize(DMA_TypeDef *DMAx, uint32_t Channel, uint32_t PeriphOrM2M
ARM GAS  /tmp/ccwUacce.s 			page 16


 755:Drivers/STM32F1xx_HAL_Driver/Inc/stm32f1xx_ll_dma.h **** {
 756:Drivers/STM32F1xx_HAL_Driver/Inc/stm32f1xx_ll_dma.h ****   MODIFY_REG(((DMA_Channel_TypeDef *)((uint32_t)((uint32_t)DMAx + CHANNEL_OFFSET_TAB[Channel - 1U])
 757:Drivers/STM32F1xx_HAL_Driver/Inc/stm32f1xx_ll_dma.h ****              PeriphOrM2MSrcDataSize);
 758:Drivers/STM32F1xx_HAL_Driver/Inc/stm32f1xx_ll_dma.h **** }
 759:Drivers/STM32F1xx_HAL_Driver/Inc/stm32f1xx_ll_dma.h **** 
 760:Drivers/STM32F1xx_HAL_Driver/Inc/stm32f1xx_ll_dma.h **** /**
 761:Drivers/STM32F1xx_HAL_Driver/Inc/stm32f1xx_ll_dma.h ****   * @brief  Get Peripheral size.
 762:Drivers/STM32F1xx_HAL_Driver/Inc/stm32f1xx_ll_dma.h ****   * @rmtoll CCR          PSIZE         LL_DMA_GetPeriphSize
 763:Drivers/STM32F1xx_HAL_Driver/Inc/stm32f1xx_ll_dma.h ****   * @param  DMAx DMAx Instance
 764:Drivers/STM32F1xx_HAL_Driver/Inc/stm32f1xx_ll_dma.h ****   * @param  Channel This parameter can be one of the following values:
 765:Drivers/STM32F1xx_HAL_Driver/Inc/stm32f1xx_ll_dma.h ****   *         @arg @ref LL_DMA_CHANNEL_1
 766:Drivers/STM32F1xx_HAL_Driver/Inc/stm32f1xx_ll_dma.h ****   *         @arg @ref LL_DMA_CHANNEL_2
 767:Drivers/STM32F1xx_HAL_Driver/Inc/stm32f1xx_ll_dma.h ****   *         @arg @ref LL_DMA_CHANNEL_3
 768:Drivers/STM32F1xx_HAL_Driver/Inc/stm32f1xx_ll_dma.h ****   *         @arg @ref LL_DMA_CHANNEL_4
 769:Drivers/STM32F1xx_HAL_Driver/Inc/stm32f1xx_ll_dma.h ****   *         @arg @ref LL_DMA_CHANNEL_5
 770:Drivers/STM32F1xx_HAL_Driver/Inc/stm32f1xx_ll_dma.h ****   *         @arg @ref LL_DMA_CHANNEL_6
 771:Drivers/STM32F1xx_HAL_Driver/Inc/stm32f1xx_ll_dma.h ****   *         @arg @ref LL_DMA_CHANNEL_7
 772:Drivers/STM32F1xx_HAL_Driver/Inc/stm32f1xx_ll_dma.h ****   * @retval Returned value can be one of the following values:
 773:Drivers/STM32F1xx_HAL_Driver/Inc/stm32f1xx_ll_dma.h ****   *         @arg @ref LL_DMA_PDATAALIGN_BYTE
 774:Drivers/STM32F1xx_HAL_Driver/Inc/stm32f1xx_ll_dma.h ****   *         @arg @ref LL_DMA_PDATAALIGN_HALFWORD
 775:Drivers/STM32F1xx_HAL_Driver/Inc/stm32f1xx_ll_dma.h ****   *         @arg @ref LL_DMA_PDATAALIGN_WORD
 776:Drivers/STM32F1xx_HAL_Driver/Inc/stm32f1xx_ll_dma.h ****   */
 777:Drivers/STM32F1xx_HAL_Driver/Inc/stm32f1xx_ll_dma.h **** __STATIC_INLINE uint32_t LL_DMA_GetPeriphSize(DMA_TypeDef *DMAx, uint32_t Channel)
 778:Drivers/STM32F1xx_HAL_Driver/Inc/stm32f1xx_ll_dma.h **** {
 779:Drivers/STM32F1xx_HAL_Driver/Inc/stm32f1xx_ll_dma.h ****   return (READ_BIT(((DMA_Channel_TypeDef *)((uint32_t)((uint32_t)DMAx + CHANNEL_OFFSET_TAB[Channel 
 780:Drivers/STM32F1xx_HAL_Driver/Inc/stm32f1xx_ll_dma.h ****                    DMA_CCR_PSIZE));
 781:Drivers/STM32F1xx_HAL_Driver/Inc/stm32f1xx_ll_dma.h **** }
 782:Drivers/STM32F1xx_HAL_Driver/Inc/stm32f1xx_ll_dma.h **** 
 783:Drivers/STM32F1xx_HAL_Driver/Inc/stm32f1xx_ll_dma.h **** /**
 784:Drivers/STM32F1xx_HAL_Driver/Inc/stm32f1xx_ll_dma.h ****   * @brief  Set Memory size.
 785:Drivers/STM32F1xx_HAL_Driver/Inc/stm32f1xx_ll_dma.h ****   * @rmtoll CCR          MSIZE         LL_DMA_SetMemorySize
 786:Drivers/STM32F1xx_HAL_Driver/Inc/stm32f1xx_ll_dma.h ****   * @param  DMAx DMAx Instance
 787:Drivers/STM32F1xx_HAL_Driver/Inc/stm32f1xx_ll_dma.h ****   * @param  Channel This parameter can be one of the following values:
 788:Drivers/STM32F1xx_HAL_Driver/Inc/stm32f1xx_ll_dma.h ****   *         @arg @ref LL_DMA_CHANNEL_1
 789:Drivers/STM32F1xx_HAL_Driver/Inc/stm32f1xx_ll_dma.h ****   *         @arg @ref LL_DMA_CHANNEL_2
 790:Drivers/STM32F1xx_HAL_Driver/Inc/stm32f1xx_ll_dma.h ****   *         @arg @ref LL_DMA_CHANNEL_3
 791:Drivers/STM32F1xx_HAL_Driver/Inc/stm32f1xx_ll_dma.h ****   *         @arg @ref LL_DMA_CHANNEL_4
 792:Drivers/STM32F1xx_HAL_Driver/Inc/stm32f1xx_ll_dma.h ****   *         @arg @ref LL_DMA_CHANNEL_5
 793:Drivers/STM32F1xx_HAL_Driver/Inc/stm32f1xx_ll_dma.h ****   *         @arg @ref LL_DMA_CHANNEL_6
 794:Drivers/STM32F1xx_HAL_Driver/Inc/stm32f1xx_ll_dma.h ****   *         @arg @ref LL_DMA_CHANNEL_7
 795:Drivers/STM32F1xx_HAL_Driver/Inc/stm32f1xx_ll_dma.h ****   * @param  MemoryOrM2MDstDataSize This parameter can be one of the following values:
 796:Drivers/STM32F1xx_HAL_Driver/Inc/stm32f1xx_ll_dma.h ****   *         @arg @ref LL_DMA_MDATAALIGN_BYTE
 797:Drivers/STM32F1xx_HAL_Driver/Inc/stm32f1xx_ll_dma.h ****   *         @arg @ref LL_DMA_MDATAALIGN_HALFWORD
 798:Drivers/STM32F1xx_HAL_Driver/Inc/stm32f1xx_ll_dma.h ****   *         @arg @ref LL_DMA_MDATAALIGN_WORD
 799:Drivers/STM32F1xx_HAL_Driver/Inc/stm32f1xx_ll_dma.h ****   * @retval None
 800:Drivers/STM32F1xx_HAL_Driver/Inc/stm32f1xx_ll_dma.h ****   */
 801:Drivers/STM32F1xx_HAL_Driver/Inc/stm32f1xx_ll_dma.h **** __STATIC_INLINE void LL_DMA_SetMemorySize(DMA_TypeDef *DMAx, uint32_t Channel, uint32_t MemoryOrM2M
 802:Drivers/STM32F1xx_HAL_Driver/Inc/stm32f1xx_ll_dma.h **** {
 803:Drivers/STM32F1xx_HAL_Driver/Inc/stm32f1xx_ll_dma.h ****   MODIFY_REG(((DMA_Channel_TypeDef *)((uint32_t)((uint32_t)DMAx + CHANNEL_OFFSET_TAB[Channel - 1U])
 804:Drivers/STM32F1xx_HAL_Driver/Inc/stm32f1xx_ll_dma.h ****              MemoryOrM2MDstDataSize);
 805:Drivers/STM32F1xx_HAL_Driver/Inc/stm32f1xx_ll_dma.h **** }
 806:Drivers/STM32F1xx_HAL_Driver/Inc/stm32f1xx_ll_dma.h **** 
 807:Drivers/STM32F1xx_HAL_Driver/Inc/stm32f1xx_ll_dma.h **** /**
 808:Drivers/STM32F1xx_HAL_Driver/Inc/stm32f1xx_ll_dma.h ****   * @brief  Get Memory size.
 809:Drivers/STM32F1xx_HAL_Driver/Inc/stm32f1xx_ll_dma.h ****   * @rmtoll CCR          MSIZE         LL_DMA_GetMemorySize
 810:Drivers/STM32F1xx_HAL_Driver/Inc/stm32f1xx_ll_dma.h ****   * @param  DMAx DMAx Instance
 811:Drivers/STM32F1xx_HAL_Driver/Inc/stm32f1xx_ll_dma.h ****   * @param  Channel This parameter can be one of the following values:
ARM GAS  /tmp/ccwUacce.s 			page 17


 812:Drivers/STM32F1xx_HAL_Driver/Inc/stm32f1xx_ll_dma.h ****   *         @arg @ref LL_DMA_CHANNEL_1
 813:Drivers/STM32F1xx_HAL_Driver/Inc/stm32f1xx_ll_dma.h ****   *         @arg @ref LL_DMA_CHANNEL_2
 814:Drivers/STM32F1xx_HAL_Driver/Inc/stm32f1xx_ll_dma.h ****   *         @arg @ref LL_DMA_CHANNEL_3
 815:Drivers/STM32F1xx_HAL_Driver/Inc/stm32f1xx_ll_dma.h ****   *         @arg @ref LL_DMA_CHANNEL_4
 816:Drivers/STM32F1xx_HAL_Driver/Inc/stm32f1xx_ll_dma.h ****   *         @arg @ref LL_DMA_CHANNEL_5
 817:Drivers/STM32F1xx_HAL_Driver/Inc/stm32f1xx_ll_dma.h ****   *         @arg @ref LL_DMA_CHANNEL_6
 818:Drivers/STM32F1xx_HAL_Driver/Inc/stm32f1xx_ll_dma.h ****   *         @arg @ref LL_DMA_CHANNEL_7
 819:Drivers/STM32F1xx_HAL_Driver/Inc/stm32f1xx_ll_dma.h ****   * @retval Returned value can be one of the following values:
 820:Drivers/STM32F1xx_HAL_Driver/Inc/stm32f1xx_ll_dma.h ****   *         @arg @ref LL_DMA_MDATAALIGN_BYTE
 821:Drivers/STM32F1xx_HAL_Driver/Inc/stm32f1xx_ll_dma.h ****   *         @arg @ref LL_DMA_MDATAALIGN_HALFWORD
 822:Drivers/STM32F1xx_HAL_Driver/Inc/stm32f1xx_ll_dma.h ****   *         @arg @ref LL_DMA_MDATAALIGN_WORD
 823:Drivers/STM32F1xx_HAL_Driver/Inc/stm32f1xx_ll_dma.h ****   */
 824:Drivers/STM32F1xx_HAL_Driver/Inc/stm32f1xx_ll_dma.h **** __STATIC_INLINE uint32_t LL_DMA_GetMemorySize(DMA_TypeDef *DMAx, uint32_t Channel)
 825:Drivers/STM32F1xx_HAL_Driver/Inc/stm32f1xx_ll_dma.h **** {
 826:Drivers/STM32F1xx_HAL_Driver/Inc/stm32f1xx_ll_dma.h ****   return (READ_BIT(((DMA_Channel_TypeDef *)((uint32_t)((uint32_t)DMAx + CHANNEL_OFFSET_TAB[Channel 
 827:Drivers/STM32F1xx_HAL_Driver/Inc/stm32f1xx_ll_dma.h ****                    DMA_CCR_MSIZE));
 828:Drivers/STM32F1xx_HAL_Driver/Inc/stm32f1xx_ll_dma.h **** }
 829:Drivers/STM32F1xx_HAL_Driver/Inc/stm32f1xx_ll_dma.h **** 
 830:Drivers/STM32F1xx_HAL_Driver/Inc/stm32f1xx_ll_dma.h **** /**
 831:Drivers/STM32F1xx_HAL_Driver/Inc/stm32f1xx_ll_dma.h ****   * @brief  Set Channel priority level.
 832:Drivers/STM32F1xx_HAL_Driver/Inc/stm32f1xx_ll_dma.h ****   * @rmtoll CCR          PL            LL_DMA_SetChannelPriorityLevel
 833:Drivers/STM32F1xx_HAL_Driver/Inc/stm32f1xx_ll_dma.h ****   * @param  DMAx DMAx Instance
 834:Drivers/STM32F1xx_HAL_Driver/Inc/stm32f1xx_ll_dma.h ****   * @param  Channel This parameter can be one of the following values:
 835:Drivers/STM32F1xx_HAL_Driver/Inc/stm32f1xx_ll_dma.h ****   *         @arg @ref LL_DMA_CHANNEL_1
 836:Drivers/STM32F1xx_HAL_Driver/Inc/stm32f1xx_ll_dma.h ****   *         @arg @ref LL_DMA_CHANNEL_2
 837:Drivers/STM32F1xx_HAL_Driver/Inc/stm32f1xx_ll_dma.h ****   *         @arg @ref LL_DMA_CHANNEL_3
 838:Drivers/STM32F1xx_HAL_Driver/Inc/stm32f1xx_ll_dma.h ****   *         @arg @ref LL_DMA_CHANNEL_4
 839:Drivers/STM32F1xx_HAL_Driver/Inc/stm32f1xx_ll_dma.h ****   *         @arg @ref LL_DMA_CHANNEL_5
 840:Drivers/STM32F1xx_HAL_Driver/Inc/stm32f1xx_ll_dma.h ****   *         @arg @ref LL_DMA_CHANNEL_6
 841:Drivers/STM32F1xx_HAL_Driver/Inc/stm32f1xx_ll_dma.h ****   *         @arg @ref LL_DMA_CHANNEL_7
 842:Drivers/STM32F1xx_HAL_Driver/Inc/stm32f1xx_ll_dma.h ****   * @param  Priority This parameter can be one of the following values:
 843:Drivers/STM32F1xx_HAL_Driver/Inc/stm32f1xx_ll_dma.h ****   *         @arg @ref LL_DMA_PRIORITY_LOW
 844:Drivers/STM32F1xx_HAL_Driver/Inc/stm32f1xx_ll_dma.h ****   *         @arg @ref LL_DMA_PRIORITY_MEDIUM
 845:Drivers/STM32F1xx_HAL_Driver/Inc/stm32f1xx_ll_dma.h ****   *         @arg @ref LL_DMA_PRIORITY_HIGH
 846:Drivers/STM32F1xx_HAL_Driver/Inc/stm32f1xx_ll_dma.h ****   *         @arg @ref LL_DMA_PRIORITY_VERYHIGH
 847:Drivers/STM32F1xx_HAL_Driver/Inc/stm32f1xx_ll_dma.h ****   * @retval None
 848:Drivers/STM32F1xx_HAL_Driver/Inc/stm32f1xx_ll_dma.h ****   */
 849:Drivers/STM32F1xx_HAL_Driver/Inc/stm32f1xx_ll_dma.h **** __STATIC_INLINE void LL_DMA_SetChannelPriorityLevel(DMA_TypeDef *DMAx, uint32_t Channel, uint32_t P
 850:Drivers/STM32F1xx_HAL_Driver/Inc/stm32f1xx_ll_dma.h **** {
 851:Drivers/STM32F1xx_HAL_Driver/Inc/stm32f1xx_ll_dma.h ****   MODIFY_REG(((DMA_Channel_TypeDef *)((uint32_t)((uint32_t)DMAx + CHANNEL_OFFSET_TAB[Channel - 1U])
 852:Drivers/STM32F1xx_HAL_Driver/Inc/stm32f1xx_ll_dma.h ****              Priority);
 853:Drivers/STM32F1xx_HAL_Driver/Inc/stm32f1xx_ll_dma.h **** }
 854:Drivers/STM32F1xx_HAL_Driver/Inc/stm32f1xx_ll_dma.h **** 
 855:Drivers/STM32F1xx_HAL_Driver/Inc/stm32f1xx_ll_dma.h **** /**
 856:Drivers/STM32F1xx_HAL_Driver/Inc/stm32f1xx_ll_dma.h ****   * @brief  Get Channel priority level.
 857:Drivers/STM32F1xx_HAL_Driver/Inc/stm32f1xx_ll_dma.h ****   * @rmtoll CCR          PL            LL_DMA_GetChannelPriorityLevel
 858:Drivers/STM32F1xx_HAL_Driver/Inc/stm32f1xx_ll_dma.h ****   * @param  DMAx DMAx Instance
 859:Drivers/STM32F1xx_HAL_Driver/Inc/stm32f1xx_ll_dma.h ****   * @param  Channel This parameter can be one of the following values:
 860:Drivers/STM32F1xx_HAL_Driver/Inc/stm32f1xx_ll_dma.h ****   *         @arg @ref LL_DMA_CHANNEL_1
 861:Drivers/STM32F1xx_HAL_Driver/Inc/stm32f1xx_ll_dma.h ****   *         @arg @ref LL_DMA_CHANNEL_2
 862:Drivers/STM32F1xx_HAL_Driver/Inc/stm32f1xx_ll_dma.h ****   *         @arg @ref LL_DMA_CHANNEL_3
 863:Drivers/STM32F1xx_HAL_Driver/Inc/stm32f1xx_ll_dma.h ****   *         @arg @ref LL_DMA_CHANNEL_4
 864:Drivers/STM32F1xx_HAL_Driver/Inc/stm32f1xx_ll_dma.h ****   *         @arg @ref LL_DMA_CHANNEL_5
 865:Drivers/STM32F1xx_HAL_Driver/Inc/stm32f1xx_ll_dma.h ****   *         @arg @ref LL_DMA_CHANNEL_6
 866:Drivers/STM32F1xx_HAL_Driver/Inc/stm32f1xx_ll_dma.h ****   *         @arg @ref LL_DMA_CHANNEL_7
 867:Drivers/STM32F1xx_HAL_Driver/Inc/stm32f1xx_ll_dma.h ****   * @retval Returned value can be one of the following values:
 868:Drivers/STM32F1xx_HAL_Driver/Inc/stm32f1xx_ll_dma.h ****   *         @arg @ref LL_DMA_PRIORITY_LOW
ARM GAS  /tmp/ccwUacce.s 			page 18


 869:Drivers/STM32F1xx_HAL_Driver/Inc/stm32f1xx_ll_dma.h ****   *         @arg @ref LL_DMA_PRIORITY_MEDIUM
 870:Drivers/STM32F1xx_HAL_Driver/Inc/stm32f1xx_ll_dma.h ****   *         @arg @ref LL_DMA_PRIORITY_HIGH
 871:Drivers/STM32F1xx_HAL_Driver/Inc/stm32f1xx_ll_dma.h ****   *         @arg @ref LL_DMA_PRIORITY_VERYHIGH
 872:Drivers/STM32F1xx_HAL_Driver/Inc/stm32f1xx_ll_dma.h ****   */
 873:Drivers/STM32F1xx_HAL_Driver/Inc/stm32f1xx_ll_dma.h **** __STATIC_INLINE uint32_t LL_DMA_GetChannelPriorityLevel(DMA_TypeDef *DMAx, uint32_t Channel)
 874:Drivers/STM32F1xx_HAL_Driver/Inc/stm32f1xx_ll_dma.h **** {
 875:Drivers/STM32F1xx_HAL_Driver/Inc/stm32f1xx_ll_dma.h ****   return (READ_BIT(((DMA_Channel_TypeDef *)((uint32_t)((uint32_t)DMAx + CHANNEL_OFFSET_TAB[Channel 
 876:Drivers/STM32F1xx_HAL_Driver/Inc/stm32f1xx_ll_dma.h ****                    DMA_CCR_PL));
 877:Drivers/STM32F1xx_HAL_Driver/Inc/stm32f1xx_ll_dma.h **** }
 878:Drivers/STM32F1xx_HAL_Driver/Inc/stm32f1xx_ll_dma.h **** 
 879:Drivers/STM32F1xx_HAL_Driver/Inc/stm32f1xx_ll_dma.h **** /**
 880:Drivers/STM32F1xx_HAL_Driver/Inc/stm32f1xx_ll_dma.h ****   * @brief  Set Number of data to transfer.
 881:Drivers/STM32F1xx_HAL_Driver/Inc/stm32f1xx_ll_dma.h ****   * @note   This action has no effect if
 882:Drivers/STM32F1xx_HAL_Driver/Inc/stm32f1xx_ll_dma.h ****   *         channel is enabled.
 883:Drivers/STM32F1xx_HAL_Driver/Inc/stm32f1xx_ll_dma.h ****   * @rmtoll CNDTR        NDT           LL_DMA_SetDataLength
 884:Drivers/STM32F1xx_HAL_Driver/Inc/stm32f1xx_ll_dma.h ****   * @param  DMAx DMAx Instance
 885:Drivers/STM32F1xx_HAL_Driver/Inc/stm32f1xx_ll_dma.h ****   * @param  Channel This parameter can be one of the following values:
 886:Drivers/STM32F1xx_HAL_Driver/Inc/stm32f1xx_ll_dma.h ****   *         @arg @ref LL_DMA_CHANNEL_1
 887:Drivers/STM32F1xx_HAL_Driver/Inc/stm32f1xx_ll_dma.h ****   *         @arg @ref LL_DMA_CHANNEL_2
 888:Drivers/STM32F1xx_HAL_Driver/Inc/stm32f1xx_ll_dma.h ****   *         @arg @ref LL_DMA_CHANNEL_3
 889:Drivers/STM32F1xx_HAL_Driver/Inc/stm32f1xx_ll_dma.h ****   *         @arg @ref LL_DMA_CHANNEL_4
 890:Drivers/STM32F1xx_HAL_Driver/Inc/stm32f1xx_ll_dma.h ****   *         @arg @ref LL_DMA_CHANNEL_5
 891:Drivers/STM32F1xx_HAL_Driver/Inc/stm32f1xx_ll_dma.h ****   *         @arg @ref LL_DMA_CHANNEL_6
 892:Drivers/STM32F1xx_HAL_Driver/Inc/stm32f1xx_ll_dma.h ****   *         @arg @ref LL_DMA_CHANNEL_7
 893:Drivers/STM32F1xx_HAL_Driver/Inc/stm32f1xx_ll_dma.h ****   * @param  NbData Between Min_Data = 0 and Max_Data = 0x0000FFFF
 894:Drivers/STM32F1xx_HAL_Driver/Inc/stm32f1xx_ll_dma.h ****   * @retval None
 895:Drivers/STM32F1xx_HAL_Driver/Inc/stm32f1xx_ll_dma.h ****   */
 896:Drivers/STM32F1xx_HAL_Driver/Inc/stm32f1xx_ll_dma.h **** __STATIC_INLINE void LL_DMA_SetDataLength(DMA_TypeDef *DMAx, uint32_t Channel, uint32_t NbData)
 897:Drivers/STM32F1xx_HAL_Driver/Inc/stm32f1xx_ll_dma.h **** {
 107              		.loc 1 897 0
 108              		.cfi_startproc
 109              		@ args = 0, pretend = 0, frame = 16
 110              		@ frame_needed = 1, uses_anonymous_args = 0
 111              		@ link register save eliminated.
 112 0000 80B4     		push	{r7}
 113              	.LCFI6:
 114              		.cfi_def_cfa_offset 4
 115              		.cfi_offset 7, -4
 116 0002 85B0     		sub	sp, sp, #20
 117              	.LCFI7:
 118              		.cfi_def_cfa_offset 24
 119 0004 00AF     		add	r7, sp, #0
 120              	.LCFI8:
 121              		.cfi_def_cfa_register 7
 122 0006 F860     		str	r0, [r7, #12]
 123 0008 B960     		str	r1, [r7, #8]
 124 000a 7A60     		str	r2, [r7, #4]
 898:Drivers/STM32F1xx_HAL_Driver/Inc/stm32f1xx_ll_dma.h ****   MODIFY_REG(((DMA_Channel_TypeDef *)((uint32_t)((uint32_t)DMAx + CHANNEL_OFFSET_TAB[Channel - 1U])
 125              		.loc 1 898 0
 126 000c BB68     		ldr	r3, [r7, #8]
 127 000e 013B     		subs	r3, r3, #1
 128 0010 0B4A     		ldr	r2, .L5
 129 0012 D35C     		ldrb	r3, [r2, r3]	@ zero_extendqisi2
 130 0014 1A46     		mov	r2, r3
 131 0016 FB68     		ldr	r3, [r7, #12]
 132 0018 1344     		add	r3, r3, r2
 133 001a 5B68     		ldr	r3, [r3, #4]
ARM GAS  /tmp/ccwUacce.s 			page 19


 134 001c 1B0C     		lsrs	r3, r3, #16
 135 001e 1B04     		lsls	r3, r3, #16
 136 0020 BA68     		ldr	r2, [r7, #8]
 137 0022 013A     		subs	r2, r2, #1
 138 0024 0649     		ldr	r1, .L5
 139 0026 8A5C     		ldrb	r2, [r1, r2]	@ zero_extendqisi2
 140 0028 1146     		mov	r1, r2
 141 002a FA68     		ldr	r2, [r7, #12]
 142 002c 0A44     		add	r2, r2, r1
 143 002e 1146     		mov	r1, r2
 144 0030 7A68     		ldr	r2, [r7, #4]
 145 0032 1343     		orrs	r3, r3, r2
 146 0034 4B60     		str	r3, [r1, #4]
 899:Drivers/STM32F1xx_HAL_Driver/Inc/stm32f1xx_ll_dma.h ****              DMA_CNDTR_NDT, NbData);
 900:Drivers/STM32F1xx_HAL_Driver/Inc/stm32f1xx_ll_dma.h **** }
 147              		.loc 1 900 0
 148 0036 00BF     		nop
 149 0038 1437     		adds	r7, r7, #20
 150              	.LCFI9:
 151              		.cfi_def_cfa_offset 4
 152 003a BD46     		mov	sp, r7
 153              	.LCFI10:
 154              		.cfi_def_cfa_register 13
 155              		@ sp needed
 156 003c 80BC     		pop	{r7}
 157              	.LCFI11:
 158              		.cfi_restore 7
 159              		.cfi_def_cfa_offset 0
 160 003e 7047     		bx	lr
 161              	.L6:
 162              		.align	2
 163              	.L5:
 164 0040 00000000 		.word	CHANNEL_OFFSET_TAB
 165              		.cfi_endproc
 166              	.LFE81:
 168              		.section	.text.LL_DMA_SetMemoryAddress,"ax",%progbits
 169              		.align	1
 170              		.syntax unified
 171              		.thumb
 172              		.thumb_func
 173              		.fpu softvfp
 175              	LL_DMA_SetMemoryAddress:
 176              	.LFB84:
 901:Drivers/STM32F1xx_HAL_Driver/Inc/stm32f1xx_ll_dma.h **** 
 902:Drivers/STM32F1xx_HAL_Driver/Inc/stm32f1xx_ll_dma.h **** /**
 903:Drivers/STM32F1xx_HAL_Driver/Inc/stm32f1xx_ll_dma.h ****   * @brief  Get Number of data to transfer.
 904:Drivers/STM32F1xx_HAL_Driver/Inc/stm32f1xx_ll_dma.h ****   * @note   Once the channel is enabled, the return value indicate the
 905:Drivers/STM32F1xx_HAL_Driver/Inc/stm32f1xx_ll_dma.h ****   *         remaining bytes to be transmitted.
 906:Drivers/STM32F1xx_HAL_Driver/Inc/stm32f1xx_ll_dma.h ****   * @rmtoll CNDTR        NDT           LL_DMA_GetDataLength
 907:Drivers/STM32F1xx_HAL_Driver/Inc/stm32f1xx_ll_dma.h ****   * @param  DMAx DMAx Instance
 908:Drivers/STM32F1xx_HAL_Driver/Inc/stm32f1xx_ll_dma.h ****   * @param  Channel This parameter can be one of the following values:
 909:Drivers/STM32F1xx_HAL_Driver/Inc/stm32f1xx_ll_dma.h ****   *         @arg @ref LL_DMA_CHANNEL_1
 910:Drivers/STM32F1xx_HAL_Driver/Inc/stm32f1xx_ll_dma.h ****   *         @arg @ref LL_DMA_CHANNEL_2
 911:Drivers/STM32F1xx_HAL_Driver/Inc/stm32f1xx_ll_dma.h ****   *         @arg @ref LL_DMA_CHANNEL_3
 912:Drivers/STM32F1xx_HAL_Driver/Inc/stm32f1xx_ll_dma.h ****   *         @arg @ref LL_DMA_CHANNEL_4
 913:Drivers/STM32F1xx_HAL_Driver/Inc/stm32f1xx_ll_dma.h ****   *         @arg @ref LL_DMA_CHANNEL_5
 914:Drivers/STM32F1xx_HAL_Driver/Inc/stm32f1xx_ll_dma.h ****   *         @arg @ref LL_DMA_CHANNEL_6
ARM GAS  /tmp/ccwUacce.s 			page 20


 915:Drivers/STM32F1xx_HAL_Driver/Inc/stm32f1xx_ll_dma.h ****   *         @arg @ref LL_DMA_CHANNEL_7
 916:Drivers/STM32F1xx_HAL_Driver/Inc/stm32f1xx_ll_dma.h ****   * @retval Between Min_Data = 0 and Max_Data = 0xFFFFFFFF
 917:Drivers/STM32F1xx_HAL_Driver/Inc/stm32f1xx_ll_dma.h ****   */
 918:Drivers/STM32F1xx_HAL_Driver/Inc/stm32f1xx_ll_dma.h **** __STATIC_INLINE uint32_t LL_DMA_GetDataLength(DMA_TypeDef *DMAx, uint32_t Channel)
 919:Drivers/STM32F1xx_HAL_Driver/Inc/stm32f1xx_ll_dma.h **** {
 920:Drivers/STM32F1xx_HAL_Driver/Inc/stm32f1xx_ll_dma.h ****   return (READ_BIT(((DMA_Channel_TypeDef *)((uint32_t)((uint32_t)DMAx + CHANNEL_OFFSET_TAB[Channel 
 921:Drivers/STM32F1xx_HAL_Driver/Inc/stm32f1xx_ll_dma.h ****                    DMA_CNDTR_NDT));
 922:Drivers/STM32F1xx_HAL_Driver/Inc/stm32f1xx_ll_dma.h **** }
 923:Drivers/STM32F1xx_HAL_Driver/Inc/stm32f1xx_ll_dma.h **** 
 924:Drivers/STM32F1xx_HAL_Driver/Inc/stm32f1xx_ll_dma.h **** /**
 925:Drivers/STM32F1xx_HAL_Driver/Inc/stm32f1xx_ll_dma.h ****   * @brief  Configure the Source and Destination addresses.
 926:Drivers/STM32F1xx_HAL_Driver/Inc/stm32f1xx_ll_dma.h ****   * @note   This API must not be called when the DMA channel is enabled.
 927:Drivers/STM32F1xx_HAL_Driver/Inc/stm32f1xx_ll_dma.h ****   * @note   Each IP using DMA provides an API to get directly the register adress (LL_PPP_DMA_GetRe
 928:Drivers/STM32F1xx_HAL_Driver/Inc/stm32f1xx_ll_dma.h ****   * @rmtoll CPAR         PA            LL_DMA_ConfigAddresses\n
 929:Drivers/STM32F1xx_HAL_Driver/Inc/stm32f1xx_ll_dma.h ****   *         CMAR         MA            LL_DMA_ConfigAddresses
 930:Drivers/STM32F1xx_HAL_Driver/Inc/stm32f1xx_ll_dma.h ****   * @param  DMAx DMAx Instance
 931:Drivers/STM32F1xx_HAL_Driver/Inc/stm32f1xx_ll_dma.h ****   * @param  Channel This parameter can be one of the following values:
 932:Drivers/STM32F1xx_HAL_Driver/Inc/stm32f1xx_ll_dma.h ****   *         @arg @ref LL_DMA_CHANNEL_1
 933:Drivers/STM32F1xx_HAL_Driver/Inc/stm32f1xx_ll_dma.h ****   *         @arg @ref LL_DMA_CHANNEL_2
 934:Drivers/STM32F1xx_HAL_Driver/Inc/stm32f1xx_ll_dma.h ****   *         @arg @ref LL_DMA_CHANNEL_3
 935:Drivers/STM32F1xx_HAL_Driver/Inc/stm32f1xx_ll_dma.h ****   *         @arg @ref LL_DMA_CHANNEL_4
 936:Drivers/STM32F1xx_HAL_Driver/Inc/stm32f1xx_ll_dma.h ****   *         @arg @ref LL_DMA_CHANNEL_5
 937:Drivers/STM32F1xx_HAL_Driver/Inc/stm32f1xx_ll_dma.h ****   *         @arg @ref LL_DMA_CHANNEL_6
 938:Drivers/STM32F1xx_HAL_Driver/Inc/stm32f1xx_ll_dma.h ****   *         @arg @ref LL_DMA_CHANNEL_7
 939:Drivers/STM32F1xx_HAL_Driver/Inc/stm32f1xx_ll_dma.h ****   * @param  SrcAddress Between Min_Data = 0 and Max_Data = 0xFFFFFFFF
 940:Drivers/STM32F1xx_HAL_Driver/Inc/stm32f1xx_ll_dma.h ****   * @param  DstAddress Between Min_Data = 0 and Max_Data = 0xFFFFFFFF
 941:Drivers/STM32F1xx_HAL_Driver/Inc/stm32f1xx_ll_dma.h ****   * @param  Direction This parameter can be one of the following values:
 942:Drivers/STM32F1xx_HAL_Driver/Inc/stm32f1xx_ll_dma.h ****   *         @arg @ref LL_DMA_DIRECTION_PERIPH_TO_MEMORY
 943:Drivers/STM32F1xx_HAL_Driver/Inc/stm32f1xx_ll_dma.h ****   *         @arg @ref LL_DMA_DIRECTION_MEMORY_TO_PERIPH
 944:Drivers/STM32F1xx_HAL_Driver/Inc/stm32f1xx_ll_dma.h ****   *         @arg @ref LL_DMA_DIRECTION_MEMORY_TO_MEMORY
 945:Drivers/STM32F1xx_HAL_Driver/Inc/stm32f1xx_ll_dma.h ****   * @retval None
 946:Drivers/STM32F1xx_HAL_Driver/Inc/stm32f1xx_ll_dma.h ****   */
 947:Drivers/STM32F1xx_HAL_Driver/Inc/stm32f1xx_ll_dma.h **** __STATIC_INLINE void LL_DMA_ConfigAddresses(DMA_TypeDef *DMAx, uint32_t Channel, uint32_t SrcAddres
 948:Drivers/STM32F1xx_HAL_Driver/Inc/stm32f1xx_ll_dma.h ****                                             uint32_t DstAddress, uint32_t Direction)
 949:Drivers/STM32F1xx_HAL_Driver/Inc/stm32f1xx_ll_dma.h **** {
 950:Drivers/STM32F1xx_HAL_Driver/Inc/stm32f1xx_ll_dma.h ****   /* Direction Memory to Periph */
 951:Drivers/STM32F1xx_HAL_Driver/Inc/stm32f1xx_ll_dma.h ****   if (Direction == LL_DMA_DIRECTION_MEMORY_TO_PERIPH)
 952:Drivers/STM32F1xx_HAL_Driver/Inc/stm32f1xx_ll_dma.h ****   {
 953:Drivers/STM32F1xx_HAL_Driver/Inc/stm32f1xx_ll_dma.h ****     WRITE_REG(((DMA_Channel_TypeDef *)((uint32_t)((uint32_t)DMAx + CHANNEL_OFFSET_TAB[Channel - 1U]
 954:Drivers/STM32F1xx_HAL_Driver/Inc/stm32f1xx_ll_dma.h ****     WRITE_REG(((DMA_Channel_TypeDef *)((uint32_t)((uint32_t)DMAx + CHANNEL_OFFSET_TAB[Channel - 1U]
 955:Drivers/STM32F1xx_HAL_Driver/Inc/stm32f1xx_ll_dma.h ****   }
 956:Drivers/STM32F1xx_HAL_Driver/Inc/stm32f1xx_ll_dma.h ****   /* Direction Periph to Memory and Memory to Memory */
 957:Drivers/STM32F1xx_HAL_Driver/Inc/stm32f1xx_ll_dma.h ****   else
 958:Drivers/STM32F1xx_HAL_Driver/Inc/stm32f1xx_ll_dma.h ****   {
 959:Drivers/STM32F1xx_HAL_Driver/Inc/stm32f1xx_ll_dma.h ****     WRITE_REG(((DMA_Channel_TypeDef *)((uint32_t)((uint32_t)DMAx + CHANNEL_OFFSET_TAB[Channel - 1U]
 960:Drivers/STM32F1xx_HAL_Driver/Inc/stm32f1xx_ll_dma.h ****     WRITE_REG(((DMA_Channel_TypeDef *)((uint32_t)((uint32_t)DMAx + CHANNEL_OFFSET_TAB[Channel - 1U]
 961:Drivers/STM32F1xx_HAL_Driver/Inc/stm32f1xx_ll_dma.h ****   }
 962:Drivers/STM32F1xx_HAL_Driver/Inc/stm32f1xx_ll_dma.h **** }
 963:Drivers/STM32F1xx_HAL_Driver/Inc/stm32f1xx_ll_dma.h **** 
 964:Drivers/STM32F1xx_HAL_Driver/Inc/stm32f1xx_ll_dma.h **** /**
 965:Drivers/STM32F1xx_HAL_Driver/Inc/stm32f1xx_ll_dma.h ****   * @brief  Set the Memory address.
 966:Drivers/STM32F1xx_HAL_Driver/Inc/stm32f1xx_ll_dma.h ****   * @note   Interface used for direction LL_DMA_DIRECTION_PERIPH_TO_MEMORY or LL_DMA_DIRECTION_MEMO
 967:Drivers/STM32F1xx_HAL_Driver/Inc/stm32f1xx_ll_dma.h ****   * @note   This API must not be called when the DMA channel is enabled.
 968:Drivers/STM32F1xx_HAL_Driver/Inc/stm32f1xx_ll_dma.h ****   * @rmtoll CMAR         MA            LL_DMA_SetMemoryAddress
 969:Drivers/STM32F1xx_HAL_Driver/Inc/stm32f1xx_ll_dma.h ****   * @param  DMAx DMAx Instance
 970:Drivers/STM32F1xx_HAL_Driver/Inc/stm32f1xx_ll_dma.h ****   * @param  Channel This parameter can be one of the following values:
 971:Drivers/STM32F1xx_HAL_Driver/Inc/stm32f1xx_ll_dma.h ****   *         @arg @ref LL_DMA_CHANNEL_1
ARM GAS  /tmp/ccwUacce.s 			page 21


 972:Drivers/STM32F1xx_HAL_Driver/Inc/stm32f1xx_ll_dma.h ****   *         @arg @ref LL_DMA_CHANNEL_2
 973:Drivers/STM32F1xx_HAL_Driver/Inc/stm32f1xx_ll_dma.h ****   *         @arg @ref LL_DMA_CHANNEL_3
 974:Drivers/STM32F1xx_HAL_Driver/Inc/stm32f1xx_ll_dma.h ****   *         @arg @ref LL_DMA_CHANNEL_4
 975:Drivers/STM32F1xx_HAL_Driver/Inc/stm32f1xx_ll_dma.h ****   *         @arg @ref LL_DMA_CHANNEL_5
 976:Drivers/STM32F1xx_HAL_Driver/Inc/stm32f1xx_ll_dma.h ****   *         @arg @ref LL_DMA_CHANNEL_6
 977:Drivers/STM32F1xx_HAL_Driver/Inc/stm32f1xx_ll_dma.h ****   *         @arg @ref LL_DMA_CHANNEL_7
 978:Drivers/STM32F1xx_HAL_Driver/Inc/stm32f1xx_ll_dma.h ****   * @param  MemoryAddress Between Min_Data = 0 and Max_Data = 0xFFFFFFFF
 979:Drivers/STM32F1xx_HAL_Driver/Inc/stm32f1xx_ll_dma.h ****   * @retval None
 980:Drivers/STM32F1xx_HAL_Driver/Inc/stm32f1xx_ll_dma.h ****   */
 981:Drivers/STM32F1xx_HAL_Driver/Inc/stm32f1xx_ll_dma.h **** __STATIC_INLINE void LL_DMA_SetMemoryAddress(DMA_TypeDef *DMAx, uint32_t Channel, uint32_t MemoryAd
 982:Drivers/STM32F1xx_HAL_Driver/Inc/stm32f1xx_ll_dma.h **** {
 177              		.loc 1 982 0
 178              		.cfi_startproc
 179              		@ args = 0, pretend = 0, frame = 16
 180              		@ frame_needed = 1, uses_anonymous_args = 0
 181              		@ link register save eliminated.
 182 0000 80B4     		push	{r7}
 183              	.LCFI12:
 184              		.cfi_def_cfa_offset 4
 185              		.cfi_offset 7, -4
 186 0002 85B0     		sub	sp, sp, #20
 187              	.LCFI13:
 188              		.cfi_def_cfa_offset 24
 189 0004 00AF     		add	r7, sp, #0
 190              	.LCFI14:
 191              		.cfi_def_cfa_register 7
 192 0006 F860     		str	r0, [r7, #12]
 193 0008 B960     		str	r1, [r7, #8]
 194 000a 7A60     		str	r2, [r7, #4]
 983:Drivers/STM32F1xx_HAL_Driver/Inc/stm32f1xx_ll_dma.h ****   WRITE_REG(((DMA_Channel_TypeDef *)((uint32_t)((uint32_t)DMAx + CHANNEL_OFFSET_TAB[Channel - 1U]))
 195              		.loc 1 983 0
 196 000c BB68     		ldr	r3, [r7, #8]
 197 000e 013B     		subs	r3, r3, #1
 198 0010 064A     		ldr	r2, .L8
 199 0012 D35C     		ldrb	r3, [r2, r3]	@ zero_extendqisi2
 200 0014 1A46     		mov	r2, r3
 201 0016 FB68     		ldr	r3, [r7, #12]
 202 0018 1344     		add	r3, r3, r2
 203 001a 1A46     		mov	r2, r3
 204 001c 7B68     		ldr	r3, [r7, #4]
 205 001e D360     		str	r3, [r2, #12]
 984:Drivers/STM32F1xx_HAL_Driver/Inc/stm32f1xx_ll_dma.h **** }
 206              		.loc 1 984 0
 207 0020 00BF     		nop
 208 0022 1437     		adds	r7, r7, #20
 209              	.LCFI15:
 210              		.cfi_def_cfa_offset 4
 211 0024 BD46     		mov	sp, r7
 212              	.LCFI16:
 213              		.cfi_def_cfa_register 13
 214              		@ sp needed
 215 0026 80BC     		pop	{r7}
 216              	.LCFI17:
 217              		.cfi_restore 7
 218              		.cfi_def_cfa_offset 0
 219 0028 7047     		bx	lr
 220              	.L9:
ARM GAS  /tmp/ccwUacce.s 			page 22


 221 002a 00BF     		.align	2
 222              	.L8:
 223 002c 00000000 		.word	CHANNEL_OFFSET_TAB
 224              		.cfi_endproc
 225              	.LFE84:
 227              		.section	.text.LL_DMA_SetPeriphAddress,"ax",%progbits
 228              		.align	1
 229              		.syntax unified
 230              		.thumb
 231              		.thumb_func
 232              		.fpu softvfp
 234              	LL_DMA_SetPeriphAddress:
 235              	.LFB85:
 985:Drivers/STM32F1xx_HAL_Driver/Inc/stm32f1xx_ll_dma.h **** 
 986:Drivers/STM32F1xx_HAL_Driver/Inc/stm32f1xx_ll_dma.h **** /**
 987:Drivers/STM32F1xx_HAL_Driver/Inc/stm32f1xx_ll_dma.h ****   * @brief  Set the Peripheral address.
 988:Drivers/STM32F1xx_HAL_Driver/Inc/stm32f1xx_ll_dma.h ****   * @note   Interface used for direction LL_DMA_DIRECTION_PERIPH_TO_MEMORY or LL_DMA_DIRECTION_MEMO
 989:Drivers/STM32F1xx_HAL_Driver/Inc/stm32f1xx_ll_dma.h ****   * @note   This API must not be called when the DMA channel is enabled.
 990:Drivers/STM32F1xx_HAL_Driver/Inc/stm32f1xx_ll_dma.h ****   * @rmtoll CPAR         PA            LL_DMA_SetPeriphAddress
 991:Drivers/STM32F1xx_HAL_Driver/Inc/stm32f1xx_ll_dma.h ****   * @param  DMAx DMAx Instance
 992:Drivers/STM32F1xx_HAL_Driver/Inc/stm32f1xx_ll_dma.h ****   * @param  Channel This parameter can be one of the following values:
 993:Drivers/STM32F1xx_HAL_Driver/Inc/stm32f1xx_ll_dma.h ****   *         @arg @ref LL_DMA_CHANNEL_1
 994:Drivers/STM32F1xx_HAL_Driver/Inc/stm32f1xx_ll_dma.h ****   *         @arg @ref LL_DMA_CHANNEL_2
 995:Drivers/STM32F1xx_HAL_Driver/Inc/stm32f1xx_ll_dma.h ****   *         @arg @ref LL_DMA_CHANNEL_3
 996:Drivers/STM32F1xx_HAL_Driver/Inc/stm32f1xx_ll_dma.h ****   *         @arg @ref LL_DMA_CHANNEL_4
 997:Drivers/STM32F1xx_HAL_Driver/Inc/stm32f1xx_ll_dma.h ****   *         @arg @ref LL_DMA_CHANNEL_5
 998:Drivers/STM32F1xx_HAL_Driver/Inc/stm32f1xx_ll_dma.h ****   *         @arg @ref LL_DMA_CHANNEL_6
 999:Drivers/STM32F1xx_HAL_Driver/Inc/stm32f1xx_ll_dma.h ****   *         @arg @ref LL_DMA_CHANNEL_7
1000:Drivers/STM32F1xx_HAL_Driver/Inc/stm32f1xx_ll_dma.h ****   * @param  PeriphAddress Between Min_Data = 0 and Max_Data = 0xFFFFFFFF
1001:Drivers/STM32F1xx_HAL_Driver/Inc/stm32f1xx_ll_dma.h ****   * @retval None
1002:Drivers/STM32F1xx_HAL_Driver/Inc/stm32f1xx_ll_dma.h ****   */
1003:Drivers/STM32F1xx_HAL_Driver/Inc/stm32f1xx_ll_dma.h **** __STATIC_INLINE void LL_DMA_SetPeriphAddress(DMA_TypeDef *DMAx, uint32_t Channel, uint32_t PeriphAd
1004:Drivers/STM32F1xx_HAL_Driver/Inc/stm32f1xx_ll_dma.h **** {
 236              		.loc 1 1004 0
 237              		.cfi_startproc
 238              		@ args = 0, pretend = 0, frame = 16
 239              		@ frame_needed = 1, uses_anonymous_args = 0
 240              		@ link register save eliminated.
 241 0000 80B4     		push	{r7}
 242              	.LCFI18:
 243              		.cfi_def_cfa_offset 4
 244              		.cfi_offset 7, -4
 245 0002 85B0     		sub	sp, sp, #20
 246              	.LCFI19:
 247              		.cfi_def_cfa_offset 24
 248 0004 00AF     		add	r7, sp, #0
 249              	.LCFI20:
 250              		.cfi_def_cfa_register 7
 251 0006 F860     		str	r0, [r7, #12]
 252 0008 B960     		str	r1, [r7, #8]
 253 000a 7A60     		str	r2, [r7, #4]
1005:Drivers/STM32F1xx_HAL_Driver/Inc/stm32f1xx_ll_dma.h ****   WRITE_REG(((DMA_Channel_TypeDef *)((uint32_t)((uint32_t)DMAx + CHANNEL_OFFSET_TAB[Channel - 1U]))
 254              		.loc 1 1005 0
 255 000c BB68     		ldr	r3, [r7, #8]
 256 000e 013B     		subs	r3, r3, #1
 257 0010 064A     		ldr	r2, .L11
 258 0012 D35C     		ldrb	r3, [r2, r3]	@ zero_extendqisi2
ARM GAS  /tmp/ccwUacce.s 			page 23


 259 0014 1A46     		mov	r2, r3
 260 0016 FB68     		ldr	r3, [r7, #12]
 261 0018 1344     		add	r3, r3, r2
 262 001a 1A46     		mov	r2, r3
 263 001c 7B68     		ldr	r3, [r7, #4]
 264 001e 9360     		str	r3, [r2, #8]
1006:Drivers/STM32F1xx_HAL_Driver/Inc/stm32f1xx_ll_dma.h **** }
 265              		.loc 1 1006 0
 266 0020 00BF     		nop
 267 0022 1437     		adds	r7, r7, #20
 268              	.LCFI21:
 269              		.cfi_def_cfa_offset 4
 270 0024 BD46     		mov	sp, r7
 271              	.LCFI22:
 272              		.cfi_def_cfa_register 13
 273              		@ sp needed
 274 0026 80BC     		pop	{r7}
 275              	.LCFI23:
 276              		.cfi_restore 7
 277              		.cfi_def_cfa_offset 0
 278 0028 7047     		bx	lr
 279              	.L12:
 280 002a 00BF     		.align	2
 281              	.L11:
 282 002c 00000000 		.word	CHANNEL_OFFSET_TAB
 283              		.cfi_endproc
 284              	.LFE85:
 286              		.section	.text.LL_DMA_ClearFlag_GI1,"ax",%progbits
 287              		.align	1
 288              		.syntax unified
 289              		.thumb
 290              		.thumb_func
 291              		.fpu softvfp
 293              	LL_DMA_ClearFlag_GI1:
 294              	.LFB120:
1007:Drivers/STM32F1xx_HAL_Driver/Inc/stm32f1xx_ll_dma.h **** 
1008:Drivers/STM32F1xx_HAL_Driver/Inc/stm32f1xx_ll_dma.h **** /**
1009:Drivers/STM32F1xx_HAL_Driver/Inc/stm32f1xx_ll_dma.h ****   * @brief  Get Memory address.
1010:Drivers/STM32F1xx_HAL_Driver/Inc/stm32f1xx_ll_dma.h ****   * @note   Interface used for direction LL_DMA_DIRECTION_PERIPH_TO_MEMORY or LL_DMA_DIRECTION_MEMO
1011:Drivers/STM32F1xx_HAL_Driver/Inc/stm32f1xx_ll_dma.h ****   * @rmtoll CMAR         MA            LL_DMA_GetMemoryAddress
1012:Drivers/STM32F1xx_HAL_Driver/Inc/stm32f1xx_ll_dma.h ****   * @param  DMAx DMAx Instance
1013:Drivers/STM32F1xx_HAL_Driver/Inc/stm32f1xx_ll_dma.h ****   * @param  Channel This parameter can be one of the following values:
1014:Drivers/STM32F1xx_HAL_Driver/Inc/stm32f1xx_ll_dma.h ****   *         @arg @ref LL_DMA_CHANNEL_1
1015:Drivers/STM32F1xx_HAL_Driver/Inc/stm32f1xx_ll_dma.h ****   *         @arg @ref LL_DMA_CHANNEL_2
1016:Drivers/STM32F1xx_HAL_Driver/Inc/stm32f1xx_ll_dma.h ****   *         @arg @ref LL_DMA_CHANNEL_3
1017:Drivers/STM32F1xx_HAL_Driver/Inc/stm32f1xx_ll_dma.h ****   *         @arg @ref LL_DMA_CHANNEL_4
1018:Drivers/STM32F1xx_HAL_Driver/Inc/stm32f1xx_ll_dma.h ****   *         @arg @ref LL_DMA_CHANNEL_5
1019:Drivers/STM32F1xx_HAL_Driver/Inc/stm32f1xx_ll_dma.h ****   *         @arg @ref LL_DMA_CHANNEL_6
1020:Drivers/STM32F1xx_HAL_Driver/Inc/stm32f1xx_ll_dma.h ****   *         @arg @ref LL_DMA_CHANNEL_7
1021:Drivers/STM32F1xx_HAL_Driver/Inc/stm32f1xx_ll_dma.h ****   * @retval Between Min_Data = 0 and Max_Data = 0xFFFFFFFF
1022:Drivers/STM32F1xx_HAL_Driver/Inc/stm32f1xx_ll_dma.h ****   */
1023:Drivers/STM32F1xx_HAL_Driver/Inc/stm32f1xx_ll_dma.h **** __STATIC_INLINE uint32_t LL_DMA_GetMemoryAddress(DMA_TypeDef *DMAx, uint32_t Channel)
1024:Drivers/STM32F1xx_HAL_Driver/Inc/stm32f1xx_ll_dma.h **** {
1025:Drivers/STM32F1xx_HAL_Driver/Inc/stm32f1xx_ll_dma.h ****   return (READ_REG(((DMA_Channel_TypeDef *)((uint32_t)((uint32_t)DMAx + CHANNEL_OFFSET_TAB[Channel 
1026:Drivers/STM32F1xx_HAL_Driver/Inc/stm32f1xx_ll_dma.h **** }
1027:Drivers/STM32F1xx_HAL_Driver/Inc/stm32f1xx_ll_dma.h **** 
1028:Drivers/STM32F1xx_HAL_Driver/Inc/stm32f1xx_ll_dma.h **** /**
ARM GAS  /tmp/ccwUacce.s 			page 24


1029:Drivers/STM32F1xx_HAL_Driver/Inc/stm32f1xx_ll_dma.h ****   * @brief  Get Peripheral address.
1030:Drivers/STM32F1xx_HAL_Driver/Inc/stm32f1xx_ll_dma.h ****   * @note   Interface used for direction LL_DMA_DIRECTION_PERIPH_TO_MEMORY or LL_DMA_DIRECTION_MEMO
1031:Drivers/STM32F1xx_HAL_Driver/Inc/stm32f1xx_ll_dma.h ****   * @rmtoll CPAR         PA            LL_DMA_GetPeriphAddress
1032:Drivers/STM32F1xx_HAL_Driver/Inc/stm32f1xx_ll_dma.h ****   * @param  DMAx DMAx Instance
1033:Drivers/STM32F1xx_HAL_Driver/Inc/stm32f1xx_ll_dma.h ****   * @param  Channel This parameter can be one of the following values:
1034:Drivers/STM32F1xx_HAL_Driver/Inc/stm32f1xx_ll_dma.h ****   *         @arg @ref LL_DMA_CHANNEL_1
1035:Drivers/STM32F1xx_HAL_Driver/Inc/stm32f1xx_ll_dma.h ****   *         @arg @ref LL_DMA_CHANNEL_2
1036:Drivers/STM32F1xx_HAL_Driver/Inc/stm32f1xx_ll_dma.h ****   *         @arg @ref LL_DMA_CHANNEL_3
1037:Drivers/STM32F1xx_HAL_Driver/Inc/stm32f1xx_ll_dma.h ****   *         @arg @ref LL_DMA_CHANNEL_4
1038:Drivers/STM32F1xx_HAL_Driver/Inc/stm32f1xx_ll_dma.h ****   *         @arg @ref LL_DMA_CHANNEL_5
1039:Drivers/STM32F1xx_HAL_Driver/Inc/stm32f1xx_ll_dma.h ****   *         @arg @ref LL_DMA_CHANNEL_6
1040:Drivers/STM32F1xx_HAL_Driver/Inc/stm32f1xx_ll_dma.h ****   *         @arg @ref LL_DMA_CHANNEL_7
1041:Drivers/STM32F1xx_HAL_Driver/Inc/stm32f1xx_ll_dma.h ****   * @retval Between Min_Data = 0 and Max_Data = 0xFFFFFFFF
1042:Drivers/STM32F1xx_HAL_Driver/Inc/stm32f1xx_ll_dma.h ****   */
1043:Drivers/STM32F1xx_HAL_Driver/Inc/stm32f1xx_ll_dma.h **** __STATIC_INLINE uint32_t LL_DMA_GetPeriphAddress(DMA_TypeDef *DMAx, uint32_t Channel)
1044:Drivers/STM32F1xx_HAL_Driver/Inc/stm32f1xx_ll_dma.h **** {
1045:Drivers/STM32F1xx_HAL_Driver/Inc/stm32f1xx_ll_dma.h ****   return (READ_REG(((DMA_Channel_TypeDef *)((uint32_t)((uint32_t)DMAx + CHANNEL_OFFSET_TAB[Channel 
1046:Drivers/STM32F1xx_HAL_Driver/Inc/stm32f1xx_ll_dma.h **** }
1047:Drivers/STM32F1xx_HAL_Driver/Inc/stm32f1xx_ll_dma.h **** 
1048:Drivers/STM32F1xx_HAL_Driver/Inc/stm32f1xx_ll_dma.h **** /**
1049:Drivers/STM32F1xx_HAL_Driver/Inc/stm32f1xx_ll_dma.h ****   * @brief  Set the Memory to Memory Source address.
1050:Drivers/STM32F1xx_HAL_Driver/Inc/stm32f1xx_ll_dma.h ****   * @note   Interface used for direction LL_DMA_DIRECTION_MEMORY_TO_MEMORY only.
1051:Drivers/STM32F1xx_HAL_Driver/Inc/stm32f1xx_ll_dma.h ****   * @note   This API must not be called when the DMA channel is enabled.
1052:Drivers/STM32F1xx_HAL_Driver/Inc/stm32f1xx_ll_dma.h ****   * @rmtoll CPAR         PA            LL_DMA_SetM2MSrcAddress
1053:Drivers/STM32F1xx_HAL_Driver/Inc/stm32f1xx_ll_dma.h ****   * @param  DMAx DMAx Instance
1054:Drivers/STM32F1xx_HAL_Driver/Inc/stm32f1xx_ll_dma.h ****   * @param  Channel This parameter can be one of the following values:
1055:Drivers/STM32F1xx_HAL_Driver/Inc/stm32f1xx_ll_dma.h ****   *         @arg @ref LL_DMA_CHANNEL_1
1056:Drivers/STM32F1xx_HAL_Driver/Inc/stm32f1xx_ll_dma.h ****   *         @arg @ref LL_DMA_CHANNEL_2
1057:Drivers/STM32F1xx_HAL_Driver/Inc/stm32f1xx_ll_dma.h ****   *         @arg @ref LL_DMA_CHANNEL_3
1058:Drivers/STM32F1xx_HAL_Driver/Inc/stm32f1xx_ll_dma.h ****   *         @arg @ref LL_DMA_CHANNEL_4
1059:Drivers/STM32F1xx_HAL_Driver/Inc/stm32f1xx_ll_dma.h ****   *         @arg @ref LL_DMA_CHANNEL_5
1060:Drivers/STM32F1xx_HAL_Driver/Inc/stm32f1xx_ll_dma.h ****   *         @arg @ref LL_DMA_CHANNEL_6
1061:Drivers/STM32F1xx_HAL_Driver/Inc/stm32f1xx_ll_dma.h ****   *         @arg @ref LL_DMA_CHANNEL_7
1062:Drivers/STM32F1xx_HAL_Driver/Inc/stm32f1xx_ll_dma.h ****   * @param  MemoryAddress Between Min_Data = 0 and Max_Data = 0xFFFFFFFF
1063:Drivers/STM32F1xx_HAL_Driver/Inc/stm32f1xx_ll_dma.h ****   * @retval None
1064:Drivers/STM32F1xx_HAL_Driver/Inc/stm32f1xx_ll_dma.h ****   */
1065:Drivers/STM32F1xx_HAL_Driver/Inc/stm32f1xx_ll_dma.h **** __STATIC_INLINE void LL_DMA_SetM2MSrcAddress(DMA_TypeDef *DMAx, uint32_t Channel, uint32_t MemoryAd
1066:Drivers/STM32F1xx_HAL_Driver/Inc/stm32f1xx_ll_dma.h **** {
1067:Drivers/STM32F1xx_HAL_Driver/Inc/stm32f1xx_ll_dma.h ****   WRITE_REG(((DMA_Channel_TypeDef *)((uint32_t)((uint32_t)DMAx + CHANNEL_OFFSET_TAB[Channel - 1U]))
1068:Drivers/STM32F1xx_HAL_Driver/Inc/stm32f1xx_ll_dma.h **** }
1069:Drivers/STM32F1xx_HAL_Driver/Inc/stm32f1xx_ll_dma.h **** 
1070:Drivers/STM32F1xx_HAL_Driver/Inc/stm32f1xx_ll_dma.h **** /**
1071:Drivers/STM32F1xx_HAL_Driver/Inc/stm32f1xx_ll_dma.h ****   * @brief  Set the Memory to Memory Destination address.
1072:Drivers/STM32F1xx_HAL_Driver/Inc/stm32f1xx_ll_dma.h ****   * @note   Interface used for direction LL_DMA_DIRECTION_MEMORY_TO_MEMORY only.
1073:Drivers/STM32F1xx_HAL_Driver/Inc/stm32f1xx_ll_dma.h ****   * @note   This API must not be called when the DMA channel is enabled.
1074:Drivers/STM32F1xx_HAL_Driver/Inc/stm32f1xx_ll_dma.h ****   * @rmtoll CMAR         MA            LL_DMA_SetM2MDstAddress
1075:Drivers/STM32F1xx_HAL_Driver/Inc/stm32f1xx_ll_dma.h ****   * @param  DMAx DMAx Instance
1076:Drivers/STM32F1xx_HAL_Driver/Inc/stm32f1xx_ll_dma.h ****   * @param  Channel This parameter can be one of the following values:
1077:Drivers/STM32F1xx_HAL_Driver/Inc/stm32f1xx_ll_dma.h ****   *         @arg @ref LL_DMA_CHANNEL_1
1078:Drivers/STM32F1xx_HAL_Driver/Inc/stm32f1xx_ll_dma.h ****   *         @arg @ref LL_DMA_CHANNEL_2
1079:Drivers/STM32F1xx_HAL_Driver/Inc/stm32f1xx_ll_dma.h ****   *         @arg @ref LL_DMA_CHANNEL_3
1080:Drivers/STM32F1xx_HAL_Driver/Inc/stm32f1xx_ll_dma.h ****   *         @arg @ref LL_DMA_CHANNEL_4
1081:Drivers/STM32F1xx_HAL_Driver/Inc/stm32f1xx_ll_dma.h ****   *         @arg @ref LL_DMA_CHANNEL_5
1082:Drivers/STM32F1xx_HAL_Driver/Inc/stm32f1xx_ll_dma.h ****   *         @arg @ref LL_DMA_CHANNEL_6
1083:Drivers/STM32F1xx_HAL_Driver/Inc/stm32f1xx_ll_dma.h ****   *         @arg @ref LL_DMA_CHANNEL_7
1084:Drivers/STM32F1xx_HAL_Driver/Inc/stm32f1xx_ll_dma.h ****   * @param  MemoryAddress Between Min_Data = 0 and Max_Data = 0xFFFFFFFF
1085:Drivers/STM32F1xx_HAL_Driver/Inc/stm32f1xx_ll_dma.h ****   * @retval None
ARM GAS  /tmp/ccwUacce.s 			page 25


1086:Drivers/STM32F1xx_HAL_Driver/Inc/stm32f1xx_ll_dma.h ****   */
1087:Drivers/STM32F1xx_HAL_Driver/Inc/stm32f1xx_ll_dma.h **** __STATIC_INLINE void LL_DMA_SetM2MDstAddress(DMA_TypeDef *DMAx, uint32_t Channel, uint32_t MemoryAd
1088:Drivers/STM32F1xx_HAL_Driver/Inc/stm32f1xx_ll_dma.h **** {
1089:Drivers/STM32F1xx_HAL_Driver/Inc/stm32f1xx_ll_dma.h ****   WRITE_REG(((DMA_Channel_TypeDef *)((uint32_t)((uint32_t)DMAx + CHANNEL_OFFSET_TAB[Channel - 1U]))
1090:Drivers/STM32F1xx_HAL_Driver/Inc/stm32f1xx_ll_dma.h **** }
1091:Drivers/STM32F1xx_HAL_Driver/Inc/stm32f1xx_ll_dma.h **** 
1092:Drivers/STM32F1xx_HAL_Driver/Inc/stm32f1xx_ll_dma.h **** /**
1093:Drivers/STM32F1xx_HAL_Driver/Inc/stm32f1xx_ll_dma.h ****   * @brief  Get the Memory to Memory Source address.
1094:Drivers/STM32F1xx_HAL_Driver/Inc/stm32f1xx_ll_dma.h ****   * @note   Interface used for direction LL_DMA_DIRECTION_MEMORY_TO_MEMORY only.
1095:Drivers/STM32F1xx_HAL_Driver/Inc/stm32f1xx_ll_dma.h ****   * @rmtoll CPAR         PA            LL_DMA_GetM2MSrcAddress
1096:Drivers/STM32F1xx_HAL_Driver/Inc/stm32f1xx_ll_dma.h ****   * @param  DMAx DMAx Instance
1097:Drivers/STM32F1xx_HAL_Driver/Inc/stm32f1xx_ll_dma.h ****   * @param  Channel This parameter can be one of the following values:
1098:Drivers/STM32F1xx_HAL_Driver/Inc/stm32f1xx_ll_dma.h ****   *         @arg @ref LL_DMA_CHANNEL_1
1099:Drivers/STM32F1xx_HAL_Driver/Inc/stm32f1xx_ll_dma.h ****   *         @arg @ref LL_DMA_CHANNEL_2
1100:Drivers/STM32F1xx_HAL_Driver/Inc/stm32f1xx_ll_dma.h ****   *         @arg @ref LL_DMA_CHANNEL_3
1101:Drivers/STM32F1xx_HAL_Driver/Inc/stm32f1xx_ll_dma.h ****   *         @arg @ref LL_DMA_CHANNEL_4
1102:Drivers/STM32F1xx_HAL_Driver/Inc/stm32f1xx_ll_dma.h ****   *         @arg @ref LL_DMA_CHANNEL_5
1103:Drivers/STM32F1xx_HAL_Driver/Inc/stm32f1xx_ll_dma.h ****   *         @arg @ref LL_DMA_CHANNEL_6
1104:Drivers/STM32F1xx_HAL_Driver/Inc/stm32f1xx_ll_dma.h ****   *         @arg @ref LL_DMA_CHANNEL_7
1105:Drivers/STM32F1xx_HAL_Driver/Inc/stm32f1xx_ll_dma.h ****   * @retval Between Min_Data = 0 and Max_Data = 0xFFFFFFFF
1106:Drivers/STM32F1xx_HAL_Driver/Inc/stm32f1xx_ll_dma.h ****   */
1107:Drivers/STM32F1xx_HAL_Driver/Inc/stm32f1xx_ll_dma.h **** __STATIC_INLINE uint32_t LL_DMA_GetM2MSrcAddress(DMA_TypeDef *DMAx, uint32_t Channel)
1108:Drivers/STM32F1xx_HAL_Driver/Inc/stm32f1xx_ll_dma.h **** {
1109:Drivers/STM32F1xx_HAL_Driver/Inc/stm32f1xx_ll_dma.h ****   return (READ_REG(((DMA_Channel_TypeDef *)((uint32_t)((uint32_t)DMAx + CHANNEL_OFFSET_TAB[Channel 
1110:Drivers/STM32F1xx_HAL_Driver/Inc/stm32f1xx_ll_dma.h **** }
1111:Drivers/STM32F1xx_HAL_Driver/Inc/stm32f1xx_ll_dma.h **** 
1112:Drivers/STM32F1xx_HAL_Driver/Inc/stm32f1xx_ll_dma.h **** /**
1113:Drivers/STM32F1xx_HAL_Driver/Inc/stm32f1xx_ll_dma.h ****   * @brief  Get the Memory to Memory Destination address.
1114:Drivers/STM32F1xx_HAL_Driver/Inc/stm32f1xx_ll_dma.h ****   * @note   Interface used for direction LL_DMA_DIRECTION_MEMORY_TO_MEMORY only.
1115:Drivers/STM32F1xx_HAL_Driver/Inc/stm32f1xx_ll_dma.h ****   * @rmtoll CMAR         MA            LL_DMA_GetM2MDstAddress
1116:Drivers/STM32F1xx_HAL_Driver/Inc/stm32f1xx_ll_dma.h ****   * @param  DMAx DMAx Instance
1117:Drivers/STM32F1xx_HAL_Driver/Inc/stm32f1xx_ll_dma.h ****   * @param  Channel This parameter can be one of the following values:
1118:Drivers/STM32F1xx_HAL_Driver/Inc/stm32f1xx_ll_dma.h ****   *         @arg @ref LL_DMA_CHANNEL_1
1119:Drivers/STM32F1xx_HAL_Driver/Inc/stm32f1xx_ll_dma.h ****   *         @arg @ref LL_DMA_CHANNEL_2
1120:Drivers/STM32F1xx_HAL_Driver/Inc/stm32f1xx_ll_dma.h ****   *         @arg @ref LL_DMA_CHANNEL_3
1121:Drivers/STM32F1xx_HAL_Driver/Inc/stm32f1xx_ll_dma.h ****   *         @arg @ref LL_DMA_CHANNEL_4
1122:Drivers/STM32F1xx_HAL_Driver/Inc/stm32f1xx_ll_dma.h ****   *         @arg @ref LL_DMA_CHANNEL_5
1123:Drivers/STM32F1xx_HAL_Driver/Inc/stm32f1xx_ll_dma.h ****   *         @arg @ref LL_DMA_CHANNEL_6
1124:Drivers/STM32F1xx_HAL_Driver/Inc/stm32f1xx_ll_dma.h ****   *         @arg @ref LL_DMA_CHANNEL_7
1125:Drivers/STM32F1xx_HAL_Driver/Inc/stm32f1xx_ll_dma.h ****   * @retval Between Min_Data = 0 and Max_Data = 0xFFFFFFFF
1126:Drivers/STM32F1xx_HAL_Driver/Inc/stm32f1xx_ll_dma.h ****   */
1127:Drivers/STM32F1xx_HAL_Driver/Inc/stm32f1xx_ll_dma.h **** __STATIC_INLINE uint32_t LL_DMA_GetM2MDstAddress(DMA_TypeDef *DMAx, uint32_t Channel)
1128:Drivers/STM32F1xx_HAL_Driver/Inc/stm32f1xx_ll_dma.h **** {
1129:Drivers/STM32F1xx_HAL_Driver/Inc/stm32f1xx_ll_dma.h ****   return (READ_REG(((DMA_Channel_TypeDef *)((uint32_t)((uint32_t)DMAx + CHANNEL_OFFSET_TAB[Channel 
1130:Drivers/STM32F1xx_HAL_Driver/Inc/stm32f1xx_ll_dma.h **** }
1131:Drivers/STM32F1xx_HAL_Driver/Inc/stm32f1xx_ll_dma.h **** 
1132:Drivers/STM32F1xx_HAL_Driver/Inc/stm32f1xx_ll_dma.h **** /**
1133:Drivers/STM32F1xx_HAL_Driver/Inc/stm32f1xx_ll_dma.h ****   * @}
1134:Drivers/STM32F1xx_HAL_Driver/Inc/stm32f1xx_ll_dma.h ****   */
1135:Drivers/STM32F1xx_HAL_Driver/Inc/stm32f1xx_ll_dma.h **** 
1136:Drivers/STM32F1xx_HAL_Driver/Inc/stm32f1xx_ll_dma.h **** /** @defgroup DMA_LL_EF_FLAG_Management FLAG_Management
1137:Drivers/STM32F1xx_HAL_Driver/Inc/stm32f1xx_ll_dma.h ****   * @{
1138:Drivers/STM32F1xx_HAL_Driver/Inc/stm32f1xx_ll_dma.h ****   */
1139:Drivers/STM32F1xx_HAL_Driver/Inc/stm32f1xx_ll_dma.h **** 
1140:Drivers/STM32F1xx_HAL_Driver/Inc/stm32f1xx_ll_dma.h **** /**
1141:Drivers/STM32F1xx_HAL_Driver/Inc/stm32f1xx_ll_dma.h ****   * @brief  Get Channel 1 global interrupt flag.
1142:Drivers/STM32F1xx_HAL_Driver/Inc/stm32f1xx_ll_dma.h ****   * @rmtoll ISR          GIF1          LL_DMA_IsActiveFlag_GI1
ARM GAS  /tmp/ccwUacce.s 			page 26


1143:Drivers/STM32F1xx_HAL_Driver/Inc/stm32f1xx_ll_dma.h ****   * @param  DMAx DMAx Instance
1144:Drivers/STM32F1xx_HAL_Driver/Inc/stm32f1xx_ll_dma.h ****   * @retval State of bit (1 or 0).
1145:Drivers/STM32F1xx_HAL_Driver/Inc/stm32f1xx_ll_dma.h ****   */
1146:Drivers/STM32F1xx_HAL_Driver/Inc/stm32f1xx_ll_dma.h **** __STATIC_INLINE uint32_t LL_DMA_IsActiveFlag_GI1(DMA_TypeDef *DMAx)
1147:Drivers/STM32F1xx_HAL_Driver/Inc/stm32f1xx_ll_dma.h **** {
1148:Drivers/STM32F1xx_HAL_Driver/Inc/stm32f1xx_ll_dma.h ****   return (READ_BIT(DMAx->ISR, DMA_ISR_GIF1) == (DMA_ISR_GIF1));
1149:Drivers/STM32F1xx_HAL_Driver/Inc/stm32f1xx_ll_dma.h **** }
1150:Drivers/STM32F1xx_HAL_Driver/Inc/stm32f1xx_ll_dma.h **** 
1151:Drivers/STM32F1xx_HAL_Driver/Inc/stm32f1xx_ll_dma.h **** /**
1152:Drivers/STM32F1xx_HAL_Driver/Inc/stm32f1xx_ll_dma.h ****   * @brief  Get Channel 2 global interrupt flag.
1153:Drivers/STM32F1xx_HAL_Driver/Inc/stm32f1xx_ll_dma.h ****   * @rmtoll ISR          GIF2          LL_DMA_IsActiveFlag_GI2
1154:Drivers/STM32F1xx_HAL_Driver/Inc/stm32f1xx_ll_dma.h ****   * @param  DMAx DMAx Instance
1155:Drivers/STM32F1xx_HAL_Driver/Inc/stm32f1xx_ll_dma.h ****   * @retval State of bit (1 or 0).
1156:Drivers/STM32F1xx_HAL_Driver/Inc/stm32f1xx_ll_dma.h ****   */
1157:Drivers/STM32F1xx_HAL_Driver/Inc/stm32f1xx_ll_dma.h **** __STATIC_INLINE uint32_t LL_DMA_IsActiveFlag_GI2(DMA_TypeDef *DMAx)
1158:Drivers/STM32F1xx_HAL_Driver/Inc/stm32f1xx_ll_dma.h **** {
1159:Drivers/STM32F1xx_HAL_Driver/Inc/stm32f1xx_ll_dma.h ****   return (READ_BIT(DMAx->ISR, DMA_ISR_GIF2) == (DMA_ISR_GIF2));
1160:Drivers/STM32F1xx_HAL_Driver/Inc/stm32f1xx_ll_dma.h **** }
1161:Drivers/STM32F1xx_HAL_Driver/Inc/stm32f1xx_ll_dma.h **** 
1162:Drivers/STM32F1xx_HAL_Driver/Inc/stm32f1xx_ll_dma.h **** /**
1163:Drivers/STM32F1xx_HAL_Driver/Inc/stm32f1xx_ll_dma.h ****   * @brief  Get Channel 3 global interrupt flag.
1164:Drivers/STM32F1xx_HAL_Driver/Inc/stm32f1xx_ll_dma.h ****   * @rmtoll ISR          GIF3          LL_DMA_IsActiveFlag_GI3
1165:Drivers/STM32F1xx_HAL_Driver/Inc/stm32f1xx_ll_dma.h ****   * @param  DMAx DMAx Instance
1166:Drivers/STM32F1xx_HAL_Driver/Inc/stm32f1xx_ll_dma.h ****   * @retval State of bit (1 or 0).
1167:Drivers/STM32F1xx_HAL_Driver/Inc/stm32f1xx_ll_dma.h ****   */
1168:Drivers/STM32F1xx_HAL_Driver/Inc/stm32f1xx_ll_dma.h **** __STATIC_INLINE uint32_t LL_DMA_IsActiveFlag_GI3(DMA_TypeDef *DMAx)
1169:Drivers/STM32F1xx_HAL_Driver/Inc/stm32f1xx_ll_dma.h **** {
1170:Drivers/STM32F1xx_HAL_Driver/Inc/stm32f1xx_ll_dma.h ****   return (READ_BIT(DMAx->ISR, DMA_ISR_GIF3) == (DMA_ISR_GIF3));
1171:Drivers/STM32F1xx_HAL_Driver/Inc/stm32f1xx_ll_dma.h **** }
1172:Drivers/STM32F1xx_HAL_Driver/Inc/stm32f1xx_ll_dma.h **** 
1173:Drivers/STM32F1xx_HAL_Driver/Inc/stm32f1xx_ll_dma.h **** /**
1174:Drivers/STM32F1xx_HAL_Driver/Inc/stm32f1xx_ll_dma.h ****   * @brief  Get Channel 4 global interrupt flag.
1175:Drivers/STM32F1xx_HAL_Driver/Inc/stm32f1xx_ll_dma.h ****   * @rmtoll ISR          GIF4          LL_DMA_IsActiveFlag_GI4
1176:Drivers/STM32F1xx_HAL_Driver/Inc/stm32f1xx_ll_dma.h ****   * @param  DMAx DMAx Instance
1177:Drivers/STM32F1xx_HAL_Driver/Inc/stm32f1xx_ll_dma.h ****   * @retval State of bit (1 or 0).
1178:Drivers/STM32F1xx_HAL_Driver/Inc/stm32f1xx_ll_dma.h ****   */
1179:Drivers/STM32F1xx_HAL_Driver/Inc/stm32f1xx_ll_dma.h **** __STATIC_INLINE uint32_t LL_DMA_IsActiveFlag_GI4(DMA_TypeDef *DMAx)
1180:Drivers/STM32F1xx_HAL_Driver/Inc/stm32f1xx_ll_dma.h **** {
1181:Drivers/STM32F1xx_HAL_Driver/Inc/stm32f1xx_ll_dma.h ****   return (READ_BIT(DMAx->ISR, DMA_ISR_GIF4) == (DMA_ISR_GIF4));
1182:Drivers/STM32F1xx_HAL_Driver/Inc/stm32f1xx_ll_dma.h **** }
1183:Drivers/STM32F1xx_HAL_Driver/Inc/stm32f1xx_ll_dma.h **** 
1184:Drivers/STM32F1xx_HAL_Driver/Inc/stm32f1xx_ll_dma.h **** /**
1185:Drivers/STM32F1xx_HAL_Driver/Inc/stm32f1xx_ll_dma.h ****   * @brief  Get Channel 5 global interrupt flag.
1186:Drivers/STM32F1xx_HAL_Driver/Inc/stm32f1xx_ll_dma.h ****   * @rmtoll ISR          GIF5          LL_DMA_IsActiveFlag_GI5
1187:Drivers/STM32F1xx_HAL_Driver/Inc/stm32f1xx_ll_dma.h ****   * @param  DMAx DMAx Instance
1188:Drivers/STM32F1xx_HAL_Driver/Inc/stm32f1xx_ll_dma.h ****   * @retval State of bit (1 or 0).
1189:Drivers/STM32F1xx_HAL_Driver/Inc/stm32f1xx_ll_dma.h ****   */
1190:Drivers/STM32F1xx_HAL_Driver/Inc/stm32f1xx_ll_dma.h **** __STATIC_INLINE uint32_t LL_DMA_IsActiveFlag_GI5(DMA_TypeDef *DMAx)
1191:Drivers/STM32F1xx_HAL_Driver/Inc/stm32f1xx_ll_dma.h **** {
1192:Drivers/STM32F1xx_HAL_Driver/Inc/stm32f1xx_ll_dma.h ****   return (READ_BIT(DMAx->ISR, DMA_ISR_GIF5) == (DMA_ISR_GIF5));
1193:Drivers/STM32F1xx_HAL_Driver/Inc/stm32f1xx_ll_dma.h **** }
1194:Drivers/STM32F1xx_HAL_Driver/Inc/stm32f1xx_ll_dma.h **** 
1195:Drivers/STM32F1xx_HAL_Driver/Inc/stm32f1xx_ll_dma.h **** /**
1196:Drivers/STM32F1xx_HAL_Driver/Inc/stm32f1xx_ll_dma.h ****   * @brief  Get Channel 6 global interrupt flag.
1197:Drivers/STM32F1xx_HAL_Driver/Inc/stm32f1xx_ll_dma.h ****   * @rmtoll ISR          GIF6          LL_DMA_IsActiveFlag_GI6
1198:Drivers/STM32F1xx_HAL_Driver/Inc/stm32f1xx_ll_dma.h ****   * @param  DMAx DMAx Instance
1199:Drivers/STM32F1xx_HAL_Driver/Inc/stm32f1xx_ll_dma.h ****   * @retval State of bit (1 or 0).
ARM GAS  /tmp/ccwUacce.s 			page 27


1200:Drivers/STM32F1xx_HAL_Driver/Inc/stm32f1xx_ll_dma.h ****   */
1201:Drivers/STM32F1xx_HAL_Driver/Inc/stm32f1xx_ll_dma.h **** __STATIC_INLINE uint32_t LL_DMA_IsActiveFlag_GI6(DMA_TypeDef *DMAx)
1202:Drivers/STM32F1xx_HAL_Driver/Inc/stm32f1xx_ll_dma.h **** {
1203:Drivers/STM32F1xx_HAL_Driver/Inc/stm32f1xx_ll_dma.h ****   return (READ_BIT(DMAx->ISR, DMA_ISR_GIF6) == (DMA_ISR_GIF6));
1204:Drivers/STM32F1xx_HAL_Driver/Inc/stm32f1xx_ll_dma.h **** }
1205:Drivers/STM32F1xx_HAL_Driver/Inc/stm32f1xx_ll_dma.h **** 
1206:Drivers/STM32F1xx_HAL_Driver/Inc/stm32f1xx_ll_dma.h **** /**
1207:Drivers/STM32F1xx_HAL_Driver/Inc/stm32f1xx_ll_dma.h ****   * @brief  Get Channel 7 global interrupt flag.
1208:Drivers/STM32F1xx_HAL_Driver/Inc/stm32f1xx_ll_dma.h ****   * @rmtoll ISR          GIF7          LL_DMA_IsActiveFlag_GI7
1209:Drivers/STM32F1xx_HAL_Driver/Inc/stm32f1xx_ll_dma.h ****   * @param  DMAx DMAx Instance
1210:Drivers/STM32F1xx_HAL_Driver/Inc/stm32f1xx_ll_dma.h ****   * @retval State of bit (1 or 0).
1211:Drivers/STM32F1xx_HAL_Driver/Inc/stm32f1xx_ll_dma.h ****   */
1212:Drivers/STM32F1xx_HAL_Driver/Inc/stm32f1xx_ll_dma.h **** __STATIC_INLINE uint32_t LL_DMA_IsActiveFlag_GI7(DMA_TypeDef *DMAx)
1213:Drivers/STM32F1xx_HAL_Driver/Inc/stm32f1xx_ll_dma.h **** {
1214:Drivers/STM32F1xx_HAL_Driver/Inc/stm32f1xx_ll_dma.h ****   return (READ_BIT(DMAx->ISR, DMA_ISR_GIF7) == (DMA_ISR_GIF7));
1215:Drivers/STM32F1xx_HAL_Driver/Inc/stm32f1xx_ll_dma.h **** }
1216:Drivers/STM32F1xx_HAL_Driver/Inc/stm32f1xx_ll_dma.h **** 
1217:Drivers/STM32F1xx_HAL_Driver/Inc/stm32f1xx_ll_dma.h **** /**
1218:Drivers/STM32F1xx_HAL_Driver/Inc/stm32f1xx_ll_dma.h ****   * @brief  Get Channel 1 transfer complete flag.
1219:Drivers/STM32F1xx_HAL_Driver/Inc/stm32f1xx_ll_dma.h ****   * @rmtoll ISR          TCIF1         LL_DMA_IsActiveFlag_TC1
1220:Drivers/STM32F1xx_HAL_Driver/Inc/stm32f1xx_ll_dma.h ****   * @param  DMAx DMAx Instance
1221:Drivers/STM32F1xx_HAL_Driver/Inc/stm32f1xx_ll_dma.h ****   * @retval State of bit (1 or 0).
1222:Drivers/STM32F1xx_HAL_Driver/Inc/stm32f1xx_ll_dma.h ****   */
1223:Drivers/STM32F1xx_HAL_Driver/Inc/stm32f1xx_ll_dma.h **** __STATIC_INLINE uint32_t LL_DMA_IsActiveFlag_TC1(DMA_TypeDef *DMAx)
1224:Drivers/STM32F1xx_HAL_Driver/Inc/stm32f1xx_ll_dma.h **** {
1225:Drivers/STM32F1xx_HAL_Driver/Inc/stm32f1xx_ll_dma.h ****   return (READ_BIT(DMAx->ISR, DMA_ISR_TCIF1) == (DMA_ISR_TCIF1));
1226:Drivers/STM32F1xx_HAL_Driver/Inc/stm32f1xx_ll_dma.h **** }
1227:Drivers/STM32F1xx_HAL_Driver/Inc/stm32f1xx_ll_dma.h **** 
1228:Drivers/STM32F1xx_HAL_Driver/Inc/stm32f1xx_ll_dma.h **** /**
1229:Drivers/STM32F1xx_HAL_Driver/Inc/stm32f1xx_ll_dma.h ****   * @brief  Get Channel 2 transfer complete flag.
1230:Drivers/STM32F1xx_HAL_Driver/Inc/stm32f1xx_ll_dma.h ****   * @rmtoll ISR          TCIF2         LL_DMA_IsActiveFlag_TC2
1231:Drivers/STM32F1xx_HAL_Driver/Inc/stm32f1xx_ll_dma.h ****   * @param  DMAx DMAx Instance
1232:Drivers/STM32F1xx_HAL_Driver/Inc/stm32f1xx_ll_dma.h ****   * @retval State of bit (1 or 0).
1233:Drivers/STM32F1xx_HAL_Driver/Inc/stm32f1xx_ll_dma.h ****   */
1234:Drivers/STM32F1xx_HAL_Driver/Inc/stm32f1xx_ll_dma.h **** __STATIC_INLINE uint32_t LL_DMA_IsActiveFlag_TC2(DMA_TypeDef *DMAx)
1235:Drivers/STM32F1xx_HAL_Driver/Inc/stm32f1xx_ll_dma.h **** {
1236:Drivers/STM32F1xx_HAL_Driver/Inc/stm32f1xx_ll_dma.h ****   return (READ_BIT(DMAx->ISR, DMA_ISR_TCIF2) == (DMA_ISR_TCIF2));
1237:Drivers/STM32F1xx_HAL_Driver/Inc/stm32f1xx_ll_dma.h **** }
1238:Drivers/STM32F1xx_HAL_Driver/Inc/stm32f1xx_ll_dma.h **** 
1239:Drivers/STM32F1xx_HAL_Driver/Inc/stm32f1xx_ll_dma.h **** /**
1240:Drivers/STM32F1xx_HAL_Driver/Inc/stm32f1xx_ll_dma.h ****   * @brief  Get Channel 3 transfer complete flag.
1241:Drivers/STM32F1xx_HAL_Driver/Inc/stm32f1xx_ll_dma.h ****   * @rmtoll ISR          TCIF3         LL_DMA_IsActiveFlag_TC3
1242:Drivers/STM32F1xx_HAL_Driver/Inc/stm32f1xx_ll_dma.h ****   * @param  DMAx DMAx Instance
1243:Drivers/STM32F1xx_HAL_Driver/Inc/stm32f1xx_ll_dma.h ****   * @retval State of bit (1 or 0).
1244:Drivers/STM32F1xx_HAL_Driver/Inc/stm32f1xx_ll_dma.h ****   */
1245:Drivers/STM32F1xx_HAL_Driver/Inc/stm32f1xx_ll_dma.h **** __STATIC_INLINE uint32_t LL_DMA_IsActiveFlag_TC3(DMA_TypeDef *DMAx)
1246:Drivers/STM32F1xx_HAL_Driver/Inc/stm32f1xx_ll_dma.h **** {
1247:Drivers/STM32F1xx_HAL_Driver/Inc/stm32f1xx_ll_dma.h ****   return (READ_BIT(DMAx->ISR, DMA_ISR_TCIF3) == (DMA_ISR_TCIF3));
1248:Drivers/STM32F1xx_HAL_Driver/Inc/stm32f1xx_ll_dma.h **** }
1249:Drivers/STM32F1xx_HAL_Driver/Inc/stm32f1xx_ll_dma.h **** 
1250:Drivers/STM32F1xx_HAL_Driver/Inc/stm32f1xx_ll_dma.h **** /**
1251:Drivers/STM32F1xx_HAL_Driver/Inc/stm32f1xx_ll_dma.h ****   * @brief  Get Channel 4 transfer complete flag.
1252:Drivers/STM32F1xx_HAL_Driver/Inc/stm32f1xx_ll_dma.h ****   * @rmtoll ISR          TCIF4         LL_DMA_IsActiveFlag_TC4
1253:Drivers/STM32F1xx_HAL_Driver/Inc/stm32f1xx_ll_dma.h ****   * @param  DMAx DMAx Instance
1254:Drivers/STM32F1xx_HAL_Driver/Inc/stm32f1xx_ll_dma.h ****   * @retval State of bit (1 or 0).
1255:Drivers/STM32F1xx_HAL_Driver/Inc/stm32f1xx_ll_dma.h ****   */
1256:Drivers/STM32F1xx_HAL_Driver/Inc/stm32f1xx_ll_dma.h **** __STATIC_INLINE uint32_t LL_DMA_IsActiveFlag_TC4(DMA_TypeDef *DMAx)
ARM GAS  /tmp/ccwUacce.s 			page 28


1257:Drivers/STM32F1xx_HAL_Driver/Inc/stm32f1xx_ll_dma.h **** {
1258:Drivers/STM32F1xx_HAL_Driver/Inc/stm32f1xx_ll_dma.h ****   return (READ_BIT(DMAx->ISR, DMA_ISR_TCIF4) == (DMA_ISR_TCIF4));
1259:Drivers/STM32F1xx_HAL_Driver/Inc/stm32f1xx_ll_dma.h **** }
1260:Drivers/STM32F1xx_HAL_Driver/Inc/stm32f1xx_ll_dma.h **** 
1261:Drivers/STM32F1xx_HAL_Driver/Inc/stm32f1xx_ll_dma.h **** /**
1262:Drivers/STM32F1xx_HAL_Driver/Inc/stm32f1xx_ll_dma.h ****   * @brief  Get Channel 5 transfer complete flag.
1263:Drivers/STM32F1xx_HAL_Driver/Inc/stm32f1xx_ll_dma.h ****   * @rmtoll ISR          TCIF5         LL_DMA_IsActiveFlag_TC5
1264:Drivers/STM32F1xx_HAL_Driver/Inc/stm32f1xx_ll_dma.h ****   * @param  DMAx DMAx Instance
1265:Drivers/STM32F1xx_HAL_Driver/Inc/stm32f1xx_ll_dma.h ****   * @retval State of bit (1 or 0).
1266:Drivers/STM32F1xx_HAL_Driver/Inc/stm32f1xx_ll_dma.h ****   */
1267:Drivers/STM32F1xx_HAL_Driver/Inc/stm32f1xx_ll_dma.h **** __STATIC_INLINE uint32_t LL_DMA_IsActiveFlag_TC5(DMA_TypeDef *DMAx)
1268:Drivers/STM32F1xx_HAL_Driver/Inc/stm32f1xx_ll_dma.h **** {
1269:Drivers/STM32F1xx_HAL_Driver/Inc/stm32f1xx_ll_dma.h ****   return (READ_BIT(DMAx->ISR, DMA_ISR_TCIF5) == (DMA_ISR_TCIF5));
1270:Drivers/STM32F1xx_HAL_Driver/Inc/stm32f1xx_ll_dma.h **** }
1271:Drivers/STM32F1xx_HAL_Driver/Inc/stm32f1xx_ll_dma.h **** 
1272:Drivers/STM32F1xx_HAL_Driver/Inc/stm32f1xx_ll_dma.h **** /**
1273:Drivers/STM32F1xx_HAL_Driver/Inc/stm32f1xx_ll_dma.h ****   * @brief  Get Channel 6 transfer complete flag.
1274:Drivers/STM32F1xx_HAL_Driver/Inc/stm32f1xx_ll_dma.h ****   * @rmtoll ISR          TCIF6         LL_DMA_IsActiveFlag_TC6
1275:Drivers/STM32F1xx_HAL_Driver/Inc/stm32f1xx_ll_dma.h ****   * @param  DMAx DMAx Instance
1276:Drivers/STM32F1xx_HAL_Driver/Inc/stm32f1xx_ll_dma.h ****   * @retval State of bit (1 or 0).
1277:Drivers/STM32F1xx_HAL_Driver/Inc/stm32f1xx_ll_dma.h ****   */
1278:Drivers/STM32F1xx_HAL_Driver/Inc/stm32f1xx_ll_dma.h **** __STATIC_INLINE uint32_t LL_DMA_IsActiveFlag_TC6(DMA_TypeDef *DMAx)
1279:Drivers/STM32F1xx_HAL_Driver/Inc/stm32f1xx_ll_dma.h **** {
1280:Drivers/STM32F1xx_HAL_Driver/Inc/stm32f1xx_ll_dma.h ****   return (READ_BIT(DMAx->ISR, DMA_ISR_TCIF6) == (DMA_ISR_TCIF6));
1281:Drivers/STM32F1xx_HAL_Driver/Inc/stm32f1xx_ll_dma.h **** }
1282:Drivers/STM32F1xx_HAL_Driver/Inc/stm32f1xx_ll_dma.h **** 
1283:Drivers/STM32F1xx_HAL_Driver/Inc/stm32f1xx_ll_dma.h **** /**
1284:Drivers/STM32F1xx_HAL_Driver/Inc/stm32f1xx_ll_dma.h ****   * @brief  Get Channel 7 transfer complete flag.
1285:Drivers/STM32F1xx_HAL_Driver/Inc/stm32f1xx_ll_dma.h ****   * @rmtoll ISR          TCIF7         LL_DMA_IsActiveFlag_TC7
1286:Drivers/STM32F1xx_HAL_Driver/Inc/stm32f1xx_ll_dma.h ****   * @param  DMAx DMAx Instance
1287:Drivers/STM32F1xx_HAL_Driver/Inc/stm32f1xx_ll_dma.h ****   * @retval State of bit (1 or 0).
1288:Drivers/STM32F1xx_HAL_Driver/Inc/stm32f1xx_ll_dma.h ****   */
1289:Drivers/STM32F1xx_HAL_Driver/Inc/stm32f1xx_ll_dma.h **** __STATIC_INLINE uint32_t LL_DMA_IsActiveFlag_TC7(DMA_TypeDef *DMAx)
1290:Drivers/STM32F1xx_HAL_Driver/Inc/stm32f1xx_ll_dma.h **** {
1291:Drivers/STM32F1xx_HAL_Driver/Inc/stm32f1xx_ll_dma.h ****   return (READ_BIT(DMAx->ISR, DMA_ISR_TCIF7) == (DMA_ISR_TCIF7));
1292:Drivers/STM32F1xx_HAL_Driver/Inc/stm32f1xx_ll_dma.h **** }
1293:Drivers/STM32F1xx_HAL_Driver/Inc/stm32f1xx_ll_dma.h **** 
1294:Drivers/STM32F1xx_HAL_Driver/Inc/stm32f1xx_ll_dma.h **** /**
1295:Drivers/STM32F1xx_HAL_Driver/Inc/stm32f1xx_ll_dma.h ****   * @brief  Get Channel 1 half transfer flag.
1296:Drivers/STM32F1xx_HAL_Driver/Inc/stm32f1xx_ll_dma.h ****   * @rmtoll ISR          HTIF1         LL_DMA_IsActiveFlag_HT1
1297:Drivers/STM32F1xx_HAL_Driver/Inc/stm32f1xx_ll_dma.h ****   * @param  DMAx DMAx Instance
1298:Drivers/STM32F1xx_HAL_Driver/Inc/stm32f1xx_ll_dma.h ****   * @retval State of bit (1 or 0).
1299:Drivers/STM32F1xx_HAL_Driver/Inc/stm32f1xx_ll_dma.h ****   */
1300:Drivers/STM32F1xx_HAL_Driver/Inc/stm32f1xx_ll_dma.h **** __STATIC_INLINE uint32_t LL_DMA_IsActiveFlag_HT1(DMA_TypeDef *DMAx)
1301:Drivers/STM32F1xx_HAL_Driver/Inc/stm32f1xx_ll_dma.h **** {
1302:Drivers/STM32F1xx_HAL_Driver/Inc/stm32f1xx_ll_dma.h ****   return (READ_BIT(DMAx->ISR, DMA_ISR_HTIF1) == (DMA_ISR_HTIF1));
1303:Drivers/STM32F1xx_HAL_Driver/Inc/stm32f1xx_ll_dma.h **** }
1304:Drivers/STM32F1xx_HAL_Driver/Inc/stm32f1xx_ll_dma.h **** 
1305:Drivers/STM32F1xx_HAL_Driver/Inc/stm32f1xx_ll_dma.h **** /**
1306:Drivers/STM32F1xx_HAL_Driver/Inc/stm32f1xx_ll_dma.h ****   * @brief  Get Channel 2 half transfer flag.
1307:Drivers/STM32F1xx_HAL_Driver/Inc/stm32f1xx_ll_dma.h ****   * @rmtoll ISR          HTIF2         LL_DMA_IsActiveFlag_HT2
1308:Drivers/STM32F1xx_HAL_Driver/Inc/stm32f1xx_ll_dma.h ****   * @param  DMAx DMAx Instance
1309:Drivers/STM32F1xx_HAL_Driver/Inc/stm32f1xx_ll_dma.h ****   * @retval State of bit (1 or 0).
1310:Drivers/STM32F1xx_HAL_Driver/Inc/stm32f1xx_ll_dma.h ****   */
1311:Drivers/STM32F1xx_HAL_Driver/Inc/stm32f1xx_ll_dma.h **** __STATIC_INLINE uint32_t LL_DMA_IsActiveFlag_HT2(DMA_TypeDef *DMAx)
1312:Drivers/STM32F1xx_HAL_Driver/Inc/stm32f1xx_ll_dma.h **** {
1313:Drivers/STM32F1xx_HAL_Driver/Inc/stm32f1xx_ll_dma.h ****   return (READ_BIT(DMAx->ISR, DMA_ISR_HTIF2) == (DMA_ISR_HTIF2));
ARM GAS  /tmp/ccwUacce.s 			page 29


1314:Drivers/STM32F1xx_HAL_Driver/Inc/stm32f1xx_ll_dma.h **** }
1315:Drivers/STM32F1xx_HAL_Driver/Inc/stm32f1xx_ll_dma.h **** 
1316:Drivers/STM32F1xx_HAL_Driver/Inc/stm32f1xx_ll_dma.h **** /**
1317:Drivers/STM32F1xx_HAL_Driver/Inc/stm32f1xx_ll_dma.h ****   * @brief  Get Channel 3 half transfer flag.
1318:Drivers/STM32F1xx_HAL_Driver/Inc/stm32f1xx_ll_dma.h ****   * @rmtoll ISR          HTIF3         LL_DMA_IsActiveFlag_HT3
1319:Drivers/STM32F1xx_HAL_Driver/Inc/stm32f1xx_ll_dma.h ****   * @param  DMAx DMAx Instance
1320:Drivers/STM32F1xx_HAL_Driver/Inc/stm32f1xx_ll_dma.h ****   * @retval State of bit (1 or 0).
1321:Drivers/STM32F1xx_HAL_Driver/Inc/stm32f1xx_ll_dma.h ****   */
1322:Drivers/STM32F1xx_HAL_Driver/Inc/stm32f1xx_ll_dma.h **** __STATIC_INLINE uint32_t LL_DMA_IsActiveFlag_HT3(DMA_TypeDef *DMAx)
1323:Drivers/STM32F1xx_HAL_Driver/Inc/stm32f1xx_ll_dma.h **** {
1324:Drivers/STM32F1xx_HAL_Driver/Inc/stm32f1xx_ll_dma.h ****   return (READ_BIT(DMAx->ISR, DMA_ISR_HTIF3) == (DMA_ISR_HTIF3));
1325:Drivers/STM32F1xx_HAL_Driver/Inc/stm32f1xx_ll_dma.h **** }
1326:Drivers/STM32F1xx_HAL_Driver/Inc/stm32f1xx_ll_dma.h **** 
1327:Drivers/STM32F1xx_HAL_Driver/Inc/stm32f1xx_ll_dma.h **** /**
1328:Drivers/STM32F1xx_HAL_Driver/Inc/stm32f1xx_ll_dma.h ****   * @brief  Get Channel 4 half transfer flag.
1329:Drivers/STM32F1xx_HAL_Driver/Inc/stm32f1xx_ll_dma.h ****   * @rmtoll ISR          HTIF4         LL_DMA_IsActiveFlag_HT4
1330:Drivers/STM32F1xx_HAL_Driver/Inc/stm32f1xx_ll_dma.h ****   * @param  DMAx DMAx Instance
1331:Drivers/STM32F1xx_HAL_Driver/Inc/stm32f1xx_ll_dma.h ****   * @retval State of bit (1 or 0).
1332:Drivers/STM32F1xx_HAL_Driver/Inc/stm32f1xx_ll_dma.h ****   */
1333:Drivers/STM32F1xx_HAL_Driver/Inc/stm32f1xx_ll_dma.h **** __STATIC_INLINE uint32_t LL_DMA_IsActiveFlag_HT4(DMA_TypeDef *DMAx)
1334:Drivers/STM32F1xx_HAL_Driver/Inc/stm32f1xx_ll_dma.h **** {
1335:Drivers/STM32F1xx_HAL_Driver/Inc/stm32f1xx_ll_dma.h ****   return (READ_BIT(DMAx->ISR, DMA_ISR_HTIF4) == (DMA_ISR_HTIF4));
1336:Drivers/STM32F1xx_HAL_Driver/Inc/stm32f1xx_ll_dma.h **** }
1337:Drivers/STM32F1xx_HAL_Driver/Inc/stm32f1xx_ll_dma.h **** 
1338:Drivers/STM32F1xx_HAL_Driver/Inc/stm32f1xx_ll_dma.h **** /**
1339:Drivers/STM32F1xx_HAL_Driver/Inc/stm32f1xx_ll_dma.h ****   * @brief  Get Channel 5 half transfer flag.
1340:Drivers/STM32F1xx_HAL_Driver/Inc/stm32f1xx_ll_dma.h ****   * @rmtoll ISR          HTIF5         LL_DMA_IsActiveFlag_HT5
1341:Drivers/STM32F1xx_HAL_Driver/Inc/stm32f1xx_ll_dma.h ****   * @param  DMAx DMAx Instance
1342:Drivers/STM32F1xx_HAL_Driver/Inc/stm32f1xx_ll_dma.h ****   * @retval State of bit (1 or 0).
1343:Drivers/STM32F1xx_HAL_Driver/Inc/stm32f1xx_ll_dma.h ****   */
1344:Drivers/STM32F1xx_HAL_Driver/Inc/stm32f1xx_ll_dma.h **** __STATIC_INLINE uint32_t LL_DMA_IsActiveFlag_HT5(DMA_TypeDef *DMAx)
1345:Drivers/STM32F1xx_HAL_Driver/Inc/stm32f1xx_ll_dma.h **** {
1346:Drivers/STM32F1xx_HAL_Driver/Inc/stm32f1xx_ll_dma.h ****   return (READ_BIT(DMAx->ISR, DMA_ISR_HTIF5) == (DMA_ISR_HTIF5));
1347:Drivers/STM32F1xx_HAL_Driver/Inc/stm32f1xx_ll_dma.h **** }
1348:Drivers/STM32F1xx_HAL_Driver/Inc/stm32f1xx_ll_dma.h **** 
1349:Drivers/STM32F1xx_HAL_Driver/Inc/stm32f1xx_ll_dma.h **** /**
1350:Drivers/STM32F1xx_HAL_Driver/Inc/stm32f1xx_ll_dma.h ****   * @brief  Get Channel 6 half transfer flag.
1351:Drivers/STM32F1xx_HAL_Driver/Inc/stm32f1xx_ll_dma.h ****   * @rmtoll ISR          HTIF6         LL_DMA_IsActiveFlag_HT6
1352:Drivers/STM32F1xx_HAL_Driver/Inc/stm32f1xx_ll_dma.h ****   * @param  DMAx DMAx Instance
1353:Drivers/STM32F1xx_HAL_Driver/Inc/stm32f1xx_ll_dma.h ****   * @retval State of bit (1 or 0).
1354:Drivers/STM32F1xx_HAL_Driver/Inc/stm32f1xx_ll_dma.h ****   */
1355:Drivers/STM32F1xx_HAL_Driver/Inc/stm32f1xx_ll_dma.h **** __STATIC_INLINE uint32_t LL_DMA_IsActiveFlag_HT6(DMA_TypeDef *DMAx)
1356:Drivers/STM32F1xx_HAL_Driver/Inc/stm32f1xx_ll_dma.h **** {
1357:Drivers/STM32F1xx_HAL_Driver/Inc/stm32f1xx_ll_dma.h ****   return (READ_BIT(DMAx->ISR, DMA_ISR_HTIF6) == (DMA_ISR_HTIF6));
1358:Drivers/STM32F1xx_HAL_Driver/Inc/stm32f1xx_ll_dma.h **** }
1359:Drivers/STM32F1xx_HAL_Driver/Inc/stm32f1xx_ll_dma.h **** 
1360:Drivers/STM32F1xx_HAL_Driver/Inc/stm32f1xx_ll_dma.h **** /**
1361:Drivers/STM32F1xx_HAL_Driver/Inc/stm32f1xx_ll_dma.h ****   * @brief  Get Channel 7 half transfer flag.
1362:Drivers/STM32F1xx_HAL_Driver/Inc/stm32f1xx_ll_dma.h ****   * @rmtoll ISR          HTIF7         LL_DMA_IsActiveFlag_HT7
1363:Drivers/STM32F1xx_HAL_Driver/Inc/stm32f1xx_ll_dma.h ****   * @param  DMAx DMAx Instance
1364:Drivers/STM32F1xx_HAL_Driver/Inc/stm32f1xx_ll_dma.h ****   * @retval State of bit (1 or 0).
1365:Drivers/STM32F1xx_HAL_Driver/Inc/stm32f1xx_ll_dma.h ****   */
1366:Drivers/STM32F1xx_HAL_Driver/Inc/stm32f1xx_ll_dma.h **** __STATIC_INLINE uint32_t LL_DMA_IsActiveFlag_HT7(DMA_TypeDef *DMAx)
1367:Drivers/STM32F1xx_HAL_Driver/Inc/stm32f1xx_ll_dma.h **** {
1368:Drivers/STM32F1xx_HAL_Driver/Inc/stm32f1xx_ll_dma.h ****   return (READ_BIT(DMAx->ISR, DMA_ISR_HTIF7) == (DMA_ISR_HTIF7));
1369:Drivers/STM32F1xx_HAL_Driver/Inc/stm32f1xx_ll_dma.h **** }
1370:Drivers/STM32F1xx_HAL_Driver/Inc/stm32f1xx_ll_dma.h **** 
ARM GAS  /tmp/ccwUacce.s 			page 30


1371:Drivers/STM32F1xx_HAL_Driver/Inc/stm32f1xx_ll_dma.h **** /**
1372:Drivers/STM32F1xx_HAL_Driver/Inc/stm32f1xx_ll_dma.h ****   * @brief  Get Channel 1 transfer error flag.
1373:Drivers/STM32F1xx_HAL_Driver/Inc/stm32f1xx_ll_dma.h ****   * @rmtoll ISR          TEIF1         LL_DMA_IsActiveFlag_TE1
1374:Drivers/STM32F1xx_HAL_Driver/Inc/stm32f1xx_ll_dma.h ****   * @param  DMAx DMAx Instance
1375:Drivers/STM32F1xx_HAL_Driver/Inc/stm32f1xx_ll_dma.h ****   * @retval State of bit (1 or 0).
1376:Drivers/STM32F1xx_HAL_Driver/Inc/stm32f1xx_ll_dma.h ****   */
1377:Drivers/STM32F1xx_HAL_Driver/Inc/stm32f1xx_ll_dma.h **** __STATIC_INLINE uint32_t LL_DMA_IsActiveFlag_TE1(DMA_TypeDef *DMAx)
1378:Drivers/STM32F1xx_HAL_Driver/Inc/stm32f1xx_ll_dma.h **** {
1379:Drivers/STM32F1xx_HAL_Driver/Inc/stm32f1xx_ll_dma.h ****   return (READ_BIT(DMAx->ISR, DMA_ISR_TEIF1) == (DMA_ISR_TEIF1));
1380:Drivers/STM32F1xx_HAL_Driver/Inc/stm32f1xx_ll_dma.h **** }
1381:Drivers/STM32F1xx_HAL_Driver/Inc/stm32f1xx_ll_dma.h **** 
1382:Drivers/STM32F1xx_HAL_Driver/Inc/stm32f1xx_ll_dma.h **** /**
1383:Drivers/STM32F1xx_HAL_Driver/Inc/stm32f1xx_ll_dma.h ****   * @brief  Get Channel 2 transfer error flag.
1384:Drivers/STM32F1xx_HAL_Driver/Inc/stm32f1xx_ll_dma.h ****   * @rmtoll ISR          TEIF2         LL_DMA_IsActiveFlag_TE2
1385:Drivers/STM32F1xx_HAL_Driver/Inc/stm32f1xx_ll_dma.h ****   * @param  DMAx DMAx Instance
1386:Drivers/STM32F1xx_HAL_Driver/Inc/stm32f1xx_ll_dma.h ****   * @retval State of bit (1 or 0).
1387:Drivers/STM32F1xx_HAL_Driver/Inc/stm32f1xx_ll_dma.h ****   */
1388:Drivers/STM32F1xx_HAL_Driver/Inc/stm32f1xx_ll_dma.h **** __STATIC_INLINE uint32_t LL_DMA_IsActiveFlag_TE2(DMA_TypeDef *DMAx)
1389:Drivers/STM32F1xx_HAL_Driver/Inc/stm32f1xx_ll_dma.h **** {
1390:Drivers/STM32F1xx_HAL_Driver/Inc/stm32f1xx_ll_dma.h ****   return (READ_BIT(DMAx->ISR, DMA_ISR_TEIF2) == (DMA_ISR_TEIF2));
1391:Drivers/STM32F1xx_HAL_Driver/Inc/stm32f1xx_ll_dma.h **** }
1392:Drivers/STM32F1xx_HAL_Driver/Inc/stm32f1xx_ll_dma.h **** 
1393:Drivers/STM32F1xx_HAL_Driver/Inc/stm32f1xx_ll_dma.h **** /**
1394:Drivers/STM32F1xx_HAL_Driver/Inc/stm32f1xx_ll_dma.h ****   * @brief  Get Channel 3 transfer error flag.
1395:Drivers/STM32F1xx_HAL_Driver/Inc/stm32f1xx_ll_dma.h ****   * @rmtoll ISR          TEIF3         LL_DMA_IsActiveFlag_TE3
1396:Drivers/STM32F1xx_HAL_Driver/Inc/stm32f1xx_ll_dma.h ****   * @param  DMAx DMAx Instance
1397:Drivers/STM32F1xx_HAL_Driver/Inc/stm32f1xx_ll_dma.h ****   * @retval State of bit (1 or 0).
1398:Drivers/STM32F1xx_HAL_Driver/Inc/stm32f1xx_ll_dma.h ****   */
1399:Drivers/STM32F1xx_HAL_Driver/Inc/stm32f1xx_ll_dma.h **** __STATIC_INLINE uint32_t LL_DMA_IsActiveFlag_TE3(DMA_TypeDef *DMAx)
1400:Drivers/STM32F1xx_HAL_Driver/Inc/stm32f1xx_ll_dma.h **** {
1401:Drivers/STM32F1xx_HAL_Driver/Inc/stm32f1xx_ll_dma.h ****   return (READ_BIT(DMAx->ISR, DMA_ISR_TEIF3) == (DMA_ISR_TEIF3));
1402:Drivers/STM32F1xx_HAL_Driver/Inc/stm32f1xx_ll_dma.h **** }
1403:Drivers/STM32F1xx_HAL_Driver/Inc/stm32f1xx_ll_dma.h **** 
1404:Drivers/STM32F1xx_HAL_Driver/Inc/stm32f1xx_ll_dma.h **** /**
1405:Drivers/STM32F1xx_HAL_Driver/Inc/stm32f1xx_ll_dma.h ****   * @brief  Get Channel 4 transfer error flag.
1406:Drivers/STM32F1xx_HAL_Driver/Inc/stm32f1xx_ll_dma.h ****   * @rmtoll ISR          TEIF4         LL_DMA_IsActiveFlag_TE4
1407:Drivers/STM32F1xx_HAL_Driver/Inc/stm32f1xx_ll_dma.h ****   * @param  DMAx DMAx Instance
1408:Drivers/STM32F1xx_HAL_Driver/Inc/stm32f1xx_ll_dma.h ****   * @retval State of bit (1 or 0).
1409:Drivers/STM32F1xx_HAL_Driver/Inc/stm32f1xx_ll_dma.h ****   */
1410:Drivers/STM32F1xx_HAL_Driver/Inc/stm32f1xx_ll_dma.h **** __STATIC_INLINE uint32_t LL_DMA_IsActiveFlag_TE4(DMA_TypeDef *DMAx)
1411:Drivers/STM32F1xx_HAL_Driver/Inc/stm32f1xx_ll_dma.h **** {
1412:Drivers/STM32F1xx_HAL_Driver/Inc/stm32f1xx_ll_dma.h ****   return (READ_BIT(DMAx->ISR, DMA_ISR_TEIF4) == (DMA_ISR_TEIF4));
1413:Drivers/STM32F1xx_HAL_Driver/Inc/stm32f1xx_ll_dma.h **** }
1414:Drivers/STM32F1xx_HAL_Driver/Inc/stm32f1xx_ll_dma.h **** 
1415:Drivers/STM32F1xx_HAL_Driver/Inc/stm32f1xx_ll_dma.h **** /**
1416:Drivers/STM32F1xx_HAL_Driver/Inc/stm32f1xx_ll_dma.h ****   * @brief  Get Channel 5 transfer error flag.
1417:Drivers/STM32F1xx_HAL_Driver/Inc/stm32f1xx_ll_dma.h ****   * @rmtoll ISR          TEIF5         LL_DMA_IsActiveFlag_TE5
1418:Drivers/STM32F1xx_HAL_Driver/Inc/stm32f1xx_ll_dma.h ****   * @param  DMAx DMAx Instance
1419:Drivers/STM32F1xx_HAL_Driver/Inc/stm32f1xx_ll_dma.h ****   * @retval State of bit (1 or 0).
1420:Drivers/STM32F1xx_HAL_Driver/Inc/stm32f1xx_ll_dma.h ****   */
1421:Drivers/STM32F1xx_HAL_Driver/Inc/stm32f1xx_ll_dma.h **** __STATIC_INLINE uint32_t LL_DMA_IsActiveFlag_TE5(DMA_TypeDef *DMAx)
1422:Drivers/STM32F1xx_HAL_Driver/Inc/stm32f1xx_ll_dma.h **** {
1423:Drivers/STM32F1xx_HAL_Driver/Inc/stm32f1xx_ll_dma.h ****   return (READ_BIT(DMAx->ISR, DMA_ISR_TEIF5) == (DMA_ISR_TEIF5));
1424:Drivers/STM32F1xx_HAL_Driver/Inc/stm32f1xx_ll_dma.h **** }
1425:Drivers/STM32F1xx_HAL_Driver/Inc/stm32f1xx_ll_dma.h **** 
1426:Drivers/STM32F1xx_HAL_Driver/Inc/stm32f1xx_ll_dma.h **** /**
1427:Drivers/STM32F1xx_HAL_Driver/Inc/stm32f1xx_ll_dma.h ****   * @brief  Get Channel 6 transfer error flag.
ARM GAS  /tmp/ccwUacce.s 			page 31


1428:Drivers/STM32F1xx_HAL_Driver/Inc/stm32f1xx_ll_dma.h ****   * @rmtoll ISR          TEIF6         LL_DMA_IsActiveFlag_TE6
1429:Drivers/STM32F1xx_HAL_Driver/Inc/stm32f1xx_ll_dma.h ****   * @param  DMAx DMAx Instance
1430:Drivers/STM32F1xx_HAL_Driver/Inc/stm32f1xx_ll_dma.h ****   * @retval State of bit (1 or 0).
1431:Drivers/STM32F1xx_HAL_Driver/Inc/stm32f1xx_ll_dma.h ****   */
1432:Drivers/STM32F1xx_HAL_Driver/Inc/stm32f1xx_ll_dma.h **** __STATIC_INLINE uint32_t LL_DMA_IsActiveFlag_TE6(DMA_TypeDef *DMAx)
1433:Drivers/STM32F1xx_HAL_Driver/Inc/stm32f1xx_ll_dma.h **** {
1434:Drivers/STM32F1xx_HAL_Driver/Inc/stm32f1xx_ll_dma.h ****   return (READ_BIT(DMAx->ISR, DMA_ISR_TEIF6) == (DMA_ISR_TEIF6));
1435:Drivers/STM32F1xx_HAL_Driver/Inc/stm32f1xx_ll_dma.h **** }
1436:Drivers/STM32F1xx_HAL_Driver/Inc/stm32f1xx_ll_dma.h **** 
1437:Drivers/STM32F1xx_HAL_Driver/Inc/stm32f1xx_ll_dma.h **** /**
1438:Drivers/STM32F1xx_HAL_Driver/Inc/stm32f1xx_ll_dma.h ****   * @brief  Get Channel 7 transfer error flag.
1439:Drivers/STM32F1xx_HAL_Driver/Inc/stm32f1xx_ll_dma.h ****   * @rmtoll ISR          TEIF7         LL_DMA_IsActiveFlag_TE7
1440:Drivers/STM32F1xx_HAL_Driver/Inc/stm32f1xx_ll_dma.h ****   * @param  DMAx DMAx Instance
1441:Drivers/STM32F1xx_HAL_Driver/Inc/stm32f1xx_ll_dma.h ****   * @retval State of bit (1 or 0).
1442:Drivers/STM32F1xx_HAL_Driver/Inc/stm32f1xx_ll_dma.h ****   */
1443:Drivers/STM32F1xx_HAL_Driver/Inc/stm32f1xx_ll_dma.h **** __STATIC_INLINE uint32_t LL_DMA_IsActiveFlag_TE7(DMA_TypeDef *DMAx)
1444:Drivers/STM32F1xx_HAL_Driver/Inc/stm32f1xx_ll_dma.h **** {
1445:Drivers/STM32F1xx_HAL_Driver/Inc/stm32f1xx_ll_dma.h ****   return (READ_BIT(DMAx->ISR, DMA_ISR_TEIF7) == (DMA_ISR_TEIF7));
1446:Drivers/STM32F1xx_HAL_Driver/Inc/stm32f1xx_ll_dma.h **** }
1447:Drivers/STM32F1xx_HAL_Driver/Inc/stm32f1xx_ll_dma.h **** 
1448:Drivers/STM32F1xx_HAL_Driver/Inc/stm32f1xx_ll_dma.h **** /**
1449:Drivers/STM32F1xx_HAL_Driver/Inc/stm32f1xx_ll_dma.h ****   * @brief  Clear Channel 1 global interrupt flag.
1450:Drivers/STM32F1xx_HAL_Driver/Inc/stm32f1xx_ll_dma.h ****   * @rmtoll IFCR         CGIF1         LL_DMA_ClearFlag_GI1
1451:Drivers/STM32F1xx_HAL_Driver/Inc/stm32f1xx_ll_dma.h ****   * @param  DMAx DMAx Instance
1452:Drivers/STM32F1xx_HAL_Driver/Inc/stm32f1xx_ll_dma.h ****   * @retval None
1453:Drivers/STM32F1xx_HAL_Driver/Inc/stm32f1xx_ll_dma.h ****   */
1454:Drivers/STM32F1xx_HAL_Driver/Inc/stm32f1xx_ll_dma.h **** __STATIC_INLINE void LL_DMA_ClearFlag_GI1(DMA_TypeDef *DMAx)
1455:Drivers/STM32F1xx_HAL_Driver/Inc/stm32f1xx_ll_dma.h **** {
 295              		.loc 1 1455 0
 296              		.cfi_startproc
 297              		@ args = 0, pretend = 0, frame = 8
 298              		@ frame_needed = 1, uses_anonymous_args = 0
 299              		@ link register save eliminated.
 300 0000 80B4     		push	{r7}
 301              	.LCFI24:
 302              		.cfi_def_cfa_offset 4
 303              		.cfi_offset 7, -4
 304 0002 83B0     		sub	sp, sp, #12
 305              	.LCFI25:
 306              		.cfi_def_cfa_offset 16
 307 0004 00AF     		add	r7, sp, #0
 308              	.LCFI26:
 309              		.cfi_def_cfa_register 7
 310 0006 7860     		str	r0, [r7, #4]
1456:Drivers/STM32F1xx_HAL_Driver/Inc/stm32f1xx_ll_dma.h ****   WRITE_REG(DMAx->IFCR, DMA_IFCR_CGIF1);
 311              		.loc 1 1456 0
 312 0008 7B68     		ldr	r3, [r7, #4]
 313 000a 0122     		movs	r2, #1
 314 000c 5A60     		str	r2, [r3, #4]
1457:Drivers/STM32F1xx_HAL_Driver/Inc/stm32f1xx_ll_dma.h **** }
 315              		.loc 1 1457 0
 316 000e 00BF     		nop
 317 0010 0C37     		adds	r7, r7, #12
 318              	.LCFI27:
 319              		.cfi_def_cfa_offset 4
 320 0012 BD46     		mov	sp, r7
 321              	.LCFI28:
ARM GAS  /tmp/ccwUacce.s 			page 32


 322              		.cfi_def_cfa_register 13
 323              		@ sp needed
 324 0014 80BC     		pop	{r7}
 325              	.LCFI29:
 326              		.cfi_restore 7
 327              		.cfi_def_cfa_offset 0
 328 0016 7047     		bx	lr
 329              		.cfi_endproc
 330              	.LFE120:
 332              		.section	.text.LL_DMA_ClearFlag_GI2,"ax",%progbits
 333              		.align	1
 334              		.syntax unified
 335              		.thumb
 336              		.thumb_func
 337              		.fpu softvfp
 339              	LL_DMA_ClearFlag_GI2:
 340              	.LFB121:
1458:Drivers/STM32F1xx_HAL_Driver/Inc/stm32f1xx_ll_dma.h **** 
1459:Drivers/STM32F1xx_HAL_Driver/Inc/stm32f1xx_ll_dma.h **** /**
1460:Drivers/STM32F1xx_HAL_Driver/Inc/stm32f1xx_ll_dma.h ****   * @brief  Clear Channel 2 global interrupt flag.
1461:Drivers/STM32F1xx_HAL_Driver/Inc/stm32f1xx_ll_dma.h ****   * @rmtoll IFCR         CGIF2         LL_DMA_ClearFlag_GI2
1462:Drivers/STM32F1xx_HAL_Driver/Inc/stm32f1xx_ll_dma.h ****   * @param  DMAx DMAx Instance
1463:Drivers/STM32F1xx_HAL_Driver/Inc/stm32f1xx_ll_dma.h ****   * @retval None
1464:Drivers/STM32F1xx_HAL_Driver/Inc/stm32f1xx_ll_dma.h ****   */
1465:Drivers/STM32F1xx_HAL_Driver/Inc/stm32f1xx_ll_dma.h **** __STATIC_INLINE void LL_DMA_ClearFlag_GI2(DMA_TypeDef *DMAx)
1466:Drivers/STM32F1xx_HAL_Driver/Inc/stm32f1xx_ll_dma.h **** {
 341              		.loc 1 1466 0
 342              		.cfi_startproc
 343              		@ args = 0, pretend = 0, frame = 8
 344              		@ frame_needed = 1, uses_anonymous_args = 0
 345              		@ link register save eliminated.
 346 0000 80B4     		push	{r7}
 347              	.LCFI30:
 348              		.cfi_def_cfa_offset 4
 349              		.cfi_offset 7, -4
 350 0002 83B0     		sub	sp, sp, #12
 351              	.LCFI31:
 352              		.cfi_def_cfa_offset 16
 353 0004 00AF     		add	r7, sp, #0
 354              	.LCFI32:
 355              		.cfi_def_cfa_register 7
 356 0006 7860     		str	r0, [r7, #4]
1467:Drivers/STM32F1xx_HAL_Driver/Inc/stm32f1xx_ll_dma.h ****   WRITE_REG(DMAx->IFCR, DMA_IFCR_CGIF2);
 357              		.loc 1 1467 0
 358 0008 7B68     		ldr	r3, [r7, #4]
 359 000a 1022     		movs	r2, #16
 360 000c 5A60     		str	r2, [r3, #4]
1468:Drivers/STM32F1xx_HAL_Driver/Inc/stm32f1xx_ll_dma.h **** }
 361              		.loc 1 1468 0
 362 000e 00BF     		nop
 363 0010 0C37     		adds	r7, r7, #12
 364              	.LCFI33:
 365              		.cfi_def_cfa_offset 4
 366 0012 BD46     		mov	sp, r7
 367              	.LCFI34:
 368              		.cfi_def_cfa_register 13
 369              		@ sp needed
ARM GAS  /tmp/ccwUacce.s 			page 33


 370 0014 80BC     		pop	{r7}
 371              	.LCFI35:
 372              		.cfi_restore 7
 373              		.cfi_def_cfa_offset 0
 374 0016 7047     		bx	lr
 375              		.cfi_endproc
 376              	.LFE121:
 378              		.section	.text.LL_DMA_ClearFlag_GI3,"ax",%progbits
 379              		.align	1
 380              		.syntax unified
 381              		.thumb
 382              		.thumb_func
 383              		.fpu softvfp
 385              	LL_DMA_ClearFlag_GI3:
 386              	.LFB122:
1469:Drivers/STM32F1xx_HAL_Driver/Inc/stm32f1xx_ll_dma.h **** 
1470:Drivers/STM32F1xx_HAL_Driver/Inc/stm32f1xx_ll_dma.h **** /**
1471:Drivers/STM32F1xx_HAL_Driver/Inc/stm32f1xx_ll_dma.h ****   * @brief  Clear Channel 3 global interrupt flag.
1472:Drivers/STM32F1xx_HAL_Driver/Inc/stm32f1xx_ll_dma.h ****   * @rmtoll IFCR         CGIF3         LL_DMA_ClearFlag_GI3
1473:Drivers/STM32F1xx_HAL_Driver/Inc/stm32f1xx_ll_dma.h ****   * @param  DMAx DMAx Instance
1474:Drivers/STM32F1xx_HAL_Driver/Inc/stm32f1xx_ll_dma.h ****   * @retval None
1475:Drivers/STM32F1xx_HAL_Driver/Inc/stm32f1xx_ll_dma.h ****   */
1476:Drivers/STM32F1xx_HAL_Driver/Inc/stm32f1xx_ll_dma.h **** __STATIC_INLINE void LL_DMA_ClearFlag_GI3(DMA_TypeDef *DMAx)
1477:Drivers/STM32F1xx_HAL_Driver/Inc/stm32f1xx_ll_dma.h **** {
 387              		.loc 1 1477 0
 388              		.cfi_startproc
 389              		@ args = 0, pretend = 0, frame = 8
 390              		@ frame_needed = 1, uses_anonymous_args = 0
 391              		@ link register save eliminated.
 392 0000 80B4     		push	{r7}
 393              	.LCFI36:
 394              		.cfi_def_cfa_offset 4
 395              		.cfi_offset 7, -4
 396 0002 83B0     		sub	sp, sp, #12
 397              	.LCFI37:
 398              		.cfi_def_cfa_offset 16
 399 0004 00AF     		add	r7, sp, #0
 400              	.LCFI38:
 401              		.cfi_def_cfa_register 7
 402 0006 7860     		str	r0, [r7, #4]
1478:Drivers/STM32F1xx_HAL_Driver/Inc/stm32f1xx_ll_dma.h ****   WRITE_REG(DMAx->IFCR, DMA_IFCR_CGIF3);
 403              		.loc 1 1478 0
 404 0008 7B68     		ldr	r3, [r7, #4]
 405 000a 4FF48072 		mov	r2, #256
 406 000e 5A60     		str	r2, [r3, #4]
1479:Drivers/STM32F1xx_HAL_Driver/Inc/stm32f1xx_ll_dma.h **** }
 407              		.loc 1 1479 0
 408 0010 00BF     		nop
 409 0012 0C37     		adds	r7, r7, #12
 410              	.LCFI39:
 411              		.cfi_def_cfa_offset 4
 412 0014 BD46     		mov	sp, r7
 413              	.LCFI40:
 414              		.cfi_def_cfa_register 13
 415              		@ sp needed
 416 0016 80BC     		pop	{r7}
 417              	.LCFI41:
ARM GAS  /tmp/ccwUacce.s 			page 34


 418              		.cfi_restore 7
 419              		.cfi_def_cfa_offset 0
 420 0018 7047     		bx	lr
 421              		.cfi_endproc
 422              	.LFE122:
 424              		.section	.text.LL_DMA_ClearFlag_GI4,"ax",%progbits
 425              		.align	1
 426              		.syntax unified
 427              		.thumb
 428              		.thumb_func
 429              		.fpu softvfp
 431              	LL_DMA_ClearFlag_GI4:
 432              	.LFB123:
1480:Drivers/STM32F1xx_HAL_Driver/Inc/stm32f1xx_ll_dma.h **** 
1481:Drivers/STM32F1xx_HAL_Driver/Inc/stm32f1xx_ll_dma.h **** /**
1482:Drivers/STM32F1xx_HAL_Driver/Inc/stm32f1xx_ll_dma.h ****   * @brief  Clear Channel 4 global interrupt flag.
1483:Drivers/STM32F1xx_HAL_Driver/Inc/stm32f1xx_ll_dma.h ****   * @rmtoll IFCR         CGIF4         LL_DMA_ClearFlag_GI4
1484:Drivers/STM32F1xx_HAL_Driver/Inc/stm32f1xx_ll_dma.h ****   * @param  DMAx DMAx Instance
1485:Drivers/STM32F1xx_HAL_Driver/Inc/stm32f1xx_ll_dma.h ****   * @retval None
1486:Drivers/STM32F1xx_HAL_Driver/Inc/stm32f1xx_ll_dma.h ****   */
1487:Drivers/STM32F1xx_HAL_Driver/Inc/stm32f1xx_ll_dma.h **** __STATIC_INLINE void LL_DMA_ClearFlag_GI4(DMA_TypeDef *DMAx)
1488:Drivers/STM32F1xx_HAL_Driver/Inc/stm32f1xx_ll_dma.h **** {
 433              		.loc 1 1488 0
 434              		.cfi_startproc
 435              		@ args = 0, pretend = 0, frame = 8
 436              		@ frame_needed = 1, uses_anonymous_args = 0
 437              		@ link register save eliminated.
 438 0000 80B4     		push	{r7}
 439              	.LCFI42:
 440              		.cfi_def_cfa_offset 4
 441              		.cfi_offset 7, -4
 442 0002 83B0     		sub	sp, sp, #12
 443              	.LCFI43:
 444              		.cfi_def_cfa_offset 16
 445 0004 00AF     		add	r7, sp, #0
 446              	.LCFI44:
 447              		.cfi_def_cfa_register 7
 448 0006 7860     		str	r0, [r7, #4]
1489:Drivers/STM32F1xx_HAL_Driver/Inc/stm32f1xx_ll_dma.h ****   WRITE_REG(DMAx->IFCR, DMA_IFCR_CGIF4);
 449              		.loc 1 1489 0
 450 0008 7B68     		ldr	r3, [r7, #4]
 451 000a 4FF48052 		mov	r2, #4096
 452 000e 5A60     		str	r2, [r3, #4]
1490:Drivers/STM32F1xx_HAL_Driver/Inc/stm32f1xx_ll_dma.h **** }
 453              		.loc 1 1490 0
 454 0010 00BF     		nop
 455 0012 0C37     		adds	r7, r7, #12
 456              	.LCFI45:
 457              		.cfi_def_cfa_offset 4
 458 0014 BD46     		mov	sp, r7
 459              	.LCFI46:
 460              		.cfi_def_cfa_register 13
 461              		@ sp needed
 462 0016 80BC     		pop	{r7}
 463              	.LCFI47:
 464              		.cfi_restore 7
 465              		.cfi_def_cfa_offset 0
ARM GAS  /tmp/ccwUacce.s 			page 35


 466 0018 7047     		bx	lr
 467              		.cfi_endproc
 468              	.LFE123:
 470              		.section	.text.LL_DMA_ClearFlag_GI5,"ax",%progbits
 471              		.align	1
 472              		.syntax unified
 473              		.thumb
 474              		.thumb_func
 475              		.fpu softvfp
 477              	LL_DMA_ClearFlag_GI5:
 478              	.LFB124:
1491:Drivers/STM32F1xx_HAL_Driver/Inc/stm32f1xx_ll_dma.h **** 
1492:Drivers/STM32F1xx_HAL_Driver/Inc/stm32f1xx_ll_dma.h **** /**
1493:Drivers/STM32F1xx_HAL_Driver/Inc/stm32f1xx_ll_dma.h ****   * @brief  Clear Channel 5 global interrupt flag.
1494:Drivers/STM32F1xx_HAL_Driver/Inc/stm32f1xx_ll_dma.h ****   * @rmtoll IFCR         CGIF5         LL_DMA_ClearFlag_GI5
1495:Drivers/STM32F1xx_HAL_Driver/Inc/stm32f1xx_ll_dma.h ****   * @param  DMAx DMAx Instance
1496:Drivers/STM32F1xx_HAL_Driver/Inc/stm32f1xx_ll_dma.h ****   * @retval None
1497:Drivers/STM32F1xx_HAL_Driver/Inc/stm32f1xx_ll_dma.h ****   */
1498:Drivers/STM32F1xx_HAL_Driver/Inc/stm32f1xx_ll_dma.h **** __STATIC_INLINE void LL_DMA_ClearFlag_GI5(DMA_TypeDef *DMAx)
1499:Drivers/STM32F1xx_HAL_Driver/Inc/stm32f1xx_ll_dma.h **** {
 479              		.loc 1 1499 0
 480              		.cfi_startproc
 481              		@ args = 0, pretend = 0, frame = 8
 482              		@ frame_needed = 1, uses_anonymous_args = 0
 483              		@ link register save eliminated.
 484 0000 80B4     		push	{r7}
 485              	.LCFI48:
 486              		.cfi_def_cfa_offset 4
 487              		.cfi_offset 7, -4
 488 0002 83B0     		sub	sp, sp, #12
 489              	.LCFI49:
 490              		.cfi_def_cfa_offset 16
 491 0004 00AF     		add	r7, sp, #0
 492              	.LCFI50:
 493              		.cfi_def_cfa_register 7
 494 0006 7860     		str	r0, [r7, #4]
1500:Drivers/STM32F1xx_HAL_Driver/Inc/stm32f1xx_ll_dma.h ****   WRITE_REG(DMAx->IFCR, DMA_IFCR_CGIF5);
 495              		.loc 1 1500 0
 496 0008 7B68     		ldr	r3, [r7, #4]
 497 000a 4FF48032 		mov	r2, #65536
 498 000e 5A60     		str	r2, [r3, #4]
1501:Drivers/STM32F1xx_HAL_Driver/Inc/stm32f1xx_ll_dma.h **** }
 499              		.loc 1 1501 0
 500 0010 00BF     		nop
 501 0012 0C37     		adds	r7, r7, #12
 502              	.LCFI51:
 503              		.cfi_def_cfa_offset 4
 504 0014 BD46     		mov	sp, r7
 505              	.LCFI52:
 506              		.cfi_def_cfa_register 13
 507              		@ sp needed
 508 0016 80BC     		pop	{r7}
 509              	.LCFI53:
 510              		.cfi_restore 7
 511              		.cfi_def_cfa_offset 0
 512 0018 7047     		bx	lr
 513              		.cfi_endproc
ARM GAS  /tmp/ccwUacce.s 			page 36


 514              	.LFE124:
 516              		.section	.text.LL_DMA_ClearFlag_GI6,"ax",%progbits
 517              		.align	1
 518              		.syntax unified
 519              		.thumb
 520              		.thumb_func
 521              		.fpu softvfp
 523              	LL_DMA_ClearFlag_GI6:
 524              	.LFB125:
1502:Drivers/STM32F1xx_HAL_Driver/Inc/stm32f1xx_ll_dma.h **** 
1503:Drivers/STM32F1xx_HAL_Driver/Inc/stm32f1xx_ll_dma.h **** /**
1504:Drivers/STM32F1xx_HAL_Driver/Inc/stm32f1xx_ll_dma.h ****   * @brief  Clear Channel 6 global interrupt flag.
1505:Drivers/STM32F1xx_HAL_Driver/Inc/stm32f1xx_ll_dma.h ****   * @rmtoll IFCR         CGIF6         LL_DMA_ClearFlag_GI6
1506:Drivers/STM32F1xx_HAL_Driver/Inc/stm32f1xx_ll_dma.h ****   * @param  DMAx DMAx Instance
1507:Drivers/STM32F1xx_HAL_Driver/Inc/stm32f1xx_ll_dma.h ****   * @retval None
1508:Drivers/STM32F1xx_HAL_Driver/Inc/stm32f1xx_ll_dma.h ****   */
1509:Drivers/STM32F1xx_HAL_Driver/Inc/stm32f1xx_ll_dma.h **** __STATIC_INLINE void LL_DMA_ClearFlag_GI6(DMA_TypeDef *DMAx)
1510:Drivers/STM32F1xx_HAL_Driver/Inc/stm32f1xx_ll_dma.h **** {
 525              		.loc 1 1510 0
 526              		.cfi_startproc
 527              		@ args = 0, pretend = 0, frame = 8
 528              		@ frame_needed = 1, uses_anonymous_args = 0
 529              		@ link register save eliminated.
 530 0000 80B4     		push	{r7}
 531              	.LCFI54:
 532              		.cfi_def_cfa_offset 4
 533              		.cfi_offset 7, -4
 534 0002 83B0     		sub	sp, sp, #12
 535              	.LCFI55:
 536              		.cfi_def_cfa_offset 16
 537 0004 00AF     		add	r7, sp, #0
 538              	.LCFI56:
 539              		.cfi_def_cfa_register 7
 540 0006 7860     		str	r0, [r7, #4]
1511:Drivers/STM32F1xx_HAL_Driver/Inc/stm32f1xx_ll_dma.h ****   WRITE_REG(DMAx->IFCR, DMA_IFCR_CGIF6);
 541              		.loc 1 1511 0
 542 0008 7B68     		ldr	r3, [r7, #4]
 543 000a 4FF48012 		mov	r2, #1048576
 544 000e 5A60     		str	r2, [r3, #4]
1512:Drivers/STM32F1xx_HAL_Driver/Inc/stm32f1xx_ll_dma.h **** }
 545              		.loc 1 1512 0
 546 0010 00BF     		nop
 547 0012 0C37     		adds	r7, r7, #12
 548              	.LCFI57:
 549              		.cfi_def_cfa_offset 4
 550 0014 BD46     		mov	sp, r7
 551              	.LCFI58:
 552              		.cfi_def_cfa_register 13
 553              		@ sp needed
 554 0016 80BC     		pop	{r7}
 555              	.LCFI59:
 556              		.cfi_restore 7
 557              		.cfi_def_cfa_offset 0
 558 0018 7047     		bx	lr
 559              		.cfi_endproc
 560              	.LFE125:
 562              		.section	.text.LL_DMA_ClearFlag_GI7,"ax",%progbits
ARM GAS  /tmp/ccwUacce.s 			page 37


 563              		.align	1
 564              		.syntax unified
 565              		.thumb
 566              		.thumb_func
 567              		.fpu softvfp
 569              	LL_DMA_ClearFlag_GI7:
 570              	.LFB126:
1513:Drivers/STM32F1xx_HAL_Driver/Inc/stm32f1xx_ll_dma.h **** 
1514:Drivers/STM32F1xx_HAL_Driver/Inc/stm32f1xx_ll_dma.h **** /**
1515:Drivers/STM32F1xx_HAL_Driver/Inc/stm32f1xx_ll_dma.h ****   * @brief  Clear Channel 7 global interrupt flag.
1516:Drivers/STM32F1xx_HAL_Driver/Inc/stm32f1xx_ll_dma.h ****   * @rmtoll IFCR         CGIF7         LL_DMA_ClearFlag_GI7
1517:Drivers/STM32F1xx_HAL_Driver/Inc/stm32f1xx_ll_dma.h ****   * @param  DMAx DMAx Instance
1518:Drivers/STM32F1xx_HAL_Driver/Inc/stm32f1xx_ll_dma.h ****   * @retval None
1519:Drivers/STM32F1xx_HAL_Driver/Inc/stm32f1xx_ll_dma.h ****   */
1520:Drivers/STM32F1xx_HAL_Driver/Inc/stm32f1xx_ll_dma.h **** __STATIC_INLINE void LL_DMA_ClearFlag_GI7(DMA_TypeDef *DMAx)
1521:Drivers/STM32F1xx_HAL_Driver/Inc/stm32f1xx_ll_dma.h **** {
 571              		.loc 1 1521 0
 572              		.cfi_startproc
 573              		@ args = 0, pretend = 0, frame = 8
 574              		@ frame_needed = 1, uses_anonymous_args = 0
 575              		@ link register save eliminated.
 576 0000 80B4     		push	{r7}
 577              	.LCFI60:
 578              		.cfi_def_cfa_offset 4
 579              		.cfi_offset 7, -4
 580 0002 83B0     		sub	sp, sp, #12
 581              	.LCFI61:
 582              		.cfi_def_cfa_offset 16
 583 0004 00AF     		add	r7, sp, #0
 584              	.LCFI62:
 585              		.cfi_def_cfa_register 7
 586 0006 7860     		str	r0, [r7, #4]
1522:Drivers/STM32F1xx_HAL_Driver/Inc/stm32f1xx_ll_dma.h ****   WRITE_REG(DMAx->IFCR, DMA_IFCR_CGIF7);
 587              		.loc 1 1522 0
 588 0008 7B68     		ldr	r3, [r7, #4]
 589 000a 4FF08072 		mov	r2, #16777216
 590 000e 5A60     		str	r2, [r3, #4]
1523:Drivers/STM32F1xx_HAL_Driver/Inc/stm32f1xx_ll_dma.h **** }
 591              		.loc 1 1523 0
 592 0010 00BF     		nop
 593 0012 0C37     		adds	r7, r7, #12
 594              	.LCFI63:
 595              		.cfi_def_cfa_offset 4
 596 0014 BD46     		mov	sp, r7
 597              	.LCFI64:
 598              		.cfi_def_cfa_register 13
 599              		@ sp needed
 600 0016 80BC     		pop	{r7}
 601              	.LCFI65:
 602              		.cfi_restore 7
 603              		.cfi_def_cfa_offset 0
 604 0018 7047     		bx	lr
 605              		.cfi_endproc
 606              	.LFE126:
 608              		.section	.text.LL_DMA_DeInit,"ax",%progbits
 609              		.align	1
 610              		.global	LL_DMA_DeInit
ARM GAS  /tmp/ccwUacce.s 			page 38


 611              		.syntax unified
 612              		.thumb
 613              		.thumb_func
 614              		.fpu softvfp
 616              	LL_DMA_DeInit:
 617              	.LFB170:
 618              		.file 2 "Drivers/STM32F1xx_HAL_Driver/Src/stm32f1xx_ll_dma.c"
   1:Drivers/STM32F1xx_HAL_Driver/Src/stm32f1xx_ll_dma.c **** /**
   2:Drivers/STM32F1xx_HAL_Driver/Src/stm32f1xx_ll_dma.c ****   ******************************************************************************
   3:Drivers/STM32F1xx_HAL_Driver/Src/stm32f1xx_ll_dma.c ****   * @file    stm32f1xx_ll_dma.c
   4:Drivers/STM32F1xx_HAL_Driver/Src/stm32f1xx_ll_dma.c ****   * @author  MCD Application Team
   5:Drivers/STM32F1xx_HAL_Driver/Src/stm32f1xx_ll_dma.c ****   * @brief   DMA LL module driver.
   6:Drivers/STM32F1xx_HAL_Driver/Src/stm32f1xx_ll_dma.c ****   ******************************************************************************
   7:Drivers/STM32F1xx_HAL_Driver/Src/stm32f1xx_ll_dma.c ****   * @attention
   8:Drivers/STM32F1xx_HAL_Driver/Src/stm32f1xx_ll_dma.c ****   *
   9:Drivers/STM32F1xx_HAL_Driver/Src/stm32f1xx_ll_dma.c ****   * <h2><center>&copy; COPYRIGHT(c) 2016 STMicroelectronics</center></h2>
  10:Drivers/STM32F1xx_HAL_Driver/Src/stm32f1xx_ll_dma.c ****   *
  11:Drivers/STM32F1xx_HAL_Driver/Src/stm32f1xx_ll_dma.c ****   * Redistribution and use in source and binary forms, with or without modification,
  12:Drivers/STM32F1xx_HAL_Driver/Src/stm32f1xx_ll_dma.c ****   * are permitted provided that the following conditions are met:
  13:Drivers/STM32F1xx_HAL_Driver/Src/stm32f1xx_ll_dma.c ****   *   1. Redistributions of source code must retain the above copyright notice,
  14:Drivers/STM32F1xx_HAL_Driver/Src/stm32f1xx_ll_dma.c ****   *      this list of conditions and the following disclaimer.
  15:Drivers/STM32F1xx_HAL_Driver/Src/stm32f1xx_ll_dma.c ****   *   2. Redistributions in binary form must reproduce the above copyright notice,
  16:Drivers/STM32F1xx_HAL_Driver/Src/stm32f1xx_ll_dma.c ****   *      this list of conditions and the following disclaimer in the documentation
  17:Drivers/STM32F1xx_HAL_Driver/Src/stm32f1xx_ll_dma.c ****   *      and/or other materials provided with the distribution.
  18:Drivers/STM32F1xx_HAL_Driver/Src/stm32f1xx_ll_dma.c ****   *   3. Neither the name of STMicroelectronics nor the names of its contributors
  19:Drivers/STM32F1xx_HAL_Driver/Src/stm32f1xx_ll_dma.c ****   *      may be used to endorse or promote products derived from this software
  20:Drivers/STM32F1xx_HAL_Driver/Src/stm32f1xx_ll_dma.c ****   *      without specific prior written permission.
  21:Drivers/STM32F1xx_HAL_Driver/Src/stm32f1xx_ll_dma.c ****   *
  22:Drivers/STM32F1xx_HAL_Driver/Src/stm32f1xx_ll_dma.c ****   * THIS SOFTWARE IS PROVIDED BY THE COPYRIGHT HOLDERS AND CONTRIBUTORS "AS IS"
  23:Drivers/STM32F1xx_HAL_Driver/Src/stm32f1xx_ll_dma.c ****   * AND ANY EXPRESS OR IMPLIED WARRANTIES, INCLUDING, BUT NOT LIMITED TO, THE
  24:Drivers/STM32F1xx_HAL_Driver/Src/stm32f1xx_ll_dma.c ****   * IMPLIED WARRANTIES OF MERCHANTABILITY AND FITNESS FOR A PARTICULAR PURPOSE ARE
  25:Drivers/STM32F1xx_HAL_Driver/Src/stm32f1xx_ll_dma.c ****   * DISCLAIMED. IN NO EVENT SHALL THE COPYRIGHT HOLDER OR CONTRIBUTORS BE LIABLE
  26:Drivers/STM32F1xx_HAL_Driver/Src/stm32f1xx_ll_dma.c ****   * FOR ANY DIRECT, INDIRECT, INCIDENTAL, SPECIAL, EXEMPLARY, OR CONSEQUENTIAL
  27:Drivers/STM32F1xx_HAL_Driver/Src/stm32f1xx_ll_dma.c ****   * DAMAGES (INCLUDING, BUT NOT LIMITED TO, PROCUREMENT OF SUBSTITUTE GOODS OR
  28:Drivers/STM32F1xx_HAL_Driver/Src/stm32f1xx_ll_dma.c ****   * SERVICES; LOSS OF USE, DATA, OR PROFITS; OR BUSINESS INTERRUPTION) HOWEVER
  29:Drivers/STM32F1xx_HAL_Driver/Src/stm32f1xx_ll_dma.c ****   * CAUSED AND ON ANY THEORY OF LIABILITY, WHETHER IN CONTRACT, STRICT LIABILITY,
  30:Drivers/STM32F1xx_HAL_Driver/Src/stm32f1xx_ll_dma.c ****   * OR TORT (INCLUDING NEGLIGENCE OR OTHERWISE) ARISING IN ANY WAY OUT OF THE USE
  31:Drivers/STM32F1xx_HAL_Driver/Src/stm32f1xx_ll_dma.c ****   * OF THIS SOFTWARE, EVEN IF ADVISED OF THE POSSIBILITY OF SUCH DAMAGE.
  32:Drivers/STM32F1xx_HAL_Driver/Src/stm32f1xx_ll_dma.c ****   *
  33:Drivers/STM32F1xx_HAL_Driver/Src/stm32f1xx_ll_dma.c ****   ******************************************************************************
  34:Drivers/STM32F1xx_HAL_Driver/Src/stm32f1xx_ll_dma.c ****   */
  35:Drivers/STM32F1xx_HAL_Driver/Src/stm32f1xx_ll_dma.c **** #if defined(USE_FULL_LL_DRIVER)
  36:Drivers/STM32F1xx_HAL_Driver/Src/stm32f1xx_ll_dma.c **** 
  37:Drivers/STM32F1xx_HAL_Driver/Src/stm32f1xx_ll_dma.c **** /* Includes ------------------------------------------------------------------*/
  38:Drivers/STM32F1xx_HAL_Driver/Src/stm32f1xx_ll_dma.c **** #include "stm32f1xx_ll_dma.h"
  39:Drivers/STM32F1xx_HAL_Driver/Src/stm32f1xx_ll_dma.c **** #include "stm32f1xx_ll_bus.h"
  40:Drivers/STM32F1xx_HAL_Driver/Src/stm32f1xx_ll_dma.c **** #ifdef  USE_FULL_ASSERT
  41:Drivers/STM32F1xx_HAL_Driver/Src/stm32f1xx_ll_dma.c **** #include "stm32_assert.h"
  42:Drivers/STM32F1xx_HAL_Driver/Src/stm32f1xx_ll_dma.c **** #else
  43:Drivers/STM32F1xx_HAL_Driver/Src/stm32f1xx_ll_dma.c **** #define assert_param(expr) ((void)0U)
  44:Drivers/STM32F1xx_HAL_Driver/Src/stm32f1xx_ll_dma.c **** #endif
  45:Drivers/STM32F1xx_HAL_Driver/Src/stm32f1xx_ll_dma.c **** 
  46:Drivers/STM32F1xx_HAL_Driver/Src/stm32f1xx_ll_dma.c **** /** @addtogroup STM32F1xx_LL_Driver
  47:Drivers/STM32F1xx_HAL_Driver/Src/stm32f1xx_ll_dma.c ****   * @{
  48:Drivers/STM32F1xx_HAL_Driver/Src/stm32f1xx_ll_dma.c ****   */
  49:Drivers/STM32F1xx_HAL_Driver/Src/stm32f1xx_ll_dma.c **** 
  50:Drivers/STM32F1xx_HAL_Driver/Src/stm32f1xx_ll_dma.c **** #if defined (DMA1) || defined (DMA2)
ARM GAS  /tmp/ccwUacce.s 			page 39


  51:Drivers/STM32F1xx_HAL_Driver/Src/stm32f1xx_ll_dma.c **** 
  52:Drivers/STM32F1xx_HAL_Driver/Src/stm32f1xx_ll_dma.c **** /** @defgroup DMA_LL DMA
  53:Drivers/STM32F1xx_HAL_Driver/Src/stm32f1xx_ll_dma.c ****   * @{
  54:Drivers/STM32F1xx_HAL_Driver/Src/stm32f1xx_ll_dma.c ****   */
  55:Drivers/STM32F1xx_HAL_Driver/Src/stm32f1xx_ll_dma.c **** 
  56:Drivers/STM32F1xx_HAL_Driver/Src/stm32f1xx_ll_dma.c **** /* Private types -------------------------------------------------------------*/
  57:Drivers/STM32F1xx_HAL_Driver/Src/stm32f1xx_ll_dma.c **** /* Private variables ---------------------------------------------------------*/
  58:Drivers/STM32F1xx_HAL_Driver/Src/stm32f1xx_ll_dma.c **** /* Private constants ---------------------------------------------------------*/
  59:Drivers/STM32F1xx_HAL_Driver/Src/stm32f1xx_ll_dma.c **** /* Private macros ------------------------------------------------------------*/
  60:Drivers/STM32F1xx_HAL_Driver/Src/stm32f1xx_ll_dma.c **** /** @addtogroup DMA_LL_Private_Macros
  61:Drivers/STM32F1xx_HAL_Driver/Src/stm32f1xx_ll_dma.c ****   * @{
  62:Drivers/STM32F1xx_HAL_Driver/Src/stm32f1xx_ll_dma.c ****   */
  63:Drivers/STM32F1xx_HAL_Driver/Src/stm32f1xx_ll_dma.c **** #define IS_LL_DMA_DIRECTION(__VALUE__)          (((__VALUE__) == LL_DMA_DIRECTION_PERIPH_TO_MEMORY)
  64:Drivers/STM32F1xx_HAL_Driver/Src/stm32f1xx_ll_dma.c ****                                                  ((__VALUE__) == LL_DMA_DIRECTION_MEMORY_TO_PERIPH)
  65:Drivers/STM32F1xx_HAL_Driver/Src/stm32f1xx_ll_dma.c ****                                                  ((__VALUE__) == LL_DMA_DIRECTION_MEMORY_TO_MEMORY)
  66:Drivers/STM32F1xx_HAL_Driver/Src/stm32f1xx_ll_dma.c **** 
  67:Drivers/STM32F1xx_HAL_Driver/Src/stm32f1xx_ll_dma.c **** #define IS_LL_DMA_MODE(__VALUE__)               (((__VALUE__) == LL_DMA_MODE_NORMAL) || \
  68:Drivers/STM32F1xx_HAL_Driver/Src/stm32f1xx_ll_dma.c ****                                                  ((__VALUE__) == LL_DMA_MODE_CIRCULAR))
  69:Drivers/STM32F1xx_HAL_Driver/Src/stm32f1xx_ll_dma.c **** 
  70:Drivers/STM32F1xx_HAL_Driver/Src/stm32f1xx_ll_dma.c **** #define IS_LL_DMA_PERIPHINCMODE(__VALUE__)      (((__VALUE__) == LL_DMA_PERIPH_INCREMENT) || \
  71:Drivers/STM32F1xx_HAL_Driver/Src/stm32f1xx_ll_dma.c ****                                                  ((__VALUE__) == LL_DMA_PERIPH_NOINCREMENT))
  72:Drivers/STM32F1xx_HAL_Driver/Src/stm32f1xx_ll_dma.c **** 
  73:Drivers/STM32F1xx_HAL_Driver/Src/stm32f1xx_ll_dma.c **** #define IS_LL_DMA_MEMORYINCMODE(__VALUE__)      (((__VALUE__) == LL_DMA_MEMORY_INCREMENT) || \
  74:Drivers/STM32F1xx_HAL_Driver/Src/stm32f1xx_ll_dma.c ****                                                  ((__VALUE__) == LL_DMA_MEMORY_NOINCREMENT))
  75:Drivers/STM32F1xx_HAL_Driver/Src/stm32f1xx_ll_dma.c **** 
  76:Drivers/STM32F1xx_HAL_Driver/Src/stm32f1xx_ll_dma.c **** #define IS_LL_DMA_PERIPHDATASIZE(__VALUE__)     (((__VALUE__) == LL_DMA_PDATAALIGN_BYTE)      || \
  77:Drivers/STM32F1xx_HAL_Driver/Src/stm32f1xx_ll_dma.c ****                                                  ((__VALUE__) == LL_DMA_PDATAALIGN_HALFWORD)  || \
  78:Drivers/STM32F1xx_HAL_Driver/Src/stm32f1xx_ll_dma.c ****                                                  ((__VALUE__) == LL_DMA_PDATAALIGN_WORD))
  79:Drivers/STM32F1xx_HAL_Driver/Src/stm32f1xx_ll_dma.c **** 
  80:Drivers/STM32F1xx_HAL_Driver/Src/stm32f1xx_ll_dma.c **** #define IS_LL_DMA_MEMORYDATASIZE(__VALUE__)     (((__VALUE__) == LL_DMA_MDATAALIGN_BYTE)      || \
  81:Drivers/STM32F1xx_HAL_Driver/Src/stm32f1xx_ll_dma.c ****                                                  ((__VALUE__) == LL_DMA_MDATAALIGN_HALFWORD)  || \
  82:Drivers/STM32F1xx_HAL_Driver/Src/stm32f1xx_ll_dma.c ****                                                  ((__VALUE__) == LL_DMA_MDATAALIGN_WORD))
  83:Drivers/STM32F1xx_HAL_Driver/Src/stm32f1xx_ll_dma.c **** 
  84:Drivers/STM32F1xx_HAL_Driver/Src/stm32f1xx_ll_dma.c **** #define IS_LL_DMA_NBDATA(__VALUE__)             ((__VALUE__)  <= 0x0000FFFFU)
  85:Drivers/STM32F1xx_HAL_Driver/Src/stm32f1xx_ll_dma.c **** 
  86:Drivers/STM32F1xx_HAL_Driver/Src/stm32f1xx_ll_dma.c **** #define IS_LL_DMA_PRIORITY(__VALUE__)           (((__VALUE__) == LL_DMA_PRIORITY_LOW)    || \
  87:Drivers/STM32F1xx_HAL_Driver/Src/stm32f1xx_ll_dma.c ****                                                  ((__VALUE__) == LL_DMA_PRIORITY_MEDIUM) || \
  88:Drivers/STM32F1xx_HAL_Driver/Src/stm32f1xx_ll_dma.c ****                                                  ((__VALUE__) == LL_DMA_PRIORITY_HIGH)   || \
  89:Drivers/STM32F1xx_HAL_Driver/Src/stm32f1xx_ll_dma.c ****                                                  ((__VALUE__) == LL_DMA_PRIORITY_VERYHIGH))
  90:Drivers/STM32F1xx_HAL_Driver/Src/stm32f1xx_ll_dma.c **** 
  91:Drivers/STM32F1xx_HAL_Driver/Src/stm32f1xx_ll_dma.c **** #if defined (DMA2)
  92:Drivers/STM32F1xx_HAL_Driver/Src/stm32f1xx_ll_dma.c **** #define IS_LL_DMA_ALL_CHANNEL_INSTANCE(INSTANCE, CHANNEL)  ((((INSTANCE) == DMA1) && \
  93:Drivers/STM32F1xx_HAL_Driver/Src/stm32f1xx_ll_dma.c ****                                                             (((CHANNEL) == LL_DMA_CHANNEL_1) || \
  94:Drivers/STM32F1xx_HAL_Driver/Src/stm32f1xx_ll_dma.c ****                                                              ((CHANNEL) == LL_DMA_CHANNEL_2) || \
  95:Drivers/STM32F1xx_HAL_Driver/Src/stm32f1xx_ll_dma.c ****                                                              ((CHANNEL) == LL_DMA_CHANNEL_3) || \
  96:Drivers/STM32F1xx_HAL_Driver/Src/stm32f1xx_ll_dma.c ****                                                              ((CHANNEL) == LL_DMA_CHANNEL_4) || \
  97:Drivers/STM32F1xx_HAL_Driver/Src/stm32f1xx_ll_dma.c ****                                                              ((CHANNEL) == LL_DMA_CHANNEL_5) || \
  98:Drivers/STM32F1xx_HAL_Driver/Src/stm32f1xx_ll_dma.c ****                                                              ((CHANNEL) == LL_DMA_CHANNEL_6) || \
  99:Drivers/STM32F1xx_HAL_Driver/Src/stm32f1xx_ll_dma.c ****                                                              ((CHANNEL) == LL_DMA_CHANNEL_7))) || \
 100:Drivers/STM32F1xx_HAL_Driver/Src/stm32f1xx_ll_dma.c ****                                                             (((INSTANCE) == DMA2) && \
 101:Drivers/STM32F1xx_HAL_Driver/Src/stm32f1xx_ll_dma.c ****                                                             (((CHANNEL) == LL_DMA_CHANNEL_1) || \
 102:Drivers/STM32F1xx_HAL_Driver/Src/stm32f1xx_ll_dma.c ****                                                              ((CHANNEL) == LL_DMA_CHANNEL_2) || \
 103:Drivers/STM32F1xx_HAL_Driver/Src/stm32f1xx_ll_dma.c ****                                                              ((CHANNEL) == LL_DMA_CHANNEL_3) || \
 104:Drivers/STM32F1xx_HAL_Driver/Src/stm32f1xx_ll_dma.c ****                                                              ((CHANNEL) == LL_DMA_CHANNEL_4) || \
 105:Drivers/STM32F1xx_HAL_Driver/Src/stm32f1xx_ll_dma.c ****                                                              ((CHANNEL) == LL_DMA_CHANNEL_5))))
 106:Drivers/STM32F1xx_HAL_Driver/Src/stm32f1xx_ll_dma.c **** #else
 107:Drivers/STM32F1xx_HAL_Driver/Src/stm32f1xx_ll_dma.c **** #define IS_LL_DMA_ALL_CHANNEL_INSTANCE(INSTANCE, CHANNEL)  ((((INSTANCE) == DMA1) && \
ARM GAS  /tmp/ccwUacce.s 			page 40


 108:Drivers/STM32F1xx_HAL_Driver/Src/stm32f1xx_ll_dma.c ****                                                             (((CHANNEL) == LL_DMA_CHANNEL_1) || \
 109:Drivers/STM32F1xx_HAL_Driver/Src/stm32f1xx_ll_dma.c ****                                                              ((CHANNEL) == LL_DMA_CHANNEL_2) || \
 110:Drivers/STM32F1xx_HAL_Driver/Src/stm32f1xx_ll_dma.c ****                                                              ((CHANNEL) == LL_DMA_CHANNEL_3) || \
 111:Drivers/STM32F1xx_HAL_Driver/Src/stm32f1xx_ll_dma.c ****                                                              ((CHANNEL) == LL_DMA_CHANNEL_4) || \
 112:Drivers/STM32F1xx_HAL_Driver/Src/stm32f1xx_ll_dma.c ****                                                              ((CHANNEL) == LL_DMA_CHANNEL_5) || \
 113:Drivers/STM32F1xx_HAL_Driver/Src/stm32f1xx_ll_dma.c ****                                                              ((CHANNEL) == LL_DMA_CHANNEL_6) || \
 114:Drivers/STM32F1xx_HAL_Driver/Src/stm32f1xx_ll_dma.c ****                                                              ((CHANNEL) == LL_DMA_CHANNEL_7))))
 115:Drivers/STM32F1xx_HAL_Driver/Src/stm32f1xx_ll_dma.c **** #endif
 116:Drivers/STM32F1xx_HAL_Driver/Src/stm32f1xx_ll_dma.c **** /**
 117:Drivers/STM32F1xx_HAL_Driver/Src/stm32f1xx_ll_dma.c ****   * @}
 118:Drivers/STM32F1xx_HAL_Driver/Src/stm32f1xx_ll_dma.c ****   */
 119:Drivers/STM32F1xx_HAL_Driver/Src/stm32f1xx_ll_dma.c **** 
 120:Drivers/STM32F1xx_HAL_Driver/Src/stm32f1xx_ll_dma.c **** /* Private function prototypes -----------------------------------------------*/
 121:Drivers/STM32F1xx_HAL_Driver/Src/stm32f1xx_ll_dma.c **** /* Exported functions --------------------------------------------------------*/
 122:Drivers/STM32F1xx_HAL_Driver/Src/stm32f1xx_ll_dma.c **** /** @addtogroup DMA_LL_Exported_Functions
 123:Drivers/STM32F1xx_HAL_Driver/Src/stm32f1xx_ll_dma.c ****   * @{
 124:Drivers/STM32F1xx_HAL_Driver/Src/stm32f1xx_ll_dma.c ****   */
 125:Drivers/STM32F1xx_HAL_Driver/Src/stm32f1xx_ll_dma.c **** 
 126:Drivers/STM32F1xx_HAL_Driver/Src/stm32f1xx_ll_dma.c **** /** @addtogroup DMA_LL_EF_Init
 127:Drivers/STM32F1xx_HAL_Driver/Src/stm32f1xx_ll_dma.c ****   * @{
 128:Drivers/STM32F1xx_HAL_Driver/Src/stm32f1xx_ll_dma.c ****   */
 129:Drivers/STM32F1xx_HAL_Driver/Src/stm32f1xx_ll_dma.c **** 
 130:Drivers/STM32F1xx_HAL_Driver/Src/stm32f1xx_ll_dma.c **** /**
 131:Drivers/STM32F1xx_HAL_Driver/Src/stm32f1xx_ll_dma.c ****   * @brief  De-initialize the DMA registers to their default reset values.
 132:Drivers/STM32F1xx_HAL_Driver/Src/stm32f1xx_ll_dma.c ****   * @param  DMAx DMAx Instance
 133:Drivers/STM32F1xx_HAL_Driver/Src/stm32f1xx_ll_dma.c ****   * @param  Channel This parameter can be one of the following values:
 134:Drivers/STM32F1xx_HAL_Driver/Src/stm32f1xx_ll_dma.c ****   *         @arg @ref LL_DMA_CHANNEL_1
 135:Drivers/STM32F1xx_HAL_Driver/Src/stm32f1xx_ll_dma.c ****   *         @arg @ref LL_DMA_CHANNEL_2
 136:Drivers/STM32F1xx_HAL_Driver/Src/stm32f1xx_ll_dma.c ****   *         @arg @ref LL_DMA_CHANNEL_3
 137:Drivers/STM32F1xx_HAL_Driver/Src/stm32f1xx_ll_dma.c ****   *         @arg @ref LL_DMA_CHANNEL_4
 138:Drivers/STM32F1xx_HAL_Driver/Src/stm32f1xx_ll_dma.c ****   *         @arg @ref LL_DMA_CHANNEL_5
 139:Drivers/STM32F1xx_HAL_Driver/Src/stm32f1xx_ll_dma.c ****   *         @arg @ref LL_DMA_CHANNEL_6
 140:Drivers/STM32F1xx_HAL_Driver/Src/stm32f1xx_ll_dma.c ****   *         @arg @ref LL_DMA_CHANNEL_7
 141:Drivers/STM32F1xx_HAL_Driver/Src/stm32f1xx_ll_dma.c ****   * @retval An ErrorStatus enumeration value:
 142:Drivers/STM32F1xx_HAL_Driver/Src/stm32f1xx_ll_dma.c ****   *          - SUCCESS: DMA registers are de-initialized
 143:Drivers/STM32F1xx_HAL_Driver/Src/stm32f1xx_ll_dma.c ****   *          - ERROR: DMA registers are not de-initialized
 144:Drivers/STM32F1xx_HAL_Driver/Src/stm32f1xx_ll_dma.c ****   */
 145:Drivers/STM32F1xx_HAL_Driver/Src/stm32f1xx_ll_dma.c **** uint32_t LL_DMA_DeInit(DMA_TypeDef *DMAx, uint32_t Channel)
 146:Drivers/STM32F1xx_HAL_Driver/Src/stm32f1xx_ll_dma.c **** {
 619              		.loc 2 146 0
 620              		.cfi_startproc
 621              		@ args = 0, pretend = 0, frame = 16
 622              		@ frame_needed = 1, uses_anonymous_args = 0
 623 0000 80B5     		push	{r7, lr}
 624              	.LCFI66:
 625              		.cfi_def_cfa_offset 8
 626              		.cfi_offset 7, -8
 627              		.cfi_offset 14, -4
 628 0002 84B0     		sub	sp, sp, #16
 629              	.LCFI67:
 630              		.cfi_def_cfa_offset 24
 631 0004 00AF     		add	r7, sp, #0
 632              	.LCFI68:
 633              		.cfi_def_cfa_register 7
 634 0006 7860     		str	r0, [r7, #4]
 635 0008 3960     		str	r1, [r7]
 147:Drivers/STM32F1xx_HAL_Driver/Src/stm32f1xx_ll_dma.c ****   DMA_Channel_TypeDef *tmp = (DMA_Channel_TypeDef *)DMA1_Channel1;
ARM GAS  /tmp/ccwUacce.s 			page 41


 636              		.loc 2 147 0
 637 000a 454B     		ldr	r3, .L47
 638 000c BB60     		str	r3, [r7, #8]
 148:Drivers/STM32F1xx_HAL_Driver/Src/stm32f1xx_ll_dma.c ****   ErrorStatus status = SUCCESS;
 639              		.loc 2 148 0
 640 000e 0123     		movs	r3, #1
 641 0010 FB73     		strb	r3, [r7, #15]
 149:Drivers/STM32F1xx_HAL_Driver/Src/stm32f1xx_ll_dma.c **** 
 150:Drivers/STM32F1xx_HAL_Driver/Src/stm32f1xx_ll_dma.c ****   /* Check the DMA Instance DMAx and Channel parameters*/
 151:Drivers/STM32F1xx_HAL_Driver/Src/stm32f1xx_ll_dma.c ****   assert_param(IS_LL_DMA_ALL_CHANNEL_INSTANCE(DMAx, Channel));
 152:Drivers/STM32F1xx_HAL_Driver/Src/stm32f1xx_ll_dma.c **** 
 153:Drivers/STM32F1xx_HAL_Driver/Src/stm32f1xx_ll_dma.c ****   tmp = (DMA_Channel_TypeDef *)(__LL_DMA_GET_CHANNEL_INSTANCE(DMAx, Channel));
 642              		.loc 2 153 0
 643 0012 7B68     		ldr	r3, [r7, #4]
 644 0014 434A     		ldr	r2, .L47+4
 645 0016 9342     		cmp	r3, r2
 646 0018 02D1     		bne	.L21
 647              		.loc 2 153 0 is_stmt 0 discriminator 2
 648 001a 3B68     		ldr	r3, [r7]
 649 001c 012B     		cmp	r3, #1
 650 001e 32D0     		beq	.L22
 651              	.L21:
 652              		.loc 2 153 0 discriminator 3
 653 0020 7B68     		ldr	r3, [r7, #4]
 654 0022 404A     		ldr	r2, .L47+4
 655 0024 9342     		cmp	r3, r2
 656 0026 02D1     		bne	.L23
 657              		.loc 2 153 0 discriminator 6
 658 0028 3B68     		ldr	r3, [r7]
 659 002a 022B     		cmp	r3, #2
 660 002c 28D0     		beq	.L24
 661              	.L23:
 662              		.loc 2 153 0 discriminator 7
 663 002e 7B68     		ldr	r3, [r7, #4]
 664 0030 3C4A     		ldr	r2, .L47+4
 665 0032 9342     		cmp	r3, r2
 666 0034 02D1     		bne	.L25
 667              		.loc 2 153 0 discriminator 10
 668 0036 3B68     		ldr	r3, [r7]
 669 0038 032B     		cmp	r3, #3
 670 003a 1ED0     		beq	.L26
 671              	.L25:
 672              		.loc 2 153 0 discriminator 11
 673 003c 7B68     		ldr	r3, [r7, #4]
 674 003e 394A     		ldr	r2, .L47+4
 675 0040 9342     		cmp	r3, r2
 676 0042 02D1     		bne	.L27
 677              		.loc 2 153 0 discriminator 14
 678 0044 3B68     		ldr	r3, [r7]
 679 0046 042B     		cmp	r3, #4
 680 0048 14D0     		beq	.L28
 681              	.L27:
 682              		.loc 2 153 0 discriminator 15
 683 004a 7B68     		ldr	r3, [r7, #4]
 684 004c 354A     		ldr	r2, .L47+4
 685 004e 9342     		cmp	r3, r2
 686 0050 02D1     		bne	.L29
ARM GAS  /tmp/ccwUacce.s 			page 42


 687              		.loc 2 153 0 discriminator 18
 688 0052 3B68     		ldr	r3, [r7]
 689 0054 052B     		cmp	r3, #5
 690 0056 0AD0     		beq	.L30
 691              	.L29:
 692              		.loc 2 153 0 discriminator 19
 693 0058 7B68     		ldr	r3, [r7, #4]
 694 005a 324A     		ldr	r2, .L47+4
 695 005c 9342     		cmp	r3, r2
 696 005e 04D1     		bne	.L31
 697              		.loc 2 153 0 discriminator 21
 698 0060 3B68     		ldr	r3, [r7]
 699 0062 062B     		cmp	r3, #6
 700 0064 01D1     		bne	.L31
 701              		.loc 2 153 0 discriminator 23
 702 0066 304B     		ldr	r3, .L47+8
 703 0068 03E0     		b	.L33
 704              	.L31:
 705              		.loc 2 153 0 discriminator 24
 706 006a 304B     		ldr	r3, .L47+12
 707 006c 01E0     		b	.L33
 708              	.L30:
 709              		.loc 2 153 0 discriminator 20
 710 006e 304B     		ldr	r3, .L47+16
 711 0070 02E0     		b	.L34
 712              	.L33:
 713              		.loc 2 153 0 discriminator 28
 714 0072 01E0     		b	.L34
 715              	.L28:
 716              		.loc 2 153 0 discriminator 16
 717 0074 2F4B     		ldr	r3, .L47+20
 718 0076 02E0     		b	.L35
 719              	.L34:
 720              		.loc 2 153 0 discriminator 30
 721 0078 01E0     		b	.L35
 722              	.L26:
 723              		.loc 2 153 0 discriminator 12
 724 007a 2F4B     		ldr	r3, .L47+24
 725 007c 02E0     		b	.L36
 726              	.L35:
 727              		.loc 2 153 0 discriminator 32
 728 007e 01E0     		b	.L36
 729              	.L24:
 730              		.loc 2 153 0 discriminator 8
 731 0080 2E4B     		ldr	r3, .L47+28
 732 0082 01E0     		b	.L37
 733              	.L36:
 734              		.loc 2 153 0 discriminator 34
 735 0084 00E0     		b	.L37
 736              	.L22:
 737              		.loc 2 153 0 discriminator 4
 738 0086 264B     		ldr	r3, .L47
 739              	.L37:
 740              		.loc 2 153 0 discriminator 36
 741 0088 BB60     		str	r3, [r7, #8]
 154:Drivers/STM32F1xx_HAL_Driver/Src/stm32f1xx_ll_dma.c **** 
 155:Drivers/STM32F1xx_HAL_Driver/Src/stm32f1xx_ll_dma.c ****   /* Disable the selected DMAx_Channely */
ARM GAS  /tmp/ccwUacce.s 			page 43


 156:Drivers/STM32F1xx_HAL_Driver/Src/stm32f1xx_ll_dma.c ****   CLEAR_BIT(tmp->CCR, DMA_CCR_EN);
 742              		.loc 2 156 0 is_stmt 1 discriminator 36
 743 008a BB68     		ldr	r3, [r7, #8]
 744 008c 1B68     		ldr	r3, [r3]
 745 008e 23F00102 		bic	r2, r3, #1
 746 0092 BB68     		ldr	r3, [r7, #8]
 747 0094 1A60     		str	r2, [r3]
 157:Drivers/STM32F1xx_HAL_Driver/Src/stm32f1xx_ll_dma.c **** 
 158:Drivers/STM32F1xx_HAL_Driver/Src/stm32f1xx_ll_dma.c ****   /* Reset DMAx_Channely control register */
 159:Drivers/STM32F1xx_HAL_Driver/Src/stm32f1xx_ll_dma.c ****   LL_DMA_WriteReg(tmp, CCR, 0U);
 748              		.loc 2 159 0 discriminator 36
 749 0096 BB68     		ldr	r3, [r7, #8]
 750 0098 0022     		movs	r2, #0
 751 009a 1A60     		str	r2, [r3]
 160:Drivers/STM32F1xx_HAL_Driver/Src/stm32f1xx_ll_dma.c **** 
 161:Drivers/STM32F1xx_HAL_Driver/Src/stm32f1xx_ll_dma.c ****   /* Reset DMAx_Channely remaining bytes register */
 162:Drivers/STM32F1xx_HAL_Driver/Src/stm32f1xx_ll_dma.c ****   LL_DMA_WriteReg(tmp, CNDTR, 0U);
 752              		.loc 2 162 0 discriminator 36
 753 009c BB68     		ldr	r3, [r7, #8]
 754 009e 0022     		movs	r2, #0
 755 00a0 5A60     		str	r2, [r3, #4]
 163:Drivers/STM32F1xx_HAL_Driver/Src/stm32f1xx_ll_dma.c **** 
 164:Drivers/STM32F1xx_HAL_Driver/Src/stm32f1xx_ll_dma.c ****   /* Reset DMAx_Channely peripheral address register */
 165:Drivers/STM32F1xx_HAL_Driver/Src/stm32f1xx_ll_dma.c ****   LL_DMA_WriteReg(tmp, CPAR, 0U);
 756              		.loc 2 165 0 discriminator 36
 757 00a2 BB68     		ldr	r3, [r7, #8]
 758 00a4 0022     		movs	r2, #0
 759 00a6 9A60     		str	r2, [r3, #8]
 166:Drivers/STM32F1xx_HAL_Driver/Src/stm32f1xx_ll_dma.c **** 
 167:Drivers/STM32F1xx_HAL_Driver/Src/stm32f1xx_ll_dma.c ****   /* Reset DMAx_Channely memory address register */
 168:Drivers/STM32F1xx_HAL_Driver/Src/stm32f1xx_ll_dma.c ****   LL_DMA_WriteReg(tmp, CMAR, 0U);
 760              		.loc 2 168 0 discriminator 36
 761 00a8 BB68     		ldr	r3, [r7, #8]
 762 00aa 0022     		movs	r2, #0
 763 00ac DA60     		str	r2, [r3, #12]
 169:Drivers/STM32F1xx_HAL_Driver/Src/stm32f1xx_ll_dma.c **** 
 170:Drivers/STM32F1xx_HAL_Driver/Src/stm32f1xx_ll_dma.c ****   if (Channel == LL_DMA_CHANNEL_1)
 764              		.loc 2 170 0 discriminator 36
 765 00ae 3B68     		ldr	r3, [r7]
 766 00b0 012B     		cmp	r3, #1
 767 00b2 03D1     		bne	.L38
 171:Drivers/STM32F1xx_HAL_Driver/Src/stm32f1xx_ll_dma.c ****   {
 172:Drivers/STM32F1xx_HAL_Driver/Src/stm32f1xx_ll_dma.c ****     /* Reset interrupt pending bits for DMAx Channel1 */
 173:Drivers/STM32F1xx_HAL_Driver/Src/stm32f1xx_ll_dma.c ****     LL_DMA_ClearFlag_GI1(DMAx);
 768              		.loc 2 173 0
 769 00b4 7868     		ldr	r0, [r7, #4]
 770 00b6 FFF7FEFF 		bl	LL_DMA_ClearFlag_GI1
 771 00ba 2BE0     		b	.L39
 772              	.L38:
 174:Drivers/STM32F1xx_HAL_Driver/Src/stm32f1xx_ll_dma.c ****   }
 175:Drivers/STM32F1xx_HAL_Driver/Src/stm32f1xx_ll_dma.c ****   else if (Channel == LL_DMA_CHANNEL_2)
 773              		.loc 2 175 0
 774 00bc 3B68     		ldr	r3, [r7]
 775 00be 022B     		cmp	r3, #2
 776 00c0 03D1     		bne	.L40
 176:Drivers/STM32F1xx_HAL_Driver/Src/stm32f1xx_ll_dma.c ****   {
 177:Drivers/STM32F1xx_HAL_Driver/Src/stm32f1xx_ll_dma.c ****     /* Reset interrupt pending bits for DMAx Channel2 */
ARM GAS  /tmp/ccwUacce.s 			page 44


 178:Drivers/STM32F1xx_HAL_Driver/Src/stm32f1xx_ll_dma.c ****     LL_DMA_ClearFlag_GI2(DMAx);
 777              		.loc 2 178 0
 778 00c2 7868     		ldr	r0, [r7, #4]
 779 00c4 FFF7FEFF 		bl	LL_DMA_ClearFlag_GI2
 780 00c8 24E0     		b	.L39
 781              	.L40:
 179:Drivers/STM32F1xx_HAL_Driver/Src/stm32f1xx_ll_dma.c ****   }
 180:Drivers/STM32F1xx_HAL_Driver/Src/stm32f1xx_ll_dma.c ****   else if (Channel == LL_DMA_CHANNEL_3)
 782              		.loc 2 180 0
 783 00ca 3B68     		ldr	r3, [r7]
 784 00cc 032B     		cmp	r3, #3
 785 00ce 03D1     		bne	.L41
 181:Drivers/STM32F1xx_HAL_Driver/Src/stm32f1xx_ll_dma.c ****   {
 182:Drivers/STM32F1xx_HAL_Driver/Src/stm32f1xx_ll_dma.c ****     /* Reset interrupt pending bits for DMAx Channel3 */
 183:Drivers/STM32F1xx_HAL_Driver/Src/stm32f1xx_ll_dma.c ****     LL_DMA_ClearFlag_GI3(DMAx);
 786              		.loc 2 183 0
 787 00d0 7868     		ldr	r0, [r7, #4]
 788 00d2 FFF7FEFF 		bl	LL_DMA_ClearFlag_GI3
 789 00d6 1DE0     		b	.L39
 790              	.L41:
 184:Drivers/STM32F1xx_HAL_Driver/Src/stm32f1xx_ll_dma.c ****   }
 185:Drivers/STM32F1xx_HAL_Driver/Src/stm32f1xx_ll_dma.c ****   else if (Channel == LL_DMA_CHANNEL_4)
 791              		.loc 2 185 0
 792 00d8 3B68     		ldr	r3, [r7]
 793 00da 042B     		cmp	r3, #4
 794 00dc 03D1     		bne	.L42
 186:Drivers/STM32F1xx_HAL_Driver/Src/stm32f1xx_ll_dma.c ****   {
 187:Drivers/STM32F1xx_HAL_Driver/Src/stm32f1xx_ll_dma.c ****     /* Reset interrupt pending bits for DMAx Channel4 */
 188:Drivers/STM32F1xx_HAL_Driver/Src/stm32f1xx_ll_dma.c ****     LL_DMA_ClearFlag_GI4(DMAx);
 795              		.loc 2 188 0
 796 00de 7868     		ldr	r0, [r7, #4]
 797 00e0 FFF7FEFF 		bl	LL_DMA_ClearFlag_GI4
 798 00e4 16E0     		b	.L39
 799              	.L42:
 189:Drivers/STM32F1xx_HAL_Driver/Src/stm32f1xx_ll_dma.c ****   }
 190:Drivers/STM32F1xx_HAL_Driver/Src/stm32f1xx_ll_dma.c ****   else if (Channel == LL_DMA_CHANNEL_5)
 800              		.loc 2 190 0
 801 00e6 3B68     		ldr	r3, [r7]
 802 00e8 052B     		cmp	r3, #5
 803 00ea 03D1     		bne	.L43
 191:Drivers/STM32F1xx_HAL_Driver/Src/stm32f1xx_ll_dma.c ****   {
 192:Drivers/STM32F1xx_HAL_Driver/Src/stm32f1xx_ll_dma.c ****     /* Reset interrupt pending bits for DMAx Channel5 */
 193:Drivers/STM32F1xx_HAL_Driver/Src/stm32f1xx_ll_dma.c ****     LL_DMA_ClearFlag_GI5(DMAx);
 804              		.loc 2 193 0
 805 00ec 7868     		ldr	r0, [r7, #4]
 806 00ee FFF7FEFF 		bl	LL_DMA_ClearFlag_GI5
 807 00f2 0FE0     		b	.L39
 808              	.L43:
 194:Drivers/STM32F1xx_HAL_Driver/Src/stm32f1xx_ll_dma.c ****   }
 195:Drivers/STM32F1xx_HAL_Driver/Src/stm32f1xx_ll_dma.c **** 
 196:Drivers/STM32F1xx_HAL_Driver/Src/stm32f1xx_ll_dma.c ****   else if (Channel == LL_DMA_CHANNEL_6)
 809              		.loc 2 196 0
 810 00f4 3B68     		ldr	r3, [r7]
 811 00f6 062B     		cmp	r3, #6
 812 00f8 03D1     		bne	.L44
 197:Drivers/STM32F1xx_HAL_Driver/Src/stm32f1xx_ll_dma.c ****   {
 198:Drivers/STM32F1xx_HAL_Driver/Src/stm32f1xx_ll_dma.c ****     /* Reset interrupt pending bits for DMAx Channel6 */
ARM GAS  /tmp/ccwUacce.s 			page 45


 199:Drivers/STM32F1xx_HAL_Driver/Src/stm32f1xx_ll_dma.c ****     LL_DMA_ClearFlag_GI6(DMAx);
 813              		.loc 2 199 0
 814 00fa 7868     		ldr	r0, [r7, #4]
 815 00fc FFF7FEFF 		bl	LL_DMA_ClearFlag_GI6
 816 0100 08E0     		b	.L39
 817              	.L44:
 200:Drivers/STM32F1xx_HAL_Driver/Src/stm32f1xx_ll_dma.c ****   }
 201:Drivers/STM32F1xx_HAL_Driver/Src/stm32f1xx_ll_dma.c ****   else if (Channel == LL_DMA_CHANNEL_7)
 818              		.loc 2 201 0
 819 0102 3B68     		ldr	r3, [r7]
 820 0104 072B     		cmp	r3, #7
 821 0106 03D1     		bne	.L45
 202:Drivers/STM32F1xx_HAL_Driver/Src/stm32f1xx_ll_dma.c ****   {
 203:Drivers/STM32F1xx_HAL_Driver/Src/stm32f1xx_ll_dma.c ****     /* Reset interrupt pending bits for DMAx Channel7 */
 204:Drivers/STM32F1xx_HAL_Driver/Src/stm32f1xx_ll_dma.c ****     LL_DMA_ClearFlag_GI7(DMAx);
 822              		.loc 2 204 0
 823 0108 7868     		ldr	r0, [r7, #4]
 824 010a FFF7FEFF 		bl	LL_DMA_ClearFlag_GI7
 825 010e 01E0     		b	.L39
 826              	.L45:
 205:Drivers/STM32F1xx_HAL_Driver/Src/stm32f1xx_ll_dma.c ****   }
 206:Drivers/STM32F1xx_HAL_Driver/Src/stm32f1xx_ll_dma.c ****   else
 207:Drivers/STM32F1xx_HAL_Driver/Src/stm32f1xx_ll_dma.c ****   {
 208:Drivers/STM32F1xx_HAL_Driver/Src/stm32f1xx_ll_dma.c ****     status = ERROR;
 827              		.loc 2 208 0
 828 0110 0023     		movs	r3, #0
 829 0112 FB73     		strb	r3, [r7, #15]
 830              	.L39:
 209:Drivers/STM32F1xx_HAL_Driver/Src/stm32f1xx_ll_dma.c ****   }
 210:Drivers/STM32F1xx_HAL_Driver/Src/stm32f1xx_ll_dma.c **** 
 211:Drivers/STM32F1xx_HAL_Driver/Src/stm32f1xx_ll_dma.c ****   return status;
 831              		.loc 2 211 0
 832 0114 FB7B     		ldrb	r3, [r7, #15]	@ zero_extendqisi2
 212:Drivers/STM32F1xx_HAL_Driver/Src/stm32f1xx_ll_dma.c **** }
 833              		.loc 2 212 0
 834 0116 1846     		mov	r0, r3
 835 0118 1037     		adds	r7, r7, #16
 836              	.LCFI69:
 837              		.cfi_def_cfa_offset 8
 838 011a BD46     		mov	sp, r7
 839              	.LCFI70:
 840              		.cfi_def_cfa_register 13
 841              		@ sp needed
 842 011c 80BD     		pop	{r7, pc}
 843              	.L48:
 844 011e 00BF     		.align	2
 845              	.L47:
 846 0120 08000240 		.word	1073872904
 847 0124 00000240 		.word	1073872896
 848 0128 6C000240 		.word	1073873004
 849 012c 80000240 		.word	1073873024
 850 0130 58000240 		.word	1073872984
 851 0134 44000240 		.word	1073872964
 852 0138 30000240 		.word	1073872944
 853 013c 1C000240 		.word	1073872924
 854              		.cfi_endproc
 855              	.LFE170:
ARM GAS  /tmp/ccwUacce.s 			page 46


 857              		.section	.text.LL_DMA_Init,"ax",%progbits
 858              		.align	1
 859              		.global	LL_DMA_Init
 860              		.syntax unified
 861              		.thumb
 862              		.thumb_func
 863              		.fpu softvfp
 865              	LL_DMA_Init:
 866              	.LFB171:
 213:Drivers/STM32F1xx_HAL_Driver/Src/stm32f1xx_ll_dma.c **** 
 214:Drivers/STM32F1xx_HAL_Driver/Src/stm32f1xx_ll_dma.c **** /**
 215:Drivers/STM32F1xx_HAL_Driver/Src/stm32f1xx_ll_dma.c ****   * @brief  Initialize the DMA registers according to the specified parameters in DMA_InitStruct.
 216:Drivers/STM32F1xx_HAL_Driver/Src/stm32f1xx_ll_dma.c ****   * @note   To convert DMAx_Channely Instance to DMAx Instance and Channely, use helper macros :
 217:Drivers/STM32F1xx_HAL_Driver/Src/stm32f1xx_ll_dma.c ****   *         @arg @ref __LL_DMA_GET_INSTANCE
 218:Drivers/STM32F1xx_HAL_Driver/Src/stm32f1xx_ll_dma.c ****   *         @arg @ref __LL_DMA_GET_CHANNEL
 219:Drivers/STM32F1xx_HAL_Driver/Src/stm32f1xx_ll_dma.c ****   * @param  DMAx DMAx Instance
 220:Drivers/STM32F1xx_HAL_Driver/Src/stm32f1xx_ll_dma.c ****   * @param  Channel This parameter can be one of the following values:
 221:Drivers/STM32F1xx_HAL_Driver/Src/stm32f1xx_ll_dma.c ****   *         @arg @ref LL_DMA_CHANNEL_1
 222:Drivers/STM32F1xx_HAL_Driver/Src/stm32f1xx_ll_dma.c ****   *         @arg @ref LL_DMA_CHANNEL_2
 223:Drivers/STM32F1xx_HAL_Driver/Src/stm32f1xx_ll_dma.c ****   *         @arg @ref LL_DMA_CHANNEL_3
 224:Drivers/STM32F1xx_HAL_Driver/Src/stm32f1xx_ll_dma.c ****   *         @arg @ref LL_DMA_CHANNEL_4
 225:Drivers/STM32F1xx_HAL_Driver/Src/stm32f1xx_ll_dma.c ****   *         @arg @ref LL_DMA_CHANNEL_5
 226:Drivers/STM32F1xx_HAL_Driver/Src/stm32f1xx_ll_dma.c ****   *         @arg @ref LL_DMA_CHANNEL_6
 227:Drivers/STM32F1xx_HAL_Driver/Src/stm32f1xx_ll_dma.c ****   *         @arg @ref LL_DMA_CHANNEL_7
 228:Drivers/STM32F1xx_HAL_Driver/Src/stm32f1xx_ll_dma.c ****   * @param  DMA_InitStruct pointer to a @ref LL_DMA_InitTypeDef structure.
 229:Drivers/STM32F1xx_HAL_Driver/Src/stm32f1xx_ll_dma.c ****   * @retval An ErrorStatus enumeration value:
 230:Drivers/STM32F1xx_HAL_Driver/Src/stm32f1xx_ll_dma.c ****   *          - SUCCESS: DMA registers are initialized
 231:Drivers/STM32F1xx_HAL_Driver/Src/stm32f1xx_ll_dma.c ****   *          - ERROR: Not applicable
 232:Drivers/STM32F1xx_HAL_Driver/Src/stm32f1xx_ll_dma.c ****   */
 233:Drivers/STM32F1xx_HAL_Driver/Src/stm32f1xx_ll_dma.c **** uint32_t LL_DMA_Init(DMA_TypeDef *DMAx, uint32_t Channel, LL_DMA_InitTypeDef *DMA_InitStruct)
 234:Drivers/STM32F1xx_HAL_Driver/Src/stm32f1xx_ll_dma.c **** {
 867              		.loc 2 234 0
 868              		.cfi_startproc
 869              		@ args = 0, pretend = 0, frame = 16
 870              		@ frame_needed = 1, uses_anonymous_args = 0
 871 0000 80B5     		push	{r7, lr}
 872              	.LCFI71:
 873              		.cfi_def_cfa_offset 8
 874              		.cfi_offset 7, -8
 875              		.cfi_offset 14, -4
 876 0002 84B0     		sub	sp, sp, #16
 877              	.LCFI72:
 878              		.cfi_def_cfa_offset 24
 879 0004 00AF     		add	r7, sp, #0
 880              	.LCFI73:
 881              		.cfi_def_cfa_register 7
 882 0006 F860     		str	r0, [r7, #12]
 883 0008 B960     		str	r1, [r7, #8]
 884 000a 7A60     		str	r2, [r7, #4]
 235:Drivers/STM32F1xx_HAL_Driver/Src/stm32f1xx_ll_dma.c ****   /* Check the DMA Instance DMAx and Channel parameters*/
 236:Drivers/STM32F1xx_HAL_Driver/Src/stm32f1xx_ll_dma.c ****   assert_param(IS_LL_DMA_ALL_CHANNEL_INSTANCE(DMAx, Channel));
 237:Drivers/STM32F1xx_HAL_Driver/Src/stm32f1xx_ll_dma.c **** 
 238:Drivers/STM32F1xx_HAL_Driver/Src/stm32f1xx_ll_dma.c ****   /* Check the DMA parameters from DMA_InitStruct */
 239:Drivers/STM32F1xx_HAL_Driver/Src/stm32f1xx_ll_dma.c ****   assert_param(IS_LL_DMA_DIRECTION(DMA_InitStruct->Direction));
 240:Drivers/STM32F1xx_HAL_Driver/Src/stm32f1xx_ll_dma.c ****   assert_param(IS_LL_DMA_MODE(DMA_InitStruct->Mode));
 241:Drivers/STM32F1xx_HAL_Driver/Src/stm32f1xx_ll_dma.c ****   assert_param(IS_LL_DMA_PERIPHINCMODE(DMA_InitStruct->PeriphOrM2MSrcIncMode));
 242:Drivers/STM32F1xx_HAL_Driver/Src/stm32f1xx_ll_dma.c ****   assert_param(IS_LL_DMA_MEMORYINCMODE(DMA_InitStruct->MemoryOrM2MDstIncMode));
ARM GAS  /tmp/ccwUacce.s 			page 47


 243:Drivers/STM32F1xx_HAL_Driver/Src/stm32f1xx_ll_dma.c ****   assert_param(IS_LL_DMA_PERIPHDATASIZE(DMA_InitStruct->PeriphOrM2MSrcDataSize));
 244:Drivers/STM32F1xx_HAL_Driver/Src/stm32f1xx_ll_dma.c ****   assert_param(IS_LL_DMA_MEMORYDATASIZE(DMA_InitStruct->MemoryOrM2MDstDataSize));
 245:Drivers/STM32F1xx_HAL_Driver/Src/stm32f1xx_ll_dma.c ****   assert_param(IS_LL_DMA_NBDATA(DMA_InitStruct->NbData));
 246:Drivers/STM32F1xx_HAL_Driver/Src/stm32f1xx_ll_dma.c ****   assert_param(IS_LL_DMA_PRIORITY(DMA_InitStruct->Priority));
 247:Drivers/STM32F1xx_HAL_Driver/Src/stm32f1xx_ll_dma.c **** 
 248:Drivers/STM32F1xx_HAL_Driver/Src/stm32f1xx_ll_dma.c ****   /*---------------------------- DMAx CCR Configuration ------------------------
 249:Drivers/STM32F1xx_HAL_Driver/Src/stm32f1xx_ll_dma.c ****    * Configure DMAx_Channely: data transfer direction, data transfer mode,
 250:Drivers/STM32F1xx_HAL_Driver/Src/stm32f1xx_ll_dma.c ****    *                          peripheral and memory increment mode,
 251:Drivers/STM32F1xx_HAL_Driver/Src/stm32f1xx_ll_dma.c ****    *                          data size alignment and  priority level with parameters :
 252:Drivers/STM32F1xx_HAL_Driver/Src/stm32f1xx_ll_dma.c ****    * - Direction:      DMA_CCR_DIR and DMA_CCR_MEM2MEM bits
 253:Drivers/STM32F1xx_HAL_Driver/Src/stm32f1xx_ll_dma.c ****    * - Mode:           DMA_CCR_CIRC bit
 254:Drivers/STM32F1xx_HAL_Driver/Src/stm32f1xx_ll_dma.c ****    * - PeriphOrM2MSrcIncMode:  DMA_CCR_PINC bit
 255:Drivers/STM32F1xx_HAL_Driver/Src/stm32f1xx_ll_dma.c ****    * - MemoryOrM2MDstIncMode:  DMA_CCR_MINC bit
 256:Drivers/STM32F1xx_HAL_Driver/Src/stm32f1xx_ll_dma.c ****    * - PeriphOrM2MSrcDataSize: DMA_CCR_PSIZE[1:0] bits
 257:Drivers/STM32F1xx_HAL_Driver/Src/stm32f1xx_ll_dma.c ****    * - MemoryOrM2MDstDataSize: DMA_CCR_MSIZE[1:0] bits
 258:Drivers/STM32F1xx_HAL_Driver/Src/stm32f1xx_ll_dma.c ****    * - Priority:               DMA_CCR_PL[1:0] bits
 259:Drivers/STM32F1xx_HAL_Driver/Src/stm32f1xx_ll_dma.c ****    */
 260:Drivers/STM32F1xx_HAL_Driver/Src/stm32f1xx_ll_dma.c ****   LL_DMA_ConfigTransfer(DMAx, Channel, DMA_InitStruct->Direction | \
 885              		.loc 2 260 0
 886 000c 7B68     		ldr	r3, [r7, #4]
 887 000e 9A68     		ldr	r2, [r3, #8]
 261:Drivers/STM32F1xx_HAL_Driver/Src/stm32f1xx_ll_dma.c ****                         DMA_InitStruct->Mode                   | \
 888              		.loc 2 261 0
 889 0010 7B68     		ldr	r3, [r7, #4]
 890 0012 DB68     		ldr	r3, [r3, #12]
 260:Drivers/STM32F1xx_HAL_Driver/Src/stm32f1xx_ll_dma.c ****                         DMA_InitStruct->Mode                   | \
 891              		.loc 2 260 0
 892 0014 1A43     		orrs	r2, r2, r3
 262:Drivers/STM32F1xx_HAL_Driver/Src/stm32f1xx_ll_dma.c ****                         DMA_InitStruct->PeriphOrM2MSrcIncMode  | \
 893              		.loc 2 262 0
 894 0016 7B68     		ldr	r3, [r7, #4]
 895 0018 1B69     		ldr	r3, [r3, #16]
 261:Drivers/STM32F1xx_HAL_Driver/Src/stm32f1xx_ll_dma.c ****                         DMA_InitStruct->Mode                   | \
 896              		.loc 2 261 0
 897 001a 1A43     		orrs	r2, r2, r3
 263:Drivers/STM32F1xx_HAL_Driver/Src/stm32f1xx_ll_dma.c ****                         DMA_InitStruct->MemoryOrM2MDstIncMode  | \
 898              		.loc 2 263 0
 899 001c 7B68     		ldr	r3, [r7, #4]
 900 001e 5B69     		ldr	r3, [r3, #20]
 262:Drivers/STM32F1xx_HAL_Driver/Src/stm32f1xx_ll_dma.c ****                         DMA_InitStruct->PeriphOrM2MSrcIncMode  | \
 901              		.loc 2 262 0
 902 0020 1A43     		orrs	r2, r2, r3
 264:Drivers/STM32F1xx_HAL_Driver/Src/stm32f1xx_ll_dma.c ****                         DMA_InitStruct->PeriphOrM2MSrcDataSize | \
 903              		.loc 2 264 0
 904 0022 7B68     		ldr	r3, [r7, #4]
 905 0024 9B69     		ldr	r3, [r3, #24]
 263:Drivers/STM32F1xx_HAL_Driver/Src/stm32f1xx_ll_dma.c ****                         DMA_InitStruct->MemoryOrM2MDstIncMode  | \
 906              		.loc 2 263 0
 907 0026 1A43     		orrs	r2, r2, r3
 265:Drivers/STM32F1xx_HAL_Driver/Src/stm32f1xx_ll_dma.c ****                         DMA_InitStruct->MemoryOrM2MDstDataSize | \
 908              		.loc 2 265 0
 909 0028 7B68     		ldr	r3, [r7, #4]
 910 002a DB69     		ldr	r3, [r3, #28]
 264:Drivers/STM32F1xx_HAL_Driver/Src/stm32f1xx_ll_dma.c ****                         DMA_InitStruct->PeriphOrM2MSrcDataSize | \
 911              		.loc 2 264 0
 912 002c 1A43     		orrs	r2, r2, r3
 266:Drivers/STM32F1xx_HAL_Driver/Src/stm32f1xx_ll_dma.c ****                         DMA_InitStruct->Priority);
ARM GAS  /tmp/ccwUacce.s 			page 48


 913              		.loc 2 266 0
 914 002e 7B68     		ldr	r3, [r7, #4]
 915 0030 5B6A     		ldr	r3, [r3, #36]
 260:Drivers/STM32F1xx_HAL_Driver/Src/stm32f1xx_ll_dma.c ****                         DMA_InitStruct->Mode                   | \
 916              		.loc 2 260 0
 917 0032 1343     		orrs	r3, r3, r2
 918 0034 1A46     		mov	r2, r3
 919 0036 B968     		ldr	r1, [r7, #8]
 920 0038 F868     		ldr	r0, [r7, #12]
 921 003a FFF7FEFF 		bl	LL_DMA_ConfigTransfer
 267:Drivers/STM32F1xx_HAL_Driver/Src/stm32f1xx_ll_dma.c **** 
 268:Drivers/STM32F1xx_HAL_Driver/Src/stm32f1xx_ll_dma.c ****   /*-------------------------- DMAx CMAR Configuration -------------------------
 269:Drivers/STM32F1xx_HAL_Driver/Src/stm32f1xx_ll_dma.c ****    * Configure the memory or destination base address with parameter :
 270:Drivers/STM32F1xx_HAL_Driver/Src/stm32f1xx_ll_dma.c ****    * - MemoryOrM2MDstAddress: DMA_CMAR_MA[31:0] bits
 271:Drivers/STM32F1xx_HAL_Driver/Src/stm32f1xx_ll_dma.c ****    */
 272:Drivers/STM32F1xx_HAL_Driver/Src/stm32f1xx_ll_dma.c ****   LL_DMA_SetMemoryAddress(DMAx, Channel, DMA_InitStruct->MemoryOrM2MDstAddress);
 922              		.loc 2 272 0
 923 003e 7B68     		ldr	r3, [r7, #4]
 924 0040 5B68     		ldr	r3, [r3, #4]
 925 0042 1A46     		mov	r2, r3
 926 0044 B968     		ldr	r1, [r7, #8]
 927 0046 F868     		ldr	r0, [r7, #12]
 928 0048 FFF7FEFF 		bl	LL_DMA_SetMemoryAddress
 273:Drivers/STM32F1xx_HAL_Driver/Src/stm32f1xx_ll_dma.c **** 
 274:Drivers/STM32F1xx_HAL_Driver/Src/stm32f1xx_ll_dma.c ****   /*-------------------------- DMAx CPAR Configuration -------------------------
 275:Drivers/STM32F1xx_HAL_Driver/Src/stm32f1xx_ll_dma.c ****    * Configure the peripheral or source base address with parameter :
 276:Drivers/STM32F1xx_HAL_Driver/Src/stm32f1xx_ll_dma.c ****    * - PeriphOrM2MSrcAddress: DMA_CPAR_PA[31:0] bits
 277:Drivers/STM32F1xx_HAL_Driver/Src/stm32f1xx_ll_dma.c ****    */
 278:Drivers/STM32F1xx_HAL_Driver/Src/stm32f1xx_ll_dma.c ****   LL_DMA_SetPeriphAddress(DMAx, Channel, DMA_InitStruct->PeriphOrM2MSrcAddress);
 929              		.loc 2 278 0
 930 004c 7B68     		ldr	r3, [r7, #4]
 931 004e 1B68     		ldr	r3, [r3]
 932 0050 1A46     		mov	r2, r3
 933 0052 B968     		ldr	r1, [r7, #8]
 934 0054 F868     		ldr	r0, [r7, #12]
 935 0056 FFF7FEFF 		bl	LL_DMA_SetPeriphAddress
 279:Drivers/STM32F1xx_HAL_Driver/Src/stm32f1xx_ll_dma.c **** 
 280:Drivers/STM32F1xx_HAL_Driver/Src/stm32f1xx_ll_dma.c ****   /*--------------------------- DMAx CNDTR Configuration -----------------------
 281:Drivers/STM32F1xx_HAL_Driver/Src/stm32f1xx_ll_dma.c ****    * Configure the peripheral base address with parameter :
 282:Drivers/STM32F1xx_HAL_Driver/Src/stm32f1xx_ll_dma.c ****    * - NbData: DMA_CNDTR_NDT[15:0] bits
 283:Drivers/STM32F1xx_HAL_Driver/Src/stm32f1xx_ll_dma.c ****    */
 284:Drivers/STM32F1xx_HAL_Driver/Src/stm32f1xx_ll_dma.c ****   LL_DMA_SetDataLength(DMAx, Channel, DMA_InitStruct->NbData);
 936              		.loc 2 284 0
 937 005a 7B68     		ldr	r3, [r7, #4]
 938 005c 1B6A     		ldr	r3, [r3, #32]
 939 005e 1A46     		mov	r2, r3
 940 0060 B968     		ldr	r1, [r7, #8]
 941 0062 F868     		ldr	r0, [r7, #12]
 942 0064 FFF7FEFF 		bl	LL_DMA_SetDataLength
 285:Drivers/STM32F1xx_HAL_Driver/Src/stm32f1xx_ll_dma.c **** 
 286:Drivers/STM32F1xx_HAL_Driver/Src/stm32f1xx_ll_dma.c ****   return SUCCESS;
 943              		.loc 2 286 0
 944 0068 0123     		movs	r3, #1
 287:Drivers/STM32F1xx_HAL_Driver/Src/stm32f1xx_ll_dma.c **** }
 945              		.loc 2 287 0
 946 006a 1846     		mov	r0, r3
 947 006c 1037     		adds	r7, r7, #16
ARM GAS  /tmp/ccwUacce.s 			page 49


 948              	.LCFI74:
 949              		.cfi_def_cfa_offset 8
 950 006e BD46     		mov	sp, r7
 951              	.LCFI75:
 952              		.cfi_def_cfa_register 13
 953              		@ sp needed
 954 0070 80BD     		pop	{r7, pc}
 955              		.cfi_endproc
 956              	.LFE171:
 958              		.section	.text.LL_DMA_StructInit,"ax",%progbits
 959              		.align	1
 960              		.global	LL_DMA_StructInit
 961              		.syntax unified
 962              		.thumb
 963              		.thumb_func
 964              		.fpu softvfp
 966              	LL_DMA_StructInit:
 967              	.LFB172:
 288:Drivers/STM32F1xx_HAL_Driver/Src/stm32f1xx_ll_dma.c **** 
 289:Drivers/STM32F1xx_HAL_Driver/Src/stm32f1xx_ll_dma.c **** /**
 290:Drivers/STM32F1xx_HAL_Driver/Src/stm32f1xx_ll_dma.c ****   * @brief  Set each @ref LL_DMA_InitTypeDef field to default value.
 291:Drivers/STM32F1xx_HAL_Driver/Src/stm32f1xx_ll_dma.c ****   * @param  DMA_InitStruct Pointer to a @ref LL_DMA_InitTypeDef structure.
 292:Drivers/STM32F1xx_HAL_Driver/Src/stm32f1xx_ll_dma.c ****   * @retval None
 293:Drivers/STM32F1xx_HAL_Driver/Src/stm32f1xx_ll_dma.c ****   */
 294:Drivers/STM32F1xx_HAL_Driver/Src/stm32f1xx_ll_dma.c **** void LL_DMA_StructInit(LL_DMA_InitTypeDef *DMA_InitStruct)
 295:Drivers/STM32F1xx_HAL_Driver/Src/stm32f1xx_ll_dma.c **** {
 968              		.loc 2 295 0
 969              		.cfi_startproc
 970              		@ args = 0, pretend = 0, frame = 8
 971              		@ frame_needed = 1, uses_anonymous_args = 0
 972              		@ link register save eliminated.
 973 0000 80B4     		push	{r7}
 974              	.LCFI76:
 975              		.cfi_def_cfa_offset 4
 976              		.cfi_offset 7, -4
 977 0002 83B0     		sub	sp, sp, #12
 978              	.LCFI77:
 979              		.cfi_def_cfa_offset 16
 980 0004 00AF     		add	r7, sp, #0
 981              	.LCFI78:
 982              		.cfi_def_cfa_register 7
 983 0006 7860     		str	r0, [r7, #4]
 296:Drivers/STM32F1xx_HAL_Driver/Src/stm32f1xx_ll_dma.c ****   /* Set DMA_InitStruct fields to default values */
 297:Drivers/STM32F1xx_HAL_Driver/Src/stm32f1xx_ll_dma.c ****   DMA_InitStruct->PeriphOrM2MSrcAddress  = 0x00000000U;
 984              		.loc 2 297 0
 985 0008 7B68     		ldr	r3, [r7, #4]
 986 000a 0022     		movs	r2, #0
 987 000c 1A60     		str	r2, [r3]
 298:Drivers/STM32F1xx_HAL_Driver/Src/stm32f1xx_ll_dma.c ****   DMA_InitStruct->MemoryOrM2MDstAddress  = 0x00000000U;
 988              		.loc 2 298 0
 989 000e 7B68     		ldr	r3, [r7, #4]
 990 0010 0022     		movs	r2, #0
 991 0012 5A60     		str	r2, [r3, #4]
 299:Drivers/STM32F1xx_HAL_Driver/Src/stm32f1xx_ll_dma.c ****   DMA_InitStruct->Direction              = LL_DMA_DIRECTION_PERIPH_TO_MEMORY;
 992              		.loc 2 299 0
 993 0014 7B68     		ldr	r3, [r7, #4]
 994 0016 0022     		movs	r2, #0
ARM GAS  /tmp/ccwUacce.s 			page 50


 995 0018 9A60     		str	r2, [r3, #8]
 300:Drivers/STM32F1xx_HAL_Driver/Src/stm32f1xx_ll_dma.c ****   DMA_InitStruct->Mode                   = LL_DMA_MODE_NORMAL;
 996              		.loc 2 300 0
 997 001a 7B68     		ldr	r3, [r7, #4]
 998 001c 0022     		movs	r2, #0
 999 001e DA60     		str	r2, [r3, #12]
 301:Drivers/STM32F1xx_HAL_Driver/Src/stm32f1xx_ll_dma.c ****   DMA_InitStruct->PeriphOrM2MSrcIncMode  = LL_DMA_PERIPH_NOINCREMENT;
 1000              		.loc 2 301 0
 1001 0020 7B68     		ldr	r3, [r7, #4]
 1002 0022 0022     		movs	r2, #0
 1003 0024 1A61     		str	r2, [r3, #16]
 302:Drivers/STM32F1xx_HAL_Driver/Src/stm32f1xx_ll_dma.c ****   DMA_InitStruct->MemoryOrM2MDstIncMode  = LL_DMA_MEMORY_NOINCREMENT;
 1004              		.loc 2 302 0
 1005 0026 7B68     		ldr	r3, [r7, #4]
 1006 0028 0022     		movs	r2, #0
 1007 002a 5A61     		str	r2, [r3, #20]
 303:Drivers/STM32F1xx_HAL_Driver/Src/stm32f1xx_ll_dma.c ****   DMA_InitStruct->PeriphOrM2MSrcDataSize = LL_DMA_PDATAALIGN_BYTE;
 1008              		.loc 2 303 0
 1009 002c 7B68     		ldr	r3, [r7, #4]
 1010 002e 0022     		movs	r2, #0
 1011 0030 9A61     		str	r2, [r3, #24]
 304:Drivers/STM32F1xx_HAL_Driver/Src/stm32f1xx_ll_dma.c ****   DMA_InitStruct->MemoryOrM2MDstDataSize = LL_DMA_MDATAALIGN_BYTE;
 1012              		.loc 2 304 0
 1013 0032 7B68     		ldr	r3, [r7, #4]
 1014 0034 0022     		movs	r2, #0
 1015 0036 DA61     		str	r2, [r3, #28]
 305:Drivers/STM32F1xx_HAL_Driver/Src/stm32f1xx_ll_dma.c ****   DMA_InitStruct->NbData                 = 0x00000000U;
 1016              		.loc 2 305 0
 1017 0038 7B68     		ldr	r3, [r7, #4]
 1018 003a 0022     		movs	r2, #0
 1019 003c 1A62     		str	r2, [r3, #32]
 306:Drivers/STM32F1xx_HAL_Driver/Src/stm32f1xx_ll_dma.c ****   DMA_InitStruct->Priority               = LL_DMA_PRIORITY_LOW;
 1020              		.loc 2 306 0
 1021 003e 7B68     		ldr	r3, [r7, #4]
 1022 0040 0022     		movs	r2, #0
 1023 0042 5A62     		str	r2, [r3, #36]
 307:Drivers/STM32F1xx_HAL_Driver/Src/stm32f1xx_ll_dma.c **** }
 1024              		.loc 2 307 0
 1025 0044 00BF     		nop
 1026 0046 0C37     		adds	r7, r7, #12
 1027              	.LCFI79:
 1028              		.cfi_def_cfa_offset 4
 1029 0048 BD46     		mov	sp, r7
 1030              	.LCFI80:
 1031              		.cfi_def_cfa_register 13
 1032              		@ sp needed
 1033 004a 80BC     		pop	{r7}
 1034              	.LCFI81:
 1035              		.cfi_restore 7
 1036              		.cfi_def_cfa_offset 0
 1037 004c 7047     		bx	lr
 1038              		.cfi_endproc
 1039              	.LFE172:
 1041              		.text
 1042              	.Letext0:
 1043              		.file 3 "/usr/include/newlib/machine/_default_types.h"
 1044              		.file 4 "/usr/include/newlib/sys/_stdint.h"
ARM GAS  /tmp/ccwUacce.s 			page 51


 1045              		.file 5 "Drivers/CMSIS/Include/core_cm3.h"
 1046              		.file 6 "Drivers/CMSIS/Device/ST/STM32F1xx/Include/system_stm32f1xx.h"
 1047              		.file 7 "Drivers/CMSIS/Device/ST/STM32F1xx/Include/stm32f103xb.h"
 1048              		.file 8 "Drivers/CMSIS/Device/ST/STM32F1xx/Include/stm32f1xx.h"
ARM GAS  /tmp/ccwUacce.s 			page 52

