ARM GAS  /tmp/ccHawOes.s 			page 1


   1              		.cpu cortex-m3
   2              		.eabi_attribute 20, 1
   3              		.eabi_attribute 21, 1
   4              		.eabi_attribute 23, 3
   5              		.eabi_attribute 24, 1
   6              		.eabi_attribute 25, 1
   7              		.eabi_attribute 26, 1
   8              		.eabi_attribute 30, 6
   9              		.eabi_attribute 34, 1
  10              		.eabi_attribute 18, 4
  11              		.file	"stm32f1xx_ll_exti.c"
  12              		.text
  13              	.Ltext0:
  14              		.cfi_sections	.debug_frame
  15              		.section	.text.LL_EXTI_EnableIT_0_31,"ax",%progbits
  16              		.align	1
  17              		.syntax unified
  18              		.thumb
  19              		.thumb_func
  20              		.fpu softvfp
  22              	LL_EXTI_EnableIT_0_31:
  23              	.LFB63:
  24              		.file 1 "Drivers/STM32F1xx_HAL_Driver/Inc/stm32f1xx_ll_exti.h"
   1:Drivers/STM32F1xx_HAL_Driver/Inc/stm32f1xx_ll_exti.h **** /**
   2:Drivers/STM32F1xx_HAL_Driver/Inc/stm32f1xx_ll_exti.h ****   ******************************************************************************
   3:Drivers/STM32F1xx_HAL_Driver/Inc/stm32f1xx_ll_exti.h ****   * @file    stm32f1xx_ll_exti.h
   4:Drivers/STM32F1xx_HAL_Driver/Inc/stm32f1xx_ll_exti.h ****   * @author  MCD Application Team
   5:Drivers/STM32F1xx_HAL_Driver/Inc/stm32f1xx_ll_exti.h ****   * @brief   Header file of EXTI LL module.
   6:Drivers/STM32F1xx_HAL_Driver/Inc/stm32f1xx_ll_exti.h ****   ******************************************************************************
   7:Drivers/STM32F1xx_HAL_Driver/Inc/stm32f1xx_ll_exti.h ****   * @attention
   8:Drivers/STM32F1xx_HAL_Driver/Inc/stm32f1xx_ll_exti.h ****   *
   9:Drivers/STM32F1xx_HAL_Driver/Inc/stm32f1xx_ll_exti.h ****   * <h2><center>&copy; COPYRIGHT(c) 2016 STMicroelectronics</center></h2>
  10:Drivers/STM32F1xx_HAL_Driver/Inc/stm32f1xx_ll_exti.h ****   *
  11:Drivers/STM32F1xx_HAL_Driver/Inc/stm32f1xx_ll_exti.h ****   * Redistribution and use in source and binary forms, with or without modification,
  12:Drivers/STM32F1xx_HAL_Driver/Inc/stm32f1xx_ll_exti.h ****   * are permitted provided that the following conditions are met:
  13:Drivers/STM32F1xx_HAL_Driver/Inc/stm32f1xx_ll_exti.h ****   *   1. Redistributions of source code must retain the above copyright notice,
  14:Drivers/STM32F1xx_HAL_Driver/Inc/stm32f1xx_ll_exti.h ****   *      this list of conditions and the following disclaimer.
  15:Drivers/STM32F1xx_HAL_Driver/Inc/stm32f1xx_ll_exti.h ****   *   2. Redistributions in binary form must reproduce the above copyright notice,
  16:Drivers/STM32F1xx_HAL_Driver/Inc/stm32f1xx_ll_exti.h ****   *      this list of conditions and the following disclaimer in the documentation
  17:Drivers/STM32F1xx_HAL_Driver/Inc/stm32f1xx_ll_exti.h ****   *      and/or other materials provided with the distribution.
  18:Drivers/STM32F1xx_HAL_Driver/Inc/stm32f1xx_ll_exti.h ****   *   3. Neither the name of STMicroelectronics nor the names of its contributors
  19:Drivers/STM32F1xx_HAL_Driver/Inc/stm32f1xx_ll_exti.h ****   *      may be used to endorse or promote products derived from this software
  20:Drivers/STM32F1xx_HAL_Driver/Inc/stm32f1xx_ll_exti.h ****   *      without specific prior written permission.
  21:Drivers/STM32F1xx_HAL_Driver/Inc/stm32f1xx_ll_exti.h ****   *
  22:Drivers/STM32F1xx_HAL_Driver/Inc/stm32f1xx_ll_exti.h ****   * THIS SOFTWARE IS PROVIDED BY THE COPYRIGHT HOLDERS AND CONTRIBUTORS "AS IS"
  23:Drivers/STM32F1xx_HAL_Driver/Inc/stm32f1xx_ll_exti.h ****   * AND ANY EXPRESS OR IMPLIED WARRANTIES, INCLUDING, BUT NOT LIMITED TO, THE
  24:Drivers/STM32F1xx_HAL_Driver/Inc/stm32f1xx_ll_exti.h ****   * IMPLIED WARRANTIES OF MERCHANTABILITY AND FITNESS FOR A PARTICULAR PURPOSE ARE
  25:Drivers/STM32F1xx_HAL_Driver/Inc/stm32f1xx_ll_exti.h ****   * DISCLAIMED. IN NO EVENT SHALL THE COPYRIGHT HOLDER OR CONTRIBUTORS BE LIABLE
  26:Drivers/STM32F1xx_HAL_Driver/Inc/stm32f1xx_ll_exti.h ****   * FOR ANY DIRECT, INDIRECT, INCIDENTAL, SPECIAL, EXEMPLARY, OR CONSEQUENTIAL
  27:Drivers/STM32F1xx_HAL_Driver/Inc/stm32f1xx_ll_exti.h ****   * DAMAGES (INCLUDING, BUT NOT LIMITED TO, PROCUREMENT OF SUBSTITUTE GOODS OR
  28:Drivers/STM32F1xx_HAL_Driver/Inc/stm32f1xx_ll_exti.h ****   * SERVICES; LOSS OF USE, DATA, OR PROFITS; OR BUSINESS INTERRUPTION) HOWEVER
  29:Drivers/STM32F1xx_HAL_Driver/Inc/stm32f1xx_ll_exti.h ****   * CAUSED AND ON ANY THEORY OF LIABILITY, WHETHER IN CONTRACT, STRICT LIABILITY,
  30:Drivers/STM32F1xx_HAL_Driver/Inc/stm32f1xx_ll_exti.h ****   * OR TORT (INCLUDING NEGLIGENCE OR OTHERWISE) ARISING IN ANY WAY OUT OF THE USE
  31:Drivers/STM32F1xx_HAL_Driver/Inc/stm32f1xx_ll_exti.h ****   * OF THIS SOFTWARE, EVEN IF ADVISED OF THE POSSIBILITY OF SUCH DAMAGE.
  32:Drivers/STM32F1xx_HAL_Driver/Inc/stm32f1xx_ll_exti.h ****   *
  33:Drivers/STM32F1xx_HAL_Driver/Inc/stm32f1xx_ll_exti.h ****   ******************************************************************************
  34:Drivers/STM32F1xx_HAL_Driver/Inc/stm32f1xx_ll_exti.h ****   */
ARM GAS  /tmp/ccHawOes.s 			page 2


  35:Drivers/STM32F1xx_HAL_Driver/Inc/stm32f1xx_ll_exti.h **** 
  36:Drivers/STM32F1xx_HAL_Driver/Inc/stm32f1xx_ll_exti.h **** /* Define to prevent recursive inclusion -------------------------------------*/
  37:Drivers/STM32F1xx_HAL_Driver/Inc/stm32f1xx_ll_exti.h **** #ifndef __STM32F1xx_LL_EXTI_H
  38:Drivers/STM32F1xx_HAL_Driver/Inc/stm32f1xx_ll_exti.h **** #define __STM32F1xx_LL_EXTI_H
  39:Drivers/STM32F1xx_HAL_Driver/Inc/stm32f1xx_ll_exti.h **** 
  40:Drivers/STM32F1xx_HAL_Driver/Inc/stm32f1xx_ll_exti.h **** #ifdef __cplusplus
  41:Drivers/STM32F1xx_HAL_Driver/Inc/stm32f1xx_ll_exti.h **** extern "C" {
  42:Drivers/STM32F1xx_HAL_Driver/Inc/stm32f1xx_ll_exti.h **** #endif
  43:Drivers/STM32F1xx_HAL_Driver/Inc/stm32f1xx_ll_exti.h **** 
  44:Drivers/STM32F1xx_HAL_Driver/Inc/stm32f1xx_ll_exti.h **** /* Includes ------------------------------------------------------------------*/
  45:Drivers/STM32F1xx_HAL_Driver/Inc/stm32f1xx_ll_exti.h **** #include "stm32f1xx.h"
  46:Drivers/STM32F1xx_HAL_Driver/Inc/stm32f1xx_ll_exti.h **** 
  47:Drivers/STM32F1xx_HAL_Driver/Inc/stm32f1xx_ll_exti.h **** /** @addtogroup STM32F1xx_LL_Driver
  48:Drivers/STM32F1xx_HAL_Driver/Inc/stm32f1xx_ll_exti.h ****   * @{
  49:Drivers/STM32F1xx_HAL_Driver/Inc/stm32f1xx_ll_exti.h ****   */
  50:Drivers/STM32F1xx_HAL_Driver/Inc/stm32f1xx_ll_exti.h **** 
  51:Drivers/STM32F1xx_HAL_Driver/Inc/stm32f1xx_ll_exti.h **** #if defined (EXTI)
  52:Drivers/STM32F1xx_HAL_Driver/Inc/stm32f1xx_ll_exti.h **** 
  53:Drivers/STM32F1xx_HAL_Driver/Inc/stm32f1xx_ll_exti.h **** /** @defgroup EXTI_LL EXTI
  54:Drivers/STM32F1xx_HAL_Driver/Inc/stm32f1xx_ll_exti.h ****   * @{
  55:Drivers/STM32F1xx_HAL_Driver/Inc/stm32f1xx_ll_exti.h ****   */
  56:Drivers/STM32F1xx_HAL_Driver/Inc/stm32f1xx_ll_exti.h **** 
  57:Drivers/STM32F1xx_HAL_Driver/Inc/stm32f1xx_ll_exti.h **** /* Private types -------------------------------------------------------------*/
  58:Drivers/STM32F1xx_HAL_Driver/Inc/stm32f1xx_ll_exti.h **** /* Private variables ---------------------------------------------------------*/
  59:Drivers/STM32F1xx_HAL_Driver/Inc/stm32f1xx_ll_exti.h **** /* Private constants ---------------------------------------------------------*/
  60:Drivers/STM32F1xx_HAL_Driver/Inc/stm32f1xx_ll_exti.h **** /* Private Macros ------------------------------------------------------------*/
  61:Drivers/STM32F1xx_HAL_Driver/Inc/stm32f1xx_ll_exti.h **** #if defined(USE_FULL_LL_DRIVER)
  62:Drivers/STM32F1xx_HAL_Driver/Inc/stm32f1xx_ll_exti.h **** /** @defgroup EXTI_LL_Private_Macros EXTI Private Macros
  63:Drivers/STM32F1xx_HAL_Driver/Inc/stm32f1xx_ll_exti.h ****   * @{
  64:Drivers/STM32F1xx_HAL_Driver/Inc/stm32f1xx_ll_exti.h ****   */
  65:Drivers/STM32F1xx_HAL_Driver/Inc/stm32f1xx_ll_exti.h **** /**
  66:Drivers/STM32F1xx_HAL_Driver/Inc/stm32f1xx_ll_exti.h ****   * @}
  67:Drivers/STM32F1xx_HAL_Driver/Inc/stm32f1xx_ll_exti.h ****   */
  68:Drivers/STM32F1xx_HAL_Driver/Inc/stm32f1xx_ll_exti.h **** #endif /*USE_FULL_LL_DRIVER*/
  69:Drivers/STM32F1xx_HAL_Driver/Inc/stm32f1xx_ll_exti.h **** /* Exported types ------------------------------------------------------------*/
  70:Drivers/STM32F1xx_HAL_Driver/Inc/stm32f1xx_ll_exti.h **** #if defined(USE_FULL_LL_DRIVER)
  71:Drivers/STM32F1xx_HAL_Driver/Inc/stm32f1xx_ll_exti.h **** /** @defgroup EXTI_LL_ES_INIT EXTI Exported Init structure
  72:Drivers/STM32F1xx_HAL_Driver/Inc/stm32f1xx_ll_exti.h ****   * @{
  73:Drivers/STM32F1xx_HAL_Driver/Inc/stm32f1xx_ll_exti.h ****   */
  74:Drivers/STM32F1xx_HAL_Driver/Inc/stm32f1xx_ll_exti.h **** typedef struct
  75:Drivers/STM32F1xx_HAL_Driver/Inc/stm32f1xx_ll_exti.h **** {
  76:Drivers/STM32F1xx_HAL_Driver/Inc/stm32f1xx_ll_exti.h **** 
  77:Drivers/STM32F1xx_HAL_Driver/Inc/stm32f1xx_ll_exti.h ****   uint32_t Line_0_31;           /*!< Specifies the EXTI lines to be enabled or disabled for Lines i
  78:Drivers/STM32F1xx_HAL_Driver/Inc/stm32f1xx_ll_exti.h ****                                      This parameter can be any combination of @ref EXTI_LL_EC_LINE 
  79:Drivers/STM32F1xx_HAL_Driver/Inc/stm32f1xx_ll_exti.h **** 
  80:Drivers/STM32F1xx_HAL_Driver/Inc/stm32f1xx_ll_exti.h ****   FunctionalState LineCommand;  /*!< Specifies the new state of the selected EXTI lines.
  81:Drivers/STM32F1xx_HAL_Driver/Inc/stm32f1xx_ll_exti.h ****                                      This parameter can be set either to ENABLE or DISABLE */
  82:Drivers/STM32F1xx_HAL_Driver/Inc/stm32f1xx_ll_exti.h **** 
  83:Drivers/STM32F1xx_HAL_Driver/Inc/stm32f1xx_ll_exti.h ****   uint8_t Mode;                 /*!< Specifies the mode for the EXTI lines.
  84:Drivers/STM32F1xx_HAL_Driver/Inc/stm32f1xx_ll_exti.h ****                                      This parameter can be a value of @ref EXTI_LL_EC_MODE. */
  85:Drivers/STM32F1xx_HAL_Driver/Inc/stm32f1xx_ll_exti.h **** 
  86:Drivers/STM32F1xx_HAL_Driver/Inc/stm32f1xx_ll_exti.h ****   uint8_t Trigger;              /*!< Specifies the trigger signal active edge for the EXTI lines.
  87:Drivers/STM32F1xx_HAL_Driver/Inc/stm32f1xx_ll_exti.h ****                                      This parameter can be a value of @ref EXTI_LL_EC_TRIGGER. */
  88:Drivers/STM32F1xx_HAL_Driver/Inc/stm32f1xx_ll_exti.h **** } LL_EXTI_InitTypeDef;
  89:Drivers/STM32F1xx_HAL_Driver/Inc/stm32f1xx_ll_exti.h **** 
  90:Drivers/STM32F1xx_HAL_Driver/Inc/stm32f1xx_ll_exti.h **** /**
  91:Drivers/STM32F1xx_HAL_Driver/Inc/stm32f1xx_ll_exti.h ****   * @}
ARM GAS  /tmp/ccHawOes.s 			page 3


  92:Drivers/STM32F1xx_HAL_Driver/Inc/stm32f1xx_ll_exti.h ****   */
  93:Drivers/STM32F1xx_HAL_Driver/Inc/stm32f1xx_ll_exti.h **** #endif /*USE_FULL_LL_DRIVER*/
  94:Drivers/STM32F1xx_HAL_Driver/Inc/stm32f1xx_ll_exti.h **** 
  95:Drivers/STM32F1xx_HAL_Driver/Inc/stm32f1xx_ll_exti.h **** /* Exported constants --------------------------------------------------------*/
  96:Drivers/STM32F1xx_HAL_Driver/Inc/stm32f1xx_ll_exti.h **** /** @defgroup EXTI_LL_Exported_Constants EXTI Exported Constants
  97:Drivers/STM32F1xx_HAL_Driver/Inc/stm32f1xx_ll_exti.h ****   * @{
  98:Drivers/STM32F1xx_HAL_Driver/Inc/stm32f1xx_ll_exti.h ****   */
  99:Drivers/STM32F1xx_HAL_Driver/Inc/stm32f1xx_ll_exti.h **** 
 100:Drivers/STM32F1xx_HAL_Driver/Inc/stm32f1xx_ll_exti.h **** /** @defgroup EXTI_LL_EC_LINE LINE
 101:Drivers/STM32F1xx_HAL_Driver/Inc/stm32f1xx_ll_exti.h ****   * @{
 102:Drivers/STM32F1xx_HAL_Driver/Inc/stm32f1xx_ll_exti.h ****   */
 103:Drivers/STM32F1xx_HAL_Driver/Inc/stm32f1xx_ll_exti.h **** #define LL_EXTI_LINE_0                 EXTI_IMR_IM0           /*!< Extended line 0 */
 104:Drivers/STM32F1xx_HAL_Driver/Inc/stm32f1xx_ll_exti.h **** #define LL_EXTI_LINE_1                 EXTI_IMR_IM1           /*!< Extended line 1 */
 105:Drivers/STM32F1xx_HAL_Driver/Inc/stm32f1xx_ll_exti.h **** #define LL_EXTI_LINE_2                 EXTI_IMR_IM2           /*!< Extended line 2 */
 106:Drivers/STM32F1xx_HAL_Driver/Inc/stm32f1xx_ll_exti.h **** #define LL_EXTI_LINE_3                 EXTI_IMR_IM3           /*!< Extended line 3 */
 107:Drivers/STM32F1xx_HAL_Driver/Inc/stm32f1xx_ll_exti.h **** #define LL_EXTI_LINE_4                 EXTI_IMR_IM4           /*!< Extended line 4 */
 108:Drivers/STM32F1xx_HAL_Driver/Inc/stm32f1xx_ll_exti.h **** #define LL_EXTI_LINE_5                 EXTI_IMR_IM5           /*!< Extended line 5 */
 109:Drivers/STM32F1xx_HAL_Driver/Inc/stm32f1xx_ll_exti.h **** #define LL_EXTI_LINE_6                 EXTI_IMR_IM6           /*!< Extended line 6 */
 110:Drivers/STM32F1xx_HAL_Driver/Inc/stm32f1xx_ll_exti.h **** #define LL_EXTI_LINE_7                 EXTI_IMR_IM7           /*!< Extended line 7 */
 111:Drivers/STM32F1xx_HAL_Driver/Inc/stm32f1xx_ll_exti.h **** #define LL_EXTI_LINE_8                 EXTI_IMR_IM8           /*!< Extended line 8 */
 112:Drivers/STM32F1xx_HAL_Driver/Inc/stm32f1xx_ll_exti.h **** #define LL_EXTI_LINE_9                 EXTI_IMR_IM9           /*!< Extended line 9 */
 113:Drivers/STM32F1xx_HAL_Driver/Inc/stm32f1xx_ll_exti.h **** #define LL_EXTI_LINE_10                EXTI_IMR_IM10          /*!< Extended line 10 */
 114:Drivers/STM32F1xx_HAL_Driver/Inc/stm32f1xx_ll_exti.h **** #define LL_EXTI_LINE_11                EXTI_IMR_IM11          /*!< Extended line 11 */
 115:Drivers/STM32F1xx_HAL_Driver/Inc/stm32f1xx_ll_exti.h **** #define LL_EXTI_LINE_12                EXTI_IMR_IM12          /*!< Extended line 12 */
 116:Drivers/STM32F1xx_HAL_Driver/Inc/stm32f1xx_ll_exti.h **** #define LL_EXTI_LINE_13                EXTI_IMR_IM13          /*!< Extended line 13 */
 117:Drivers/STM32F1xx_HAL_Driver/Inc/stm32f1xx_ll_exti.h **** #define LL_EXTI_LINE_14                EXTI_IMR_IM14          /*!< Extended line 14 */
 118:Drivers/STM32F1xx_HAL_Driver/Inc/stm32f1xx_ll_exti.h **** #define LL_EXTI_LINE_15                EXTI_IMR_IM15          /*!< Extended line 15 */
 119:Drivers/STM32F1xx_HAL_Driver/Inc/stm32f1xx_ll_exti.h **** #if defined(EXTI_IMR_IM16)
 120:Drivers/STM32F1xx_HAL_Driver/Inc/stm32f1xx_ll_exti.h **** #define LL_EXTI_LINE_16                EXTI_IMR_IM16          /*!< Extended line 16 */
 121:Drivers/STM32F1xx_HAL_Driver/Inc/stm32f1xx_ll_exti.h **** #endif
 122:Drivers/STM32F1xx_HAL_Driver/Inc/stm32f1xx_ll_exti.h **** #define LL_EXTI_LINE_17                EXTI_IMR_IM17          /*!< Extended line 17 */
 123:Drivers/STM32F1xx_HAL_Driver/Inc/stm32f1xx_ll_exti.h **** #if defined(EXTI_IMR_IM18)
 124:Drivers/STM32F1xx_HAL_Driver/Inc/stm32f1xx_ll_exti.h **** #define LL_EXTI_LINE_18                EXTI_IMR_IM18          /*!< Extended line 18 */
 125:Drivers/STM32F1xx_HAL_Driver/Inc/stm32f1xx_ll_exti.h **** #endif
 126:Drivers/STM32F1xx_HAL_Driver/Inc/stm32f1xx_ll_exti.h **** #if defined(EXTI_IMR_IM19)
 127:Drivers/STM32F1xx_HAL_Driver/Inc/stm32f1xx_ll_exti.h **** #define LL_EXTI_LINE_19                EXTI_IMR_IM19          /*!< Extended line 19 */
 128:Drivers/STM32F1xx_HAL_Driver/Inc/stm32f1xx_ll_exti.h **** #endif
 129:Drivers/STM32F1xx_HAL_Driver/Inc/stm32f1xx_ll_exti.h **** #if defined(EXTI_IMR_IM20)
 130:Drivers/STM32F1xx_HAL_Driver/Inc/stm32f1xx_ll_exti.h **** #define LL_EXTI_LINE_20                EXTI_IMR_IM20          /*!< Extended line 20 */
 131:Drivers/STM32F1xx_HAL_Driver/Inc/stm32f1xx_ll_exti.h **** #endif
 132:Drivers/STM32F1xx_HAL_Driver/Inc/stm32f1xx_ll_exti.h **** #if defined(EXTI_IMR_IM21)
 133:Drivers/STM32F1xx_HAL_Driver/Inc/stm32f1xx_ll_exti.h **** #define LL_EXTI_LINE_21                EXTI_IMR_IM21          /*!< Extended line 21 */
 134:Drivers/STM32F1xx_HAL_Driver/Inc/stm32f1xx_ll_exti.h **** #endif
 135:Drivers/STM32F1xx_HAL_Driver/Inc/stm32f1xx_ll_exti.h **** #if defined(EXTI_IMR_IM22)
 136:Drivers/STM32F1xx_HAL_Driver/Inc/stm32f1xx_ll_exti.h **** #define LL_EXTI_LINE_22                EXTI_IMR_IM22          /*!< Extended line 22 */
 137:Drivers/STM32F1xx_HAL_Driver/Inc/stm32f1xx_ll_exti.h **** #endif
 138:Drivers/STM32F1xx_HAL_Driver/Inc/stm32f1xx_ll_exti.h **** #if defined(EXTI_IMR_IM23)
 139:Drivers/STM32F1xx_HAL_Driver/Inc/stm32f1xx_ll_exti.h **** #define LL_EXTI_LINE_23                EXTI_IMR_IM23          /*!< Extended line 23 */
 140:Drivers/STM32F1xx_HAL_Driver/Inc/stm32f1xx_ll_exti.h **** #endif
 141:Drivers/STM32F1xx_HAL_Driver/Inc/stm32f1xx_ll_exti.h **** #if defined(EXTI_IMR_IM24)
 142:Drivers/STM32F1xx_HAL_Driver/Inc/stm32f1xx_ll_exti.h **** #define LL_EXTI_LINE_24                EXTI_IMR_IM24          /*!< Extended line 24 */
 143:Drivers/STM32F1xx_HAL_Driver/Inc/stm32f1xx_ll_exti.h **** #endif
 144:Drivers/STM32F1xx_HAL_Driver/Inc/stm32f1xx_ll_exti.h **** #if defined(EXTI_IMR_IM25)
 145:Drivers/STM32F1xx_HAL_Driver/Inc/stm32f1xx_ll_exti.h **** #define LL_EXTI_LINE_25                EXTI_IMR_IM25          /*!< Extended line 25 */
 146:Drivers/STM32F1xx_HAL_Driver/Inc/stm32f1xx_ll_exti.h **** #endif
 147:Drivers/STM32F1xx_HAL_Driver/Inc/stm32f1xx_ll_exti.h **** #if defined(EXTI_IMR_IM26)
 148:Drivers/STM32F1xx_HAL_Driver/Inc/stm32f1xx_ll_exti.h **** #define LL_EXTI_LINE_26                EXTI_IMR_IM26          /*!< Extended line 26 */
ARM GAS  /tmp/ccHawOes.s 			page 4


 149:Drivers/STM32F1xx_HAL_Driver/Inc/stm32f1xx_ll_exti.h **** #endif
 150:Drivers/STM32F1xx_HAL_Driver/Inc/stm32f1xx_ll_exti.h **** #if defined(EXTI_IMR_IM27)
 151:Drivers/STM32F1xx_HAL_Driver/Inc/stm32f1xx_ll_exti.h **** #define LL_EXTI_LINE_27                EXTI_IMR_IM27          /*!< Extended line 27 */
 152:Drivers/STM32F1xx_HAL_Driver/Inc/stm32f1xx_ll_exti.h **** #endif
 153:Drivers/STM32F1xx_HAL_Driver/Inc/stm32f1xx_ll_exti.h **** #if defined(EXTI_IMR_IM28)
 154:Drivers/STM32F1xx_HAL_Driver/Inc/stm32f1xx_ll_exti.h **** #define LL_EXTI_LINE_28                EXTI_IMR_IM28          /*!< Extended line 28 */
 155:Drivers/STM32F1xx_HAL_Driver/Inc/stm32f1xx_ll_exti.h **** #endif
 156:Drivers/STM32F1xx_HAL_Driver/Inc/stm32f1xx_ll_exti.h **** #if defined(EXTI_IMR_IM29)
 157:Drivers/STM32F1xx_HAL_Driver/Inc/stm32f1xx_ll_exti.h **** #define LL_EXTI_LINE_29                EXTI_IMR_IM29          /*!< Extended line 29 */
 158:Drivers/STM32F1xx_HAL_Driver/Inc/stm32f1xx_ll_exti.h **** #endif
 159:Drivers/STM32F1xx_HAL_Driver/Inc/stm32f1xx_ll_exti.h **** #if defined(EXTI_IMR_IM30)
 160:Drivers/STM32F1xx_HAL_Driver/Inc/stm32f1xx_ll_exti.h **** #define LL_EXTI_LINE_30                EXTI_IMR_IM30          /*!< Extended line 30 */
 161:Drivers/STM32F1xx_HAL_Driver/Inc/stm32f1xx_ll_exti.h **** #endif
 162:Drivers/STM32F1xx_HAL_Driver/Inc/stm32f1xx_ll_exti.h **** #if defined(EXTI_IMR_IM31)
 163:Drivers/STM32F1xx_HAL_Driver/Inc/stm32f1xx_ll_exti.h **** #define LL_EXTI_LINE_31                EXTI_IMR_IM31          /*!< Extended line 31 */
 164:Drivers/STM32F1xx_HAL_Driver/Inc/stm32f1xx_ll_exti.h **** #endif
 165:Drivers/STM32F1xx_HAL_Driver/Inc/stm32f1xx_ll_exti.h **** #define LL_EXTI_LINE_ALL_0_31          EXTI_IMR_IM            /*!< All Extended line not reserved*/
 166:Drivers/STM32F1xx_HAL_Driver/Inc/stm32f1xx_ll_exti.h **** 
 167:Drivers/STM32F1xx_HAL_Driver/Inc/stm32f1xx_ll_exti.h **** 
 168:Drivers/STM32F1xx_HAL_Driver/Inc/stm32f1xx_ll_exti.h **** #define LL_EXTI_LINE_ALL               (0xFFFFFFFFU)  /*!< All Extended line */
 169:Drivers/STM32F1xx_HAL_Driver/Inc/stm32f1xx_ll_exti.h **** 
 170:Drivers/STM32F1xx_HAL_Driver/Inc/stm32f1xx_ll_exti.h **** #if defined(USE_FULL_LL_DRIVER)
 171:Drivers/STM32F1xx_HAL_Driver/Inc/stm32f1xx_ll_exti.h **** #define LL_EXTI_LINE_NONE              (0x00000000U)  /*!< None Extended line */
 172:Drivers/STM32F1xx_HAL_Driver/Inc/stm32f1xx_ll_exti.h **** #endif /*USE_FULL_LL_DRIVER*/
 173:Drivers/STM32F1xx_HAL_Driver/Inc/stm32f1xx_ll_exti.h **** 
 174:Drivers/STM32F1xx_HAL_Driver/Inc/stm32f1xx_ll_exti.h **** /**
 175:Drivers/STM32F1xx_HAL_Driver/Inc/stm32f1xx_ll_exti.h ****   * @}
 176:Drivers/STM32F1xx_HAL_Driver/Inc/stm32f1xx_ll_exti.h ****   */
 177:Drivers/STM32F1xx_HAL_Driver/Inc/stm32f1xx_ll_exti.h **** #if defined(USE_FULL_LL_DRIVER)
 178:Drivers/STM32F1xx_HAL_Driver/Inc/stm32f1xx_ll_exti.h **** 
 179:Drivers/STM32F1xx_HAL_Driver/Inc/stm32f1xx_ll_exti.h **** /** @defgroup EXTI_LL_EC_MODE Mode
 180:Drivers/STM32F1xx_HAL_Driver/Inc/stm32f1xx_ll_exti.h ****   * @{
 181:Drivers/STM32F1xx_HAL_Driver/Inc/stm32f1xx_ll_exti.h ****   */
 182:Drivers/STM32F1xx_HAL_Driver/Inc/stm32f1xx_ll_exti.h **** #define LL_EXTI_MODE_IT                 ((uint8_t)0x00) /*!< Interrupt Mode */
 183:Drivers/STM32F1xx_HAL_Driver/Inc/stm32f1xx_ll_exti.h **** #define LL_EXTI_MODE_EVENT              ((uint8_t)0x01) /*!< Event Mode */
 184:Drivers/STM32F1xx_HAL_Driver/Inc/stm32f1xx_ll_exti.h **** #define LL_EXTI_MODE_IT_EVENT           ((uint8_t)0x02) /*!< Interrupt & Event Mode */
 185:Drivers/STM32F1xx_HAL_Driver/Inc/stm32f1xx_ll_exti.h **** /**
 186:Drivers/STM32F1xx_HAL_Driver/Inc/stm32f1xx_ll_exti.h ****   * @}
 187:Drivers/STM32F1xx_HAL_Driver/Inc/stm32f1xx_ll_exti.h ****   */
 188:Drivers/STM32F1xx_HAL_Driver/Inc/stm32f1xx_ll_exti.h **** 
 189:Drivers/STM32F1xx_HAL_Driver/Inc/stm32f1xx_ll_exti.h **** /** @defgroup EXTI_LL_EC_TRIGGER Edge Trigger
 190:Drivers/STM32F1xx_HAL_Driver/Inc/stm32f1xx_ll_exti.h ****   * @{
 191:Drivers/STM32F1xx_HAL_Driver/Inc/stm32f1xx_ll_exti.h ****   */
 192:Drivers/STM32F1xx_HAL_Driver/Inc/stm32f1xx_ll_exti.h **** #define LL_EXTI_TRIGGER_NONE            ((uint8_t)0x00) /*!< No Trigger Mode */
 193:Drivers/STM32F1xx_HAL_Driver/Inc/stm32f1xx_ll_exti.h **** #define LL_EXTI_TRIGGER_RISING          ((uint8_t)0x01) /*!< Trigger Rising Mode */
 194:Drivers/STM32F1xx_HAL_Driver/Inc/stm32f1xx_ll_exti.h **** #define LL_EXTI_TRIGGER_FALLING         ((uint8_t)0x02) /*!< Trigger Falling Mode */
 195:Drivers/STM32F1xx_HAL_Driver/Inc/stm32f1xx_ll_exti.h **** #define LL_EXTI_TRIGGER_RISING_FALLING  ((uint8_t)0x03) /*!< Trigger Rising & Falling Mode */
 196:Drivers/STM32F1xx_HAL_Driver/Inc/stm32f1xx_ll_exti.h **** 
 197:Drivers/STM32F1xx_HAL_Driver/Inc/stm32f1xx_ll_exti.h **** /**
 198:Drivers/STM32F1xx_HAL_Driver/Inc/stm32f1xx_ll_exti.h ****   * @}
 199:Drivers/STM32F1xx_HAL_Driver/Inc/stm32f1xx_ll_exti.h ****   */
 200:Drivers/STM32F1xx_HAL_Driver/Inc/stm32f1xx_ll_exti.h **** 
 201:Drivers/STM32F1xx_HAL_Driver/Inc/stm32f1xx_ll_exti.h **** 
 202:Drivers/STM32F1xx_HAL_Driver/Inc/stm32f1xx_ll_exti.h **** #endif /*USE_FULL_LL_DRIVER*/
 203:Drivers/STM32F1xx_HAL_Driver/Inc/stm32f1xx_ll_exti.h **** 
 204:Drivers/STM32F1xx_HAL_Driver/Inc/stm32f1xx_ll_exti.h **** 
 205:Drivers/STM32F1xx_HAL_Driver/Inc/stm32f1xx_ll_exti.h **** /**
ARM GAS  /tmp/ccHawOes.s 			page 5


 206:Drivers/STM32F1xx_HAL_Driver/Inc/stm32f1xx_ll_exti.h ****   * @}
 207:Drivers/STM32F1xx_HAL_Driver/Inc/stm32f1xx_ll_exti.h ****   */
 208:Drivers/STM32F1xx_HAL_Driver/Inc/stm32f1xx_ll_exti.h **** 
 209:Drivers/STM32F1xx_HAL_Driver/Inc/stm32f1xx_ll_exti.h **** /* Exported macro ------------------------------------------------------------*/
 210:Drivers/STM32F1xx_HAL_Driver/Inc/stm32f1xx_ll_exti.h **** /** @defgroup EXTI_LL_Exported_Macros EXTI Exported Macros
 211:Drivers/STM32F1xx_HAL_Driver/Inc/stm32f1xx_ll_exti.h ****   * @{
 212:Drivers/STM32F1xx_HAL_Driver/Inc/stm32f1xx_ll_exti.h ****   */
 213:Drivers/STM32F1xx_HAL_Driver/Inc/stm32f1xx_ll_exti.h **** 
 214:Drivers/STM32F1xx_HAL_Driver/Inc/stm32f1xx_ll_exti.h **** /** @defgroup EXTI_LL_EM_WRITE_READ Common Write and read registers Macros
 215:Drivers/STM32F1xx_HAL_Driver/Inc/stm32f1xx_ll_exti.h ****   * @{
 216:Drivers/STM32F1xx_HAL_Driver/Inc/stm32f1xx_ll_exti.h ****   */
 217:Drivers/STM32F1xx_HAL_Driver/Inc/stm32f1xx_ll_exti.h **** 
 218:Drivers/STM32F1xx_HAL_Driver/Inc/stm32f1xx_ll_exti.h **** /**
 219:Drivers/STM32F1xx_HAL_Driver/Inc/stm32f1xx_ll_exti.h ****   * @brief  Write a value in EXTI register
 220:Drivers/STM32F1xx_HAL_Driver/Inc/stm32f1xx_ll_exti.h ****   * @param  __REG__ Register to be written
 221:Drivers/STM32F1xx_HAL_Driver/Inc/stm32f1xx_ll_exti.h ****   * @param  __VALUE__ Value to be written in the register
 222:Drivers/STM32F1xx_HAL_Driver/Inc/stm32f1xx_ll_exti.h ****   * @retval None
 223:Drivers/STM32F1xx_HAL_Driver/Inc/stm32f1xx_ll_exti.h ****   */
 224:Drivers/STM32F1xx_HAL_Driver/Inc/stm32f1xx_ll_exti.h **** #define LL_EXTI_WriteReg(__REG__, __VALUE__) WRITE_REG(EXTI->__REG__, (__VALUE__))
 225:Drivers/STM32F1xx_HAL_Driver/Inc/stm32f1xx_ll_exti.h **** 
 226:Drivers/STM32F1xx_HAL_Driver/Inc/stm32f1xx_ll_exti.h **** /**
 227:Drivers/STM32F1xx_HAL_Driver/Inc/stm32f1xx_ll_exti.h ****   * @brief  Read a value in EXTI register
 228:Drivers/STM32F1xx_HAL_Driver/Inc/stm32f1xx_ll_exti.h ****   * @param  __REG__ Register to be read
 229:Drivers/STM32F1xx_HAL_Driver/Inc/stm32f1xx_ll_exti.h ****   * @retval Register value
 230:Drivers/STM32F1xx_HAL_Driver/Inc/stm32f1xx_ll_exti.h ****   */
 231:Drivers/STM32F1xx_HAL_Driver/Inc/stm32f1xx_ll_exti.h **** #define LL_EXTI_ReadReg(__REG__) READ_REG(EXTI->__REG__)
 232:Drivers/STM32F1xx_HAL_Driver/Inc/stm32f1xx_ll_exti.h **** /**
 233:Drivers/STM32F1xx_HAL_Driver/Inc/stm32f1xx_ll_exti.h ****   * @}
 234:Drivers/STM32F1xx_HAL_Driver/Inc/stm32f1xx_ll_exti.h ****   */
 235:Drivers/STM32F1xx_HAL_Driver/Inc/stm32f1xx_ll_exti.h **** 
 236:Drivers/STM32F1xx_HAL_Driver/Inc/stm32f1xx_ll_exti.h **** 
 237:Drivers/STM32F1xx_HAL_Driver/Inc/stm32f1xx_ll_exti.h **** /**
 238:Drivers/STM32F1xx_HAL_Driver/Inc/stm32f1xx_ll_exti.h ****   * @}
 239:Drivers/STM32F1xx_HAL_Driver/Inc/stm32f1xx_ll_exti.h ****   */
 240:Drivers/STM32F1xx_HAL_Driver/Inc/stm32f1xx_ll_exti.h **** 
 241:Drivers/STM32F1xx_HAL_Driver/Inc/stm32f1xx_ll_exti.h **** 
 242:Drivers/STM32F1xx_HAL_Driver/Inc/stm32f1xx_ll_exti.h **** 
 243:Drivers/STM32F1xx_HAL_Driver/Inc/stm32f1xx_ll_exti.h **** /* Exported functions --------------------------------------------------------*/
 244:Drivers/STM32F1xx_HAL_Driver/Inc/stm32f1xx_ll_exti.h **** /** @defgroup EXTI_LL_Exported_Functions EXTI Exported Functions
 245:Drivers/STM32F1xx_HAL_Driver/Inc/stm32f1xx_ll_exti.h ****  * @{
 246:Drivers/STM32F1xx_HAL_Driver/Inc/stm32f1xx_ll_exti.h ****  */
 247:Drivers/STM32F1xx_HAL_Driver/Inc/stm32f1xx_ll_exti.h **** /** @defgroup EXTI_LL_EF_IT_Management IT_Management
 248:Drivers/STM32F1xx_HAL_Driver/Inc/stm32f1xx_ll_exti.h ****   * @{
 249:Drivers/STM32F1xx_HAL_Driver/Inc/stm32f1xx_ll_exti.h ****   */
 250:Drivers/STM32F1xx_HAL_Driver/Inc/stm32f1xx_ll_exti.h **** 
 251:Drivers/STM32F1xx_HAL_Driver/Inc/stm32f1xx_ll_exti.h **** /**
 252:Drivers/STM32F1xx_HAL_Driver/Inc/stm32f1xx_ll_exti.h ****   * @brief  Enable ExtiLine Interrupt request for Lines in range 0 to 31
 253:Drivers/STM32F1xx_HAL_Driver/Inc/stm32f1xx_ll_exti.h ****   * @note The reset value for the direct or internal lines (see RM)
 254:Drivers/STM32F1xx_HAL_Driver/Inc/stm32f1xx_ll_exti.h ****   *       is set to 1 in order to enable the interrupt by default.
 255:Drivers/STM32F1xx_HAL_Driver/Inc/stm32f1xx_ll_exti.h ****   *       Bits are set automatically at Power on.
 256:Drivers/STM32F1xx_HAL_Driver/Inc/stm32f1xx_ll_exti.h ****   * @rmtoll IMR         IMx           LL_EXTI_EnableIT_0_31
 257:Drivers/STM32F1xx_HAL_Driver/Inc/stm32f1xx_ll_exti.h ****   * @param  ExtiLine This parameter can be one of the following values:
 258:Drivers/STM32F1xx_HAL_Driver/Inc/stm32f1xx_ll_exti.h ****   *         @arg @ref LL_EXTI_LINE_0
 259:Drivers/STM32F1xx_HAL_Driver/Inc/stm32f1xx_ll_exti.h ****   *         @arg @ref LL_EXTI_LINE_1
 260:Drivers/STM32F1xx_HAL_Driver/Inc/stm32f1xx_ll_exti.h ****   *         @arg @ref LL_EXTI_LINE_2
 261:Drivers/STM32F1xx_HAL_Driver/Inc/stm32f1xx_ll_exti.h ****   *         @arg @ref LL_EXTI_LINE_3
 262:Drivers/STM32F1xx_HAL_Driver/Inc/stm32f1xx_ll_exti.h ****   *         @arg @ref LL_EXTI_LINE_4
ARM GAS  /tmp/ccHawOes.s 			page 6


 263:Drivers/STM32F1xx_HAL_Driver/Inc/stm32f1xx_ll_exti.h ****   *         @arg @ref LL_EXTI_LINE_5
 264:Drivers/STM32F1xx_HAL_Driver/Inc/stm32f1xx_ll_exti.h ****   *         @arg @ref LL_EXTI_LINE_6
 265:Drivers/STM32F1xx_HAL_Driver/Inc/stm32f1xx_ll_exti.h ****   *         @arg @ref LL_EXTI_LINE_7
 266:Drivers/STM32F1xx_HAL_Driver/Inc/stm32f1xx_ll_exti.h ****   *         @arg @ref LL_EXTI_LINE_8
 267:Drivers/STM32F1xx_HAL_Driver/Inc/stm32f1xx_ll_exti.h ****   *         @arg @ref LL_EXTI_LINE_9
 268:Drivers/STM32F1xx_HAL_Driver/Inc/stm32f1xx_ll_exti.h ****   *         @arg @ref LL_EXTI_LINE_10
 269:Drivers/STM32F1xx_HAL_Driver/Inc/stm32f1xx_ll_exti.h ****   *         @arg @ref LL_EXTI_LINE_11
 270:Drivers/STM32F1xx_HAL_Driver/Inc/stm32f1xx_ll_exti.h ****   *         @arg @ref LL_EXTI_LINE_12
 271:Drivers/STM32F1xx_HAL_Driver/Inc/stm32f1xx_ll_exti.h ****   *         @arg @ref LL_EXTI_LINE_13
 272:Drivers/STM32F1xx_HAL_Driver/Inc/stm32f1xx_ll_exti.h ****   *         @arg @ref LL_EXTI_LINE_14
 273:Drivers/STM32F1xx_HAL_Driver/Inc/stm32f1xx_ll_exti.h ****   *         @arg @ref LL_EXTI_LINE_15
 274:Drivers/STM32F1xx_HAL_Driver/Inc/stm32f1xx_ll_exti.h ****   *         @arg @ref LL_EXTI_LINE_16
 275:Drivers/STM32F1xx_HAL_Driver/Inc/stm32f1xx_ll_exti.h ****   *         @arg @ref LL_EXTI_LINE_17
 276:Drivers/STM32F1xx_HAL_Driver/Inc/stm32f1xx_ll_exti.h ****   *         @arg @ref LL_EXTI_LINE_18
 277:Drivers/STM32F1xx_HAL_Driver/Inc/stm32f1xx_ll_exti.h ****   *         @arg @ref LL_EXTI_LINE_19
 278:Drivers/STM32F1xx_HAL_Driver/Inc/stm32f1xx_ll_exti.h ****   *         @arg @ref LL_EXTI_LINE_ALL_0_31
 279:Drivers/STM32F1xx_HAL_Driver/Inc/stm32f1xx_ll_exti.h ****   * @note   Please check each device line mapping for EXTI Line availability
 280:Drivers/STM32F1xx_HAL_Driver/Inc/stm32f1xx_ll_exti.h ****   * @retval None
 281:Drivers/STM32F1xx_HAL_Driver/Inc/stm32f1xx_ll_exti.h ****   */
 282:Drivers/STM32F1xx_HAL_Driver/Inc/stm32f1xx_ll_exti.h **** __STATIC_INLINE void LL_EXTI_EnableIT_0_31(uint32_t ExtiLine)
 283:Drivers/STM32F1xx_HAL_Driver/Inc/stm32f1xx_ll_exti.h **** {
  25              		.loc 1 283 0
  26              		.cfi_startproc
  27              		@ args = 0, pretend = 0, frame = 8
  28              		@ frame_needed = 1, uses_anonymous_args = 0
  29              		@ link register save eliminated.
  30 0000 80B4     		push	{r7}
  31              	.LCFI0:
  32              		.cfi_def_cfa_offset 4
  33              		.cfi_offset 7, -4
  34 0002 83B0     		sub	sp, sp, #12
  35              	.LCFI1:
  36              		.cfi_def_cfa_offset 16
  37 0004 00AF     		add	r7, sp, #0
  38              	.LCFI2:
  39              		.cfi_def_cfa_register 7
  40 0006 7860     		str	r0, [r7, #4]
 284:Drivers/STM32F1xx_HAL_Driver/Inc/stm32f1xx_ll_exti.h ****   SET_BIT(EXTI->IMR, ExtiLine);
  41              		.loc 1 284 0
  42 0008 054B     		ldr	r3, .L2
  43 000a 1A68     		ldr	r2, [r3]
  44 000c 0449     		ldr	r1, .L2
  45 000e 7B68     		ldr	r3, [r7, #4]
  46 0010 1343     		orrs	r3, r3, r2
  47 0012 0B60     		str	r3, [r1]
 285:Drivers/STM32F1xx_HAL_Driver/Inc/stm32f1xx_ll_exti.h **** }
  48              		.loc 1 285 0
  49 0014 00BF     		nop
  50 0016 0C37     		adds	r7, r7, #12
  51              	.LCFI3:
  52              		.cfi_def_cfa_offset 4
  53 0018 BD46     		mov	sp, r7
  54              	.LCFI4:
  55              		.cfi_def_cfa_register 13
  56              		@ sp needed
  57 001a 80BC     		pop	{r7}
  58              	.LCFI5:
ARM GAS  /tmp/ccHawOes.s 			page 7


  59              		.cfi_restore 7
  60              		.cfi_def_cfa_offset 0
  61 001c 7047     		bx	lr
  62              	.L3:
  63 001e 00BF     		.align	2
  64              	.L2:
  65 0020 00040140 		.word	1073808384
  66              		.cfi_endproc
  67              	.LFE63:
  69              		.section	.text.LL_EXTI_DisableIT_0_31,"ax",%progbits
  70              		.align	1
  71              		.syntax unified
  72              		.thumb
  73              		.thumb_func
  74              		.fpu softvfp
  76              	LL_EXTI_DisableIT_0_31:
  77              	.LFB64:
 286:Drivers/STM32F1xx_HAL_Driver/Inc/stm32f1xx_ll_exti.h **** 
 287:Drivers/STM32F1xx_HAL_Driver/Inc/stm32f1xx_ll_exti.h **** /**
 288:Drivers/STM32F1xx_HAL_Driver/Inc/stm32f1xx_ll_exti.h ****   * @brief  Disable ExtiLine Interrupt request for Lines in range 0 to 31
 289:Drivers/STM32F1xx_HAL_Driver/Inc/stm32f1xx_ll_exti.h ****   * @note The reset value for the direct or internal lines (see RM)
 290:Drivers/STM32F1xx_HAL_Driver/Inc/stm32f1xx_ll_exti.h ****   *       is set to 1 in order to enable the interrupt by default.
 291:Drivers/STM32F1xx_HAL_Driver/Inc/stm32f1xx_ll_exti.h ****   *       Bits are set automatically at Power on.
 292:Drivers/STM32F1xx_HAL_Driver/Inc/stm32f1xx_ll_exti.h ****   * @rmtoll IMR         IMx           LL_EXTI_DisableIT_0_31
 293:Drivers/STM32F1xx_HAL_Driver/Inc/stm32f1xx_ll_exti.h ****   * @param  ExtiLine This parameter can be one of the following values:
 294:Drivers/STM32F1xx_HAL_Driver/Inc/stm32f1xx_ll_exti.h ****   *         @arg @ref LL_EXTI_LINE_0
 295:Drivers/STM32F1xx_HAL_Driver/Inc/stm32f1xx_ll_exti.h ****   *         @arg @ref LL_EXTI_LINE_1
 296:Drivers/STM32F1xx_HAL_Driver/Inc/stm32f1xx_ll_exti.h ****   *         @arg @ref LL_EXTI_LINE_2
 297:Drivers/STM32F1xx_HAL_Driver/Inc/stm32f1xx_ll_exti.h ****   *         @arg @ref LL_EXTI_LINE_3
 298:Drivers/STM32F1xx_HAL_Driver/Inc/stm32f1xx_ll_exti.h ****   *         @arg @ref LL_EXTI_LINE_4
 299:Drivers/STM32F1xx_HAL_Driver/Inc/stm32f1xx_ll_exti.h ****   *         @arg @ref LL_EXTI_LINE_5
 300:Drivers/STM32F1xx_HAL_Driver/Inc/stm32f1xx_ll_exti.h ****   *         @arg @ref LL_EXTI_LINE_6
 301:Drivers/STM32F1xx_HAL_Driver/Inc/stm32f1xx_ll_exti.h ****   *         @arg @ref LL_EXTI_LINE_7
 302:Drivers/STM32F1xx_HAL_Driver/Inc/stm32f1xx_ll_exti.h ****   *         @arg @ref LL_EXTI_LINE_8
 303:Drivers/STM32F1xx_HAL_Driver/Inc/stm32f1xx_ll_exti.h ****   *         @arg @ref LL_EXTI_LINE_9
 304:Drivers/STM32F1xx_HAL_Driver/Inc/stm32f1xx_ll_exti.h ****   *         @arg @ref LL_EXTI_LINE_10
 305:Drivers/STM32F1xx_HAL_Driver/Inc/stm32f1xx_ll_exti.h ****   *         @arg @ref LL_EXTI_LINE_11
 306:Drivers/STM32F1xx_HAL_Driver/Inc/stm32f1xx_ll_exti.h ****   *         @arg @ref LL_EXTI_LINE_12
 307:Drivers/STM32F1xx_HAL_Driver/Inc/stm32f1xx_ll_exti.h ****   *         @arg @ref LL_EXTI_LINE_13
 308:Drivers/STM32F1xx_HAL_Driver/Inc/stm32f1xx_ll_exti.h ****   *         @arg @ref LL_EXTI_LINE_14
 309:Drivers/STM32F1xx_HAL_Driver/Inc/stm32f1xx_ll_exti.h ****   *         @arg @ref LL_EXTI_LINE_15
 310:Drivers/STM32F1xx_HAL_Driver/Inc/stm32f1xx_ll_exti.h ****   *         @arg @ref LL_EXTI_LINE_16
 311:Drivers/STM32F1xx_HAL_Driver/Inc/stm32f1xx_ll_exti.h ****   *         @arg @ref LL_EXTI_LINE_17
 312:Drivers/STM32F1xx_HAL_Driver/Inc/stm32f1xx_ll_exti.h ****   *         @arg @ref LL_EXTI_LINE_18
 313:Drivers/STM32F1xx_HAL_Driver/Inc/stm32f1xx_ll_exti.h ****   *         @arg @ref LL_EXTI_LINE_19
 314:Drivers/STM32F1xx_HAL_Driver/Inc/stm32f1xx_ll_exti.h ****   *         @arg @ref LL_EXTI_LINE_ALL_0_31
 315:Drivers/STM32F1xx_HAL_Driver/Inc/stm32f1xx_ll_exti.h ****   * @note   Please check each device line mapping for EXTI Line availability
 316:Drivers/STM32F1xx_HAL_Driver/Inc/stm32f1xx_ll_exti.h ****   * @retval None
 317:Drivers/STM32F1xx_HAL_Driver/Inc/stm32f1xx_ll_exti.h ****   */
 318:Drivers/STM32F1xx_HAL_Driver/Inc/stm32f1xx_ll_exti.h **** __STATIC_INLINE void LL_EXTI_DisableIT_0_31(uint32_t ExtiLine)
 319:Drivers/STM32F1xx_HAL_Driver/Inc/stm32f1xx_ll_exti.h **** {
  78              		.loc 1 319 0
  79              		.cfi_startproc
  80              		@ args = 0, pretend = 0, frame = 8
  81              		@ frame_needed = 1, uses_anonymous_args = 0
  82              		@ link register save eliminated.
  83 0000 80B4     		push	{r7}
ARM GAS  /tmp/ccHawOes.s 			page 8


  84              	.LCFI6:
  85              		.cfi_def_cfa_offset 4
  86              		.cfi_offset 7, -4
  87 0002 83B0     		sub	sp, sp, #12
  88              	.LCFI7:
  89              		.cfi_def_cfa_offset 16
  90 0004 00AF     		add	r7, sp, #0
  91              	.LCFI8:
  92              		.cfi_def_cfa_register 7
  93 0006 7860     		str	r0, [r7, #4]
 320:Drivers/STM32F1xx_HAL_Driver/Inc/stm32f1xx_ll_exti.h ****   CLEAR_BIT(EXTI->IMR, ExtiLine);
  94              		.loc 1 320 0
  95 0008 054B     		ldr	r3, .L5
  96 000a 1A68     		ldr	r2, [r3]
  97 000c 7B68     		ldr	r3, [r7, #4]
  98 000e DB43     		mvns	r3, r3
  99 0010 0349     		ldr	r1, .L5
 100 0012 1340     		ands	r3, r3, r2
 101 0014 0B60     		str	r3, [r1]
 321:Drivers/STM32F1xx_HAL_Driver/Inc/stm32f1xx_ll_exti.h **** }
 102              		.loc 1 321 0
 103 0016 00BF     		nop
 104 0018 0C37     		adds	r7, r7, #12
 105              	.LCFI9:
 106              		.cfi_def_cfa_offset 4
 107 001a BD46     		mov	sp, r7
 108              	.LCFI10:
 109              		.cfi_def_cfa_register 13
 110              		@ sp needed
 111 001c 80BC     		pop	{r7}
 112              	.LCFI11:
 113              		.cfi_restore 7
 114              		.cfi_def_cfa_offset 0
 115 001e 7047     		bx	lr
 116              	.L6:
 117              		.align	2
 118              	.L5:
 119 0020 00040140 		.word	1073808384
 120              		.cfi_endproc
 121              	.LFE64:
 123              		.section	.text.LL_EXTI_EnableEvent_0_31,"ax",%progbits
 124              		.align	1
 125              		.syntax unified
 126              		.thumb
 127              		.thumb_func
 128              		.fpu softvfp
 130              	LL_EXTI_EnableEvent_0_31:
 131              	.LFB66:
 322:Drivers/STM32F1xx_HAL_Driver/Inc/stm32f1xx_ll_exti.h **** 
 323:Drivers/STM32F1xx_HAL_Driver/Inc/stm32f1xx_ll_exti.h **** 
 324:Drivers/STM32F1xx_HAL_Driver/Inc/stm32f1xx_ll_exti.h **** /**
 325:Drivers/STM32F1xx_HAL_Driver/Inc/stm32f1xx_ll_exti.h ****   * @brief  Indicate if ExtiLine Interrupt request is enabled for Lines in range 0 to 31
 326:Drivers/STM32F1xx_HAL_Driver/Inc/stm32f1xx_ll_exti.h ****   * @note The reset value for the direct or internal lines (see RM)
 327:Drivers/STM32F1xx_HAL_Driver/Inc/stm32f1xx_ll_exti.h ****   *       is set to 1 in order to enable the interrupt by default.
 328:Drivers/STM32F1xx_HAL_Driver/Inc/stm32f1xx_ll_exti.h ****   *       Bits are set automatically at Power on.
 329:Drivers/STM32F1xx_HAL_Driver/Inc/stm32f1xx_ll_exti.h ****   * @rmtoll IMR         IMx           LL_EXTI_IsEnabledIT_0_31
 330:Drivers/STM32F1xx_HAL_Driver/Inc/stm32f1xx_ll_exti.h ****   * @param  ExtiLine This parameter can be one of the following values:
ARM GAS  /tmp/ccHawOes.s 			page 9


 331:Drivers/STM32F1xx_HAL_Driver/Inc/stm32f1xx_ll_exti.h ****   *         @arg @ref LL_EXTI_LINE_0
 332:Drivers/STM32F1xx_HAL_Driver/Inc/stm32f1xx_ll_exti.h ****   *         @arg @ref LL_EXTI_LINE_1
 333:Drivers/STM32F1xx_HAL_Driver/Inc/stm32f1xx_ll_exti.h ****   *         @arg @ref LL_EXTI_LINE_2
 334:Drivers/STM32F1xx_HAL_Driver/Inc/stm32f1xx_ll_exti.h ****   *         @arg @ref LL_EXTI_LINE_3
 335:Drivers/STM32F1xx_HAL_Driver/Inc/stm32f1xx_ll_exti.h ****   *         @arg @ref LL_EXTI_LINE_4
 336:Drivers/STM32F1xx_HAL_Driver/Inc/stm32f1xx_ll_exti.h ****   *         @arg @ref LL_EXTI_LINE_5
 337:Drivers/STM32F1xx_HAL_Driver/Inc/stm32f1xx_ll_exti.h ****   *         @arg @ref LL_EXTI_LINE_6
 338:Drivers/STM32F1xx_HAL_Driver/Inc/stm32f1xx_ll_exti.h ****   *         @arg @ref LL_EXTI_LINE_7
 339:Drivers/STM32F1xx_HAL_Driver/Inc/stm32f1xx_ll_exti.h ****   *         @arg @ref LL_EXTI_LINE_8
 340:Drivers/STM32F1xx_HAL_Driver/Inc/stm32f1xx_ll_exti.h ****   *         @arg @ref LL_EXTI_LINE_9
 341:Drivers/STM32F1xx_HAL_Driver/Inc/stm32f1xx_ll_exti.h ****   *         @arg @ref LL_EXTI_LINE_10
 342:Drivers/STM32F1xx_HAL_Driver/Inc/stm32f1xx_ll_exti.h ****   *         @arg @ref LL_EXTI_LINE_11
 343:Drivers/STM32F1xx_HAL_Driver/Inc/stm32f1xx_ll_exti.h ****   *         @arg @ref LL_EXTI_LINE_12
 344:Drivers/STM32F1xx_HAL_Driver/Inc/stm32f1xx_ll_exti.h ****   *         @arg @ref LL_EXTI_LINE_13
 345:Drivers/STM32F1xx_HAL_Driver/Inc/stm32f1xx_ll_exti.h ****   *         @arg @ref LL_EXTI_LINE_14
 346:Drivers/STM32F1xx_HAL_Driver/Inc/stm32f1xx_ll_exti.h ****   *         @arg @ref LL_EXTI_LINE_15
 347:Drivers/STM32F1xx_HAL_Driver/Inc/stm32f1xx_ll_exti.h ****   *         @arg @ref LL_EXTI_LINE_16
 348:Drivers/STM32F1xx_HAL_Driver/Inc/stm32f1xx_ll_exti.h ****   *         @arg @ref LL_EXTI_LINE_17
 349:Drivers/STM32F1xx_HAL_Driver/Inc/stm32f1xx_ll_exti.h ****   *         @arg @ref LL_EXTI_LINE_18
 350:Drivers/STM32F1xx_HAL_Driver/Inc/stm32f1xx_ll_exti.h ****   *         @arg @ref LL_EXTI_LINE_19
 351:Drivers/STM32F1xx_HAL_Driver/Inc/stm32f1xx_ll_exti.h ****   *         @arg @ref LL_EXTI_LINE_ALL_0_31
 352:Drivers/STM32F1xx_HAL_Driver/Inc/stm32f1xx_ll_exti.h ****   * @note   Please check each device line mapping for EXTI Line availability
 353:Drivers/STM32F1xx_HAL_Driver/Inc/stm32f1xx_ll_exti.h ****   * @retval State of bit (1 or 0).
 354:Drivers/STM32F1xx_HAL_Driver/Inc/stm32f1xx_ll_exti.h ****   */
 355:Drivers/STM32F1xx_HAL_Driver/Inc/stm32f1xx_ll_exti.h **** __STATIC_INLINE uint32_t LL_EXTI_IsEnabledIT_0_31(uint32_t ExtiLine)
 356:Drivers/STM32F1xx_HAL_Driver/Inc/stm32f1xx_ll_exti.h **** {
 357:Drivers/STM32F1xx_HAL_Driver/Inc/stm32f1xx_ll_exti.h ****   return (READ_BIT(EXTI->IMR, ExtiLine) == (ExtiLine));
 358:Drivers/STM32F1xx_HAL_Driver/Inc/stm32f1xx_ll_exti.h **** }
 359:Drivers/STM32F1xx_HAL_Driver/Inc/stm32f1xx_ll_exti.h **** 
 360:Drivers/STM32F1xx_HAL_Driver/Inc/stm32f1xx_ll_exti.h **** 
 361:Drivers/STM32F1xx_HAL_Driver/Inc/stm32f1xx_ll_exti.h **** /**
 362:Drivers/STM32F1xx_HAL_Driver/Inc/stm32f1xx_ll_exti.h ****   * @}
 363:Drivers/STM32F1xx_HAL_Driver/Inc/stm32f1xx_ll_exti.h ****   */
 364:Drivers/STM32F1xx_HAL_Driver/Inc/stm32f1xx_ll_exti.h **** 
 365:Drivers/STM32F1xx_HAL_Driver/Inc/stm32f1xx_ll_exti.h **** /** @defgroup EXTI_LL_EF_Event_Management Event_Management
 366:Drivers/STM32F1xx_HAL_Driver/Inc/stm32f1xx_ll_exti.h ****   * @{
 367:Drivers/STM32F1xx_HAL_Driver/Inc/stm32f1xx_ll_exti.h ****   */
 368:Drivers/STM32F1xx_HAL_Driver/Inc/stm32f1xx_ll_exti.h **** 
 369:Drivers/STM32F1xx_HAL_Driver/Inc/stm32f1xx_ll_exti.h **** /**
 370:Drivers/STM32F1xx_HAL_Driver/Inc/stm32f1xx_ll_exti.h ****   * @brief  Enable ExtiLine Event request for Lines in range 0 to 31
 371:Drivers/STM32F1xx_HAL_Driver/Inc/stm32f1xx_ll_exti.h ****   * @rmtoll EMR         EMx           LL_EXTI_EnableEvent_0_31
 372:Drivers/STM32F1xx_HAL_Driver/Inc/stm32f1xx_ll_exti.h ****   * @param  ExtiLine This parameter can be one of the following values:
 373:Drivers/STM32F1xx_HAL_Driver/Inc/stm32f1xx_ll_exti.h ****   *         @arg @ref LL_EXTI_LINE_0
 374:Drivers/STM32F1xx_HAL_Driver/Inc/stm32f1xx_ll_exti.h ****   *         @arg @ref LL_EXTI_LINE_1
 375:Drivers/STM32F1xx_HAL_Driver/Inc/stm32f1xx_ll_exti.h ****   *         @arg @ref LL_EXTI_LINE_2
 376:Drivers/STM32F1xx_HAL_Driver/Inc/stm32f1xx_ll_exti.h ****   *         @arg @ref LL_EXTI_LINE_3
 377:Drivers/STM32F1xx_HAL_Driver/Inc/stm32f1xx_ll_exti.h ****   *         @arg @ref LL_EXTI_LINE_4
 378:Drivers/STM32F1xx_HAL_Driver/Inc/stm32f1xx_ll_exti.h ****   *         @arg @ref LL_EXTI_LINE_5
 379:Drivers/STM32F1xx_HAL_Driver/Inc/stm32f1xx_ll_exti.h ****   *         @arg @ref LL_EXTI_LINE_6
 380:Drivers/STM32F1xx_HAL_Driver/Inc/stm32f1xx_ll_exti.h ****   *         @arg @ref LL_EXTI_LINE_7
 381:Drivers/STM32F1xx_HAL_Driver/Inc/stm32f1xx_ll_exti.h ****   *         @arg @ref LL_EXTI_LINE_8
 382:Drivers/STM32F1xx_HAL_Driver/Inc/stm32f1xx_ll_exti.h ****   *         @arg @ref LL_EXTI_LINE_9
 383:Drivers/STM32F1xx_HAL_Driver/Inc/stm32f1xx_ll_exti.h ****   *         @arg @ref LL_EXTI_LINE_10
 384:Drivers/STM32F1xx_HAL_Driver/Inc/stm32f1xx_ll_exti.h ****   *         @arg @ref LL_EXTI_LINE_11
 385:Drivers/STM32F1xx_HAL_Driver/Inc/stm32f1xx_ll_exti.h ****   *         @arg @ref LL_EXTI_LINE_12
 386:Drivers/STM32F1xx_HAL_Driver/Inc/stm32f1xx_ll_exti.h ****   *         @arg @ref LL_EXTI_LINE_13
 387:Drivers/STM32F1xx_HAL_Driver/Inc/stm32f1xx_ll_exti.h ****   *         @arg @ref LL_EXTI_LINE_14
ARM GAS  /tmp/ccHawOes.s 			page 10


 388:Drivers/STM32F1xx_HAL_Driver/Inc/stm32f1xx_ll_exti.h ****   *         @arg @ref LL_EXTI_LINE_15
 389:Drivers/STM32F1xx_HAL_Driver/Inc/stm32f1xx_ll_exti.h ****   *         @arg @ref LL_EXTI_LINE_16
 390:Drivers/STM32F1xx_HAL_Driver/Inc/stm32f1xx_ll_exti.h ****   *         @arg @ref LL_EXTI_LINE_17
 391:Drivers/STM32F1xx_HAL_Driver/Inc/stm32f1xx_ll_exti.h ****   *         @arg @ref LL_EXTI_LINE_18
 392:Drivers/STM32F1xx_HAL_Driver/Inc/stm32f1xx_ll_exti.h ****   *         @arg @ref LL_EXTI_LINE_19
 393:Drivers/STM32F1xx_HAL_Driver/Inc/stm32f1xx_ll_exti.h ****   *         @arg @ref LL_EXTI_LINE_ALL_0_31
 394:Drivers/STM32F1xx_HAL_Driver/Inc/stm32f1xx_ll_exti.h ****   * @note   Please check each device line mapping for EXTI Line availability
 395:Drivers/STM32F1xx_HAL_Driver/Inc/stm32f1xx_ll_exti.h ****   * @retval None
 396:Drivers/STM32F1xx_HAL_Driver/Inc/stm32f1xx_ll_exti.h ****   */
 397:Drivers/STM32F1xx_HAL_Driver/Inc/stm32f1xx_ll_exti.h **** __STATIC_INLINE void LL_EXTI_EnableEvent_0_31(uint32_t ExtiLine)
 398:Drivers/STM32F1xx_HAL_Driver/Inc/stm32f1xx_ll_exti.h **** {
 132              		.loc 1 398 0
 133              		.cfi_startproc
 134              		@ args = 0, pretend = 0, frame = 8
 135              		@ frame_needed = 1, uses_anonymous_args = 0
 136              		@ link register save eliminated.
 137 0000 80B4     		push	{r7}
 138              	.LCFI12:
 139              		.cfi_def_cfa_offset 4
 140              		.cfi_offset 7, -4
 141 0002 83B0     		sub	sp, sp, #12
 142              	.LCFI13:
 143              		.cfi_def_cfa_offset 16
 144 0004 00AF     		add	r7, sp, #0
 145              	.LCFI14:
 146              		.cfi_def_cfa_register 7
 147 0006 7860     		str	r0, [r7, #4]
 399:Drivers/STM32F1xx_HAL_Driver/Inc/stm32f1xx_ll_exti.h ****   SET_BIT(EXTI->EMR, ExtiLine);
 148              		.loc 1 399 0
 149 0008 054B     		ldr	r3, .L8
 150 000a 5A68     		ldr	r2, [r3, #4]
 151 000c 0449     		ldr	r1, .L8
 152 000e 7B68     		ldr	r3, [r7, #4]
 153 0010 1343     		orrs	r3, r3, r2
 154 0012 4B60     		str	r3, [r1, #4]
 400:Drivers/STM32F1xx_HAL_Driver/Inc/stm32f1xx_ll_exti.h **** 
 401:Drivers/STM32F1xx_HAL_Driver/Inc/stm32f1xx_ll_exti.h **** }
 155              		.loc 1 401 0
 156 0014 00BF     		nop
 157 0016 0C37     		adds	r7, r7, #12
 158              	.LCFI15:
 159              		.cfi_def_cfa_offset 4
 160 0018 BD46     		mov	sp, r7
 161              	.LCFI16:
 162              		.cfi_def_cfa_register 13
 163              		@ sp needed
 164 001a 80BC     		pop	{r7}
 165              	.LCFI17:
 166              		.cfi_restore 7
 167              		.cfi_def_cfa_offset 0
 168 001c 7047     		bx	lr
 169              	.L9:
 170 001e 00BF     		.align	2
 171              	.L8:
 172 0020 00040140 		.word	1073808384
 173              		.cfi_endproc
 174              	.LFE66:
ARM GAS  /tmp/ccHawOes.s 			page 11


 176              		.section	.text.LL_EXTI_DisableEvent_0_31,"ax",%progbits
 177              		.align	1
 178              		.syntax unified
 179              		.thumb
 180              		.thumb_func
 181              		.fpu softvfp
 183              	LL_EXTI_DisableEvent_0_31:
 184              	.LFB67:
 402:Drivers/STM32F1xx_HAL_Driver/Inc/stm32f1xx_ll_exti.h **** 
 403:Drivers/STM32F1xx_HAL_Driver/Inc/stm32f1xx_ll_exti.h **** 
 404:Drivers/STM32F1xx_HAL_Driver/Inc/stm32f1xx_ll_exti.h **** /**
 405:Drivers/STM32F1xx_HAL_Driver/Inc/stm32f1xx_ll_exti.h ****   * @brief  Disable ExtiLine Event request for Lines in range 0 to 31
 406:Drivers/STM32F1xx_HAL_Driver/Inc/stm32f1xx_ll_exti.h ****   * @rmtoll EMR         EMx           LL_EXTI_DisableEvent_0_31
 407:Drivers/STM32F1xx_HAL_Driver/Inc/stm32f1xx_ll_exti.h ****   * @param  ExtiLine This parameter can be one of the following values:
 408:Drivers/STM32F1xx_HAL_Driver/Inc/stm32f1xx_ll_exti.h ****   *         @arg @ref LL_EXTI_LINE_0
 409:Drivers/STM32F1xx_HAL_Driver/Inc/stm32f1xx_ll_exti.h ****   *         @arg @ref LL_EXTI_LINE_1
 410:Drivers/STM32F1xx_HAL_Driver/Inc/stm32f1xx_ll_exti.h ****   *         @arg @ref LL_EXTI_LINE_2
 411:Drivers/STM32F1xx_HAL_Driver/Inc/stm32f1xx_ll_exti.h ****   *         @arg @ref LL_EXTI_LINE_3
 412:Drivers/STM32F1xx_HAL_Driver/Inc/stm32f1xx_ll_exti.h ****   *         @arg @ref LL_EXTI_LINE_4
 413:Drivers/STM32F1xx_HAL_Driver/Inc/stm32f1xx_ll_exti.h ****   *         @arg @ref LL_EXTI_LINE_5
 414:Drivers/STM32F1xx_HAL_Driver/Inc/stm32f1xx_ll_exti.h ****   *         @arg @ref LL_EXTI_LINE_6
 415:Drivers/STM32F1xx_HAL_Driver/Inc/stm32f1xx_ll_exti.h ****   *         @arg @ref LL_EXTI_LINE_7
 416:Drivers/STM32F1xx_HAL_Driver/Inc/stm32f1xx_ll_exti.h ****   *         @arg @ref LL_EXTI_LINE_8
 417:Drivers/STM32F1xx_HAL_Driver/Inc/stm32f1xx_ll_exti.h ****   *         @arg @ref LL_EXTI_LINE_9
 418:Drivers/STM32F1xx_HAL_Driver/Inc/stm32f1xx_ll_exti.h ****   *         @arg @ref LL_EXTI_LINE_10
 419:Drivers/STM32F1xx_HAL_Driver/Inc/stm32f1xx_ll_exti.h ****   *         @arg @ref LL_EXTI_LINE_11
 420:Drivers/STM32F1xx_HAL_Driver/Inc/stm32f1xx_ll_exti.h ****   *         @arg @ref LL_EXTI_LINE_12
 421:Drivers/STM32F1xx_HAL_Driver/Inc/stm32f1xx_ll_exti.h ****   *         @arg @ref LL_EXTI_LINE_13
 422:Drivers/STM32F1xx_HAL_Driver/Inc/stm32f1xx_ll_exti.h ****   *         @arg @ref LL_EXTI_LINE_14
 423:Drivers/STM32F1xx_HAL_Driver/Inc/stm32f1xx_ll_exti.h ****   *         @arg @ref LL_EXTI_LINE_15
 424:Drivers/STM32F1xx_HAL_Driver/Inc/stm32f1xx_ll_exti.h ****   *         @arg @ref LL_EXTI_LINE_16
 425:Drivers/STM32F1xx_HAL_Driver/Inc/stm32f1xx_ll_exti.h ****   *         @arg @ref LL_EXTI_LINE_17
 426:Drivers/STM32F1xx_HAL_Driver/Inc/stm32f1xx_ll_exti.h ****   *         @arg @ref LL_EXTI_LINE_18
 427:Drivers/STM32F1xx_HAL_Driver/Inc/stm32f1xx_ll_exti.h ****   *         @arg @ref LL_EXTI_LINE_19
 428:Drivers/STM32F1xx_HAL_Driver/Inc/stm32f1xx_ll_exti.h ****   *         @arg @ref LL_EXTI_LINE_ALL_0_31
 429:Drivers/STM32F1xx_HAL_Driver/Inc/stm32f1xx_ll_exti.h ****   * @note   Please check each device line mapping for EXTI Line availability
 430:Drivers/STM32F1xx_HAL_Driver/Inc/stm32f1xx_ll_exti.h ****   * @retval None
 431:Drivers/STM32F1xx_HAL_Driver/Inc/stm32f1xx_ll_exti.h ****   */
 432:Drivers/STM32F1xx_HAL_Driver/Inc/stm32f1xx_ll_exti.h **** __STATIC_INLINE void LL_EXTI_DisableEvent_0_31(uint32_t ExtiLine)
 433:Drivers/STM32F1xx_HAL_Driver/Inc/stm32f1xx_ll_exti.h **** {
 185              		.loc 1 433 0
 186              		.cfi_startproc
 187              		@ args = 0, pretend = 0, frame = 8
 188              		@ frame_needed = 1, uses_anonymous_args = 0
 189              		@ link register save eliminated.
 190 0000 80B4     		push	{r7}
 191              	.LCFI18:
 192              		.cfi_def_cfa_offset 4
 193              		.cfi_offset 7, -4
 194 0002 83B0     		sub	sp, sp, #12
 195              	.LCFI19:
 196              		.cfi_def_cfa_offset 16
 197 0004 00AF     		add	r7, sp, #0
 198              	.LCFI20:
 199              		.cfi_def_cfa_register 7
 200 0006 7860     		str	r0, [r7, #4]
 434:Drivers/STM32F1xx_HAL_Driver/Inc/stm32f1xx_ll_exti.h ****   CLEAR_BIT(EXTI->EMR, ExtiLine);
ARM GAS  /tmp/ccHawOes.s 			page 12


 201              		.loc 1 434 0
 202 0008 054B     		ldr	r3, .L11
 203 000a 5A68     		ldr	r2, [r3, #4]
 204 000c 7B68     		ldr	r3, [r7, #4]
 205 000e DB43     		mvns	r3, r3
 206 0010 0349     		ldr	r1, .L11
 207 0012 1340     		ands	r3, r3, r2
 208 0014 4B60     		str	r3, [r1, #4]
 435:Drivers/STM32F1xx_HAL_Driver/Inc/stm32f1xx_ll_exti.h **** }
 209              		.loc 1 435 0
 210 0016 00BF     		nop
 211 0018 0C37     		adds	r7, r7, #12
 212              	.LCFI21:
 213              		.cfi_def_cfa_offset 4
 214 001a BD46     		mov	sp, r7
 215              	.LCFI22:
 216              		.cfi_def_cfa_register 13
 217              		@ sp needed
 218 001c 80BC     		pop	{r7}
 219              	.LCFI23:
 220              		.cfi_restore 7
 221              		.cfi_def_cfa_offset 0
 222 001e 7047     		bx	lr
 223              	.L12:
 224              		.align	2
 225              	.L11:
 226 0020 00040140 		.word	1073808384
 227              		.cfi_endproc
 228              	.LFE67:
 230              		.section	.text.LL_EXTI_EnableRisingTrig_0_31,"ax",%progbits
 231              		.align	1
 232              		.syntax unified
 233              		.thumb
 234              		.thumb_func
 235              		.fpu softvfp
 237              	LL_EXTI_EnableRisingTrig_0_31:
 238              	.LFB69:
 436:Drivers/STM32F1xx_HAL_Driver/Inc/stm32f1xx_ll_exti.h **** 
 437:Drivers/STM32F1xx_HAL_Driver/Inc/stm32f1xx_ll_exti.h **** 
 438:Drivers/STM32F1xx_HAL_Driver/Inc/stm32f1xx_ll_exti.h **** /**
 439:Drivers/STM32F1xx_HAL_Driver/Inc/stm32f1xx_ll_exti.h ****   * @brief  Indicate if ExtiLine Event request is enabled for Lines in range 0 to 31
 440:Drivers/STM32F1xx_HAL_Driver/Inc/stm32f1xx_ll_exti.h ****   * @rmtoll EMR         EMx           LL_EXTI_IsEnabledEvent_0_31
 441:Drivers/STM32F1xx_HAL_Driver/Inc/stm32f1xx_ll_exti.h ****   * @param  ExtiLine This parameter can be one of the following values:
 442:Drivers/STM32F1xx_HAL_Driver/Inc/stm32f1xx_ll_exti.h ****   *         @arg @ref LL_EXTI_LINE_0
 443:Drivers/STM32F1xx_HAL_Driver/Inc/stm32f1xx_ll_exti.h ****   *         @arg @ref LL_EXTI_LINE_1
 444:Drivers/STM32F1xx_HAL_Driver/Inc/stm32f1xx_ll_exti.h ****   *         @arg @ref LL_EXTI_LINE_2
 445:Drivers/STM32F1xx_HAL_Driver/Inc/stm32f1xx_ll_exti.h ****   *         @arg @ref LL_EXTI_LINE_3
 446:Drivers/STM32F1xx_HAL_Driver/Inc/stm32f1xx_ll_exti.h ****   *         @arg @ref LL_EXTI_LINE_4
 447:Drivers/STM32F1xx_HAL_Driver/Inc/stm32f1xx_ll_exti.h ****   *         @arg @ref LL_EXTI_LINE_5
 448:Drivers/STM32F1xx_HAL_Driver/Inc/stm32f1xx_ll_exti.h ****   *         @arg @ref LL_EXTI_LINE_6
 449:Drivers/STM32F1xx_HAL_Driver/Inc/stm32f1xx_ll_exti.h ****   *         @arg @ref LL_EXTI_LINE_7
 450:Drivers/STM32F1xx_HAL_Driver/Inc/stm32f1xx_ll_exti.h ****   *         @arg @ref LL_EXTI_LINE_8
 451:Drivers/STM32F1xx_HAL_Driver/Inc/stm32f1xx_ll_exti.h ****   *         @arg @ref LL_EXTI_LINE_9
 452:Drivers/STM32F1xx_HAL_Driver/Inc/stm32f1xx_ll_exti.h ****   *         @arg @ref LL_EXTI_LINE_10
 453:Drivers/STM32F1xx_HAL_Driver/Inc/stm32f1xx_ll_exti.h ****   *         @arg @ref LL_EXTI_LINE_11
 454:Drivers/STM32F1xx_HAL_Driver/Inc/stm32f1xx_ll_exti.h ****   *         @arg @ref LL_EXTI_LINE_12
 455:Drivers/STM32F1xx_HAL_Driver/Inc/stm32f1xx_ll_exti.h ****   *         @arg @ref LL_EXTI_LINE_13
ARM GAS  /tmp/ccHawOes.s 			page 13


 456:Drivers/STM32F1xx_HAL_Driver/Inc/stm32f1xx_ll_exti.h ****   *         @arg @ref LL_EXTI_LINE_14
 457:Drivers/STM32F1xx_HAL_Driver/Inc/stm32f1xx_ll_exti.h ****   *         @arg @ref LL_EXTI_LINE_15
 458:Drivers/STM32F1xx_HAL_Driver/Inc/stm32f1xx_ll_exti.h ****   *         @arg @ref LL_EXTI_LINE_16
 459:Drivers/STM32F1xx_HAL_Driver/Inc/stm32f1xx_ll_exti.h ****   *         @arg @ref LL_EXTI_LINE_17
 460:Drivers/STM32F1xx_HAL_Driver/Inc/stm32f1xx_ll_exti.h ****   *         @arg @ref LL_EXTI_LINE_18
 461:Drivers/STM32F1xx_HAL_Driver/Inc/stm32f1xx_ll_exti.h ****   *         @arg @ref LL_EXTI_LINE_19
 462:Drivers/STM32F1xx_HAL_Driver/Inc/stm32f1xx_ll_exti.h ****   *         @arg @ref LL_EXTI_LINE_ALL_0_31
 463:Drivers/STM32F1xx_HAL_Driver/Inc/stm32f1xx_ll_exti.h ****   * @note   Please check each device line mapping for EXTI Line availability
 464:Drivers/STM32F1xx_HAL_Driver/Inc/stm32f1xx_ll_exti.h ****   * @retval State of bit (1 or 0).
 465:Drivers/STM32F1xx_HAL_Driver/Inc/stm32f1xx_ll_exti.h ****   */
 466:Drivers/STM32F1xx_HAL_Driver/Inc/stm32f1xx_ll_exti.h **** __STATIC_INLINE uint32_t LL_EXTI_IsEnabledEvent_0_31(uint32_t ExtiLine)
 467:Drivers/STM32F1xx_HAL_Driver/Inc/stm32f1xx_ll_exti.h **** {
 468:Drivers/STM32F1xx_HAL_Driver/Inc/stm32f1xx_ll_exti.h ****   return (READ_BIT(EXTI->EMR, ExtiLine) == (ExtiLine));
 469:Drivers/STM32F1xx_HAL_Driver/Inc/stm32f1xx_ll_exti.h **** 
 470:Drivers/STM32F1xx_HAL_Driver/Inc/stm32f1xx_ll_exti.h **** }
 471:Drivers/STM32F1xx_HAL_Driver/Inc/stm32f1xx_ll_exti.h **** 
 472:Drivers/STM32F1xx_HAL_Driver/Inc/stm32f1xx_ll_exti.h **** 
 473:Drivers/STM32F1xx_HAL_Driver/Inc/stm32f1xx_ll_exti.h **** /**
 474:Drivers/STM32F1xx_HAL_Driver/Inc/stm32f1xx_ll_exti.h ****   * @}
 475:Drivers/STM32F1xx_HAL_Driver/Inc/stm32f1xx_ll_exti.h ****   */
 476:Drivers/STM32F1xx_HAL_Driver/Inc/stm32f1xx_ll_exti.h **** 
 477:Drivers/STM32F1xx_HAL_Driver/Inc/stm32f1xx_ll_exti.h **** /** @defgroup EXTI_LL_EF_Rising_Trigger_Management Rising_Trigger_Management
 478:Drivers/STM32F1xx_HAL_Driver/Inc/stm32f1xx_ll_exti.h ****   * @{
 479:Drivers/STM32F1xx_HAL_Driver/Inc/stm32f1xx_ll_exti.h ****   */
 480:Drivers/STM32F1xx_HAL_Driver/Inc/stm32f1xx_ll_exti.h **** 
 481:Drivers/STM32F1xx_HAL_Driver/Inc/stm32f1xx_ll_exti.h **** /**
 482:Drivers/STM32F1xx_HAL_Driver/Inc/stm32f1xx_ll_exti.h ****   * @brief  Enable ExtiLine Rising Edge Trigger for Lines in range 0 to 31
 483:Drivers/STM32F1xx_HAL_Driver/Inc/stm32f1xx_ll_exti.h ****   * @note The configurable wakeup lines are edge-triggered. No glitch must be
 484:Drivers/STM32F1xx_HAL_Driver/Inc/stm32f1xx_ll_exti.h ****   *       generated on these lines. If a rising edge on a configurable interrupt
 485:Drivers/STM32F1xx_HAL_Driver/Inc/stm32f1xx_ll_exti.h ****   *       line occurs during a write operation in the EXTI_RTSR register, the
 486:Drivers/STM32F1xx_HAL_Driver/Inc/stm32f1xx_ll_exti.h ****   *       pending bit is not set.
 487:Drivers/STM32F1xx_HAL_Driver/Inc/stm32f1xx_ll_exti.h ****   *       Rising and falling edge triggers can be set for
 488:Drivers/STM32F1xx_HAL_Driver/Inc/stm32f1xx_ll_exti.h ****   *       the same interrupt line. In this case, both generate a trigger
 489:Drivers/STM32F1xx_HAL_Driver/Inc/stm32f1xx_ll_exti.h ****   *       condition.
 490:Drivers/STM32F1xx_HAL_Driver/Inc/stm32f1xx_ll_exti.h ****   * @rmtoll RTSR        RTx           LL_EXTI_EnableRisingTrig_0_31
 491:Drivers/STM32F1xx_HAL_Driver/Inc/stm32f1xx_ll_exti.h ****   * @param  ExtiLine This parameter can be a combination of the following values:
 492:Drivers/STM32F1xx_HAL_Driver/Inc/stm32f1xx_ll_exti.h ****   *         @arg @ref LL_EXTI_LINE_0
 493:Drivers/STM32F1xx_HAL_Driver/Inc/stm32f1xx_ll_exti.h ****   *         @arg @ref LL_EXTI_LINE_1
 494:Drivers/STM32F1xx_HAL_Driver/Inc/stm32f1xx_ll_exti.h ****   *         @arg @ref LL_EXTI_LINE_2
 495:Drivers/STM32F1xx_HAL_Driver/Inc/stm32f1xx_ll_exti.h ****   *         @arg @ref LL_EXTI_LINE_3
 496:Drivers/STM32F1xx_HAL_Driver/Inc/stm32f1xx_ll_exti.h ****   *         @arg @ref LL_EXTI_LINE_4
 497:Drivers/STM32F1xx_HAL_Driver/Inc/stm32f1xx_ll_exti.h ****   *         @arg @ref LL_EXTI_LINE_5
 498:Drivers/STM32F1xx_HAL_Driver/Inc/stm32f1xx_ll_exti.h ****   *         @arg @ref LL_EXTI_LINE_6
 499:Drivers/STM32F1xx_HAL_Driver/Inc/stm32f1xx_ll_exti.h ****   *         @arg @ref LL_EXTI_LINE_7
 500:Drivers/STM32F1xx_HAL_Driver/Inc/stm32f1xx_ll_exti.h ****   *         @arg @ref LL_EXTI_LINE_8
 501:Drivers/STM32F1xx_HAL_Driver/Inc/stm32f1xx_ll_exti.h ****   *         @arg @ref LL_EXTI_LINE_9
 502:Drivers/STM32F1xx_HAL_Driver/Inc/stm32f1xx_ll_exti.h ****   *         @arg @ref LL_EXTI_LINE_10
 503:Drivers/STM32F1xx_HAL_Driver/Inc/stm32f1xx_ll_exti.h ****   *         @arg @ref LL_EXTI_LINE_11
 504:Drivers/STM32F1xx_HAL_Driver/Inc/stm32f1xx_ll_exti.h ****   *         @arg @ref LL_EXTI_LINE_12
 505:Drivers/STM32F1xx_HAL_Driver/Inc/stm32f1xx_ll_exti.h ****   *         @arg @ref LL_EXTI_LINE_13
 506:Drivers/STM32F1xx_HAL_Driver/Inc/stm32f1xx_ll_exti.h ****   *         @arg @ref LL_EXTI_LINE_14
 507:Drivers/STM32F1xx_HAL_Driver/Inc/stm32f1xx_ll_exti.h ****   *         @arg @ref LL_EXTI_LINE_15
 508:Drivers/STM32F1xx_HAL_Driver/Inc/stm32f1xx_ll_exti.h ****   *         @arg @ref LL_EXTI_LINE_16
 509:Drivers/STM32F1xx_HAL_Driver/Inc/stm32f1xx_ll_exti.h ****   *         @arg @ref LL_EXTI_LINE_18
 510:Drivers/STM32F1xx_HAL_Driver/Inc/stm32f1xx_ll_exti.h ****   *         @arg @ref LL_EXTI_LINE_19
 511:Drivers/STM32F1xx_HAL_Driver/Inc/stm32f1xx_ll_exti.h ****   * @note   Please check each device line mapping for EXTI Line availability
 512:Drivers/STM32F1xx_HAL_Driver/Inc/stm32f1xx_ll_exti.h ****   * @retval None
ARM GAS  /tmp/ccHawOes.s 			page 14


 513:Drivers/STM32F1xx_HAL_Driver/Inc/stm32f1xx_ll_exti.h ****   */
 514:Drivers/STM32F1xx_HAL_Driver/Inc/stm32f1xx_ll_exti.h **** __STATIC_INLINE void LL_EXTI_EnableRisingTrig_0_31(uint32_t ExtiLine)
 515:Drivers/STM32F1xx_HAL_Driver/Inc/stm32f1xx_ll_exti.h **** {
 239              		.loc 1 515 0
 240              		.cfi_startproc
 241              		@ args = 0, pretend = 0, frame = 8
 242              		@ frame_needed = 1, uses_anonymous_args = 0
 243              		@ link register save eliminated.
 244 0000 80B4     		push	{r7}
 245              	.LCFI24:
 246              		.cfi_def_cfa_offset 4
 247              		.cfi_offset 7, -4
 248 0002 83B0     		sub	sp, sp, #12
 249              	.LCFI25:
 250              		.cfi_def_cfa_offset 16
 251 0004 00AF     		add	r7, sp, #0
 252              	.LCFI26:
 253              		.cfi_def_cfa_register 7
 254 0006 7860     		str	r0, [r7, #4]
 516:Drivers/STM32F1xx_HAL_Driver/Inc/stm32f1xx_ll_exti.h ****   SET_BIT(EXTI->RTSR, ExtiLine);
 255              		.loc 1 516 0
 256 0008 054B     		ldr	r3, .L14
 257 000a 9A68     		ldr	r2, [r3, #8]
 258 000c 0449     		ldr	r1, .L14
 259 000e 7B68     		ldr	r3, [r7, #4]
 260 0010 1343     		orrs	r3, r3, r2
 261 0012 8B60     		str	r3, [r1, #8]
 517:Drivers/STM32F1xx_HAL_Driver/Inc/stm32f1xx_ll_exti.h **** 
 518:Drivers/STM32F1xx_HAL_Driver/Inc/stm32f1xx_ll_exti.h **** }
 262              		.loc 1 518 0
 263 0014 00BF     		nop
 264 0016 0C37     		adds	r7, r7, #12
 265              	.LCFI27:
 266              		.cfi_def_cfa_offset 4
 267 0018 BD46     		mov	sp, r7
 268              	.LCFI28:
 269              		.cfi_def_cfa_register 13
 270              		@ sp needed
 271 001a 80BC     		pop	{r7}
 272              	.LCFI29:
 273              		.cfi_restore 7
 274              		.cfi_def_cfa_offset 0
 275 001c 7047     		bx	lr
 276              	.L15:
 277 001e 00BF     		.align	2
 278              	.L14:
 279 0020 00040140 		.word	1073808384
 280              		.cfi_endproc
 281              	.LFE69:
 283              		.section	.text.LL_EXTI_DisableRisingTrig_0_31,"ax",%progbits
 284              		.align	1
 285              		.syntax unified
 286              		.thumb
 287              		.thumb_func
 288              		.fpu softvfp
 290              	LL_EXTI_DisableRisingTrig_0_31:
 291              	.LFB70:
ARM GAS  /tmp/ccHawOes.s 			page 15


 519:Drivers/STM32F1xx_HAL_Driver/Inc/stm32f1xx_ll_exti.h **** 
 520:Drivers/STM32F1xx_HAL_Driver/Inc/stm32f1xx_ll_exti.h **** 
 521:Drivers/STM32F1xx_HAL_Driver/Inc/stm32f1xx_ll_exti.h **** /**
 522:Drivers/STM32F1xx_HAL_Driver/Inc/stm32f1xx_ll_exti.h ****   * @brief  Disable ExtiLine Rising Edge Trigger for Lines in range 0 to 31
 523:Drivers/STM32F1xx_HAL_Driver/Inc/stm32f1xx_ll_exti.h ****   * @note The configurable wakeup lines are edge-triggered. No glitch must be
 524:Drivers/STM32F1xx_HAL_Driver/Inc/stm32f1xx_ll_exti.h ****   *       generated on these lines. If a rising edge on a configurable interrupt
 525:Drivers/STM32F1xx_HAL_Driver/Inc/stm32f1xx_ll_exti.h ****   *       line occurs during a write operation in the EXTI_RTSR register, the
 526:Drivers/STM32F1xx_HAL_Driver/Inc/stm32f1xx_ll_exti.h ****   *       pending bit is not set.
 527:Drivers/STM32F1xx_HAL_Driver/Inc/stm32f1xx_ll_exti.h ****   *       Rising and falling edge triggers can be set for
 528:Drivers/STM32F1xx_HAL_Driver/Inc/stm32f1xx_ll_exti.h ****   *       the same interrupt line. In this case, both generate a trigger
 529:Drivers/STM32F1xx_HAL_Driver/Inc/stm32f1xx_ll_exti.h ****   *       condition.
 530:Drivers/STM32F1xx_HAL_Driver/Inc/stm32f1xx_ll_exti.h ****   * @rmtoll RTSR        RTx           LL_EXTI_DisableRisingTrig_0_31
 531:Drivers/STM32F1xx_HAL_Driver/Inc/stm32f1xx_ll_exti.h ****   * @param  ExtiLine This parameter can be a combination of the following values:
 532:Drivers/STM32F1xx_HAL_Driver/Inc/stm32f1xx_ll_exti.h ****   *         @arg @ref LL_EXTI_LINE_0
 533:Drivers/STM32F1xx_HAL_Driver/Inc/stm32f1xx_ll_exti.h ****   *         @arg @ref LL_EXTI_LINE_1
 534:Drivers/STM32F1xx_HAL_Driver/Inc/stm32f1xx_ll_exti.h ****   *         @arg @ref LL_EXTI_LINE_2
 535:Drivers/STM32F1xx_HAL_Driver/Inc/stm32f1xx_ll_exti.h ****   *         @arg @ref LL_EXTI_LINE_3
 536:Drivers/STM32F1xx_HAL_Driver/Inc/stm32f1xx_ll_exti.h ****   *         @arg @ref LL_EXTI_LINE_4
 537:Drivers/STM32F1xx_HAL_Driver/Inc/stm32f1xx_ll_exti.h ****   *         @arg @ref LL_EXTI_LINE_5
 538:Drivers/STM32F1xx_HAL_Driver/Inc/stm32f1xx_ll_exti.h ****   *         @arg @ref LL_EXTI_LINE_6
 539:Drivers/STM32F1xx_HAL_Driver/Inc/stm32f1xx_ll_exti.h ****   *         @arg @ref LL_EXTI_LINE_7
 540:Drivers/STM32F1xx_HAL_Driver/Inc/stm32f1xx_ll_exti.h ****   *         @arg @ref LL_EXTI_LINE_8
 541:Drivers/STM32F1xx_HAL_Driver/Inc/stm32f1xx_ll_exti.h ****   *         @arg @ref LL_EXTI_LINE_9
 542:Drivers/STM32F1xx_HAL_Driver/Inc/stm32f1xx_ll_exti.h ****   *         @arg @ref LL_EXTI_LINE_10
 543:Drivers/STM32F1xx_HAL_Driver/Inc/stm32f1xx_ll_exti.h ****   *         @arg @ref LL_EXTI_LINE_11
 544:Drivers/STM32F1xx_HAL_Driver/Inc/stm32f1xx_ll_exti.h ****   *         @arg @ref LL_EXTI_LINE_12
 545:Drivers/STM32F1xx_HAL_Driver/Inc/stm32f1xx_ll_exti.h ****   *         @arg @ref LL_EXTI_LINE_13
 546:Drivers/STM32F1xx_HAL_Driver/Inc/stm32f1xx_ll_exti.h ****   *         @arg @ref LL_EXTI_LINE_14
 547:Drivers/STM32F1xx_HAL_Driver/Inc/stm32f1xx_ll_exti.h ****   *         @arg @ref LL_EXTI_LINE_15
 548:Drivers/STM32F1xx_HAL_Driver/Inc/stm32f1xx_ll_exti.h ****   *         @arg @ref LL_EXTI_LINE_16
 549:Drivers/STM32F1xx_HAL_Driver/Inc/stm32f1xx_ll_exti.h ****   *         @arg @ref LL_EXTI_LINE_18
 550:Drivers/STM32F1xx_HAL_Driver/Inc/stm32f1xx_ll_exti.h ****   *         @arg @ref LL_EXTI_LINE_19
 551:Drivers/STM32F1xx_HAL_Driver/Inc/stm32f1xx_ll_exti.h ****   * @note   Please check each device line mapping for EXTI Line availability
 552:Drivers/STM32F1xx_HAL_Driver/Inc/stm32f1xx_ll_exti.h ****   * @retval None
 553:Drivers/STM32F1xx_HAL_Driver/Inc/stm32f1xx_ll_exti.h ****   */
 554:Drivers/STM32F1xx_HAL_Driver/Inc/stm32f1xx_ll_exti.h **** __STATIC_INLINE void LL_EXTI_DisableRisingTrig_0_31(uint32_t ExtiLine)
 555:Drivers/STM32F1xx_HAL_Driver/Inc/stm32f1xx_ll_exti.h **** {
 292              		.loc 1 555 0
 293              		.cfi_startproc
 294              		@ args = 0, pretend = 0, frame = 8
 295              		@ frame_needed = 1, uses_anonymous_args = 0
 296              		@ link register save eliminated.
 297 0000 80B4     		push	{r7}
 298              	.LCFI30:
 299              		.cfi_def_cfa_offset 4
 300              		.cfi_offset 7, -4
 301 0002 83B0     		sub	sp, sp, #12
 302              	.LCFI31:
 303              		.cfi_def_cfa_offset 16
 304 0004 00AF     		add	r7, sp, #0
 305              	.LCFI32:
 306              		.cfi_def_cfa_register 7
 307 0006 7860     		str	r0, [r7, #4]
 556:Drivers/STM32F1xx_HAL_Driver/Inc/stm32f1xx_ll_exti.h ****   CLEAR_BIT(EXTI->RTSR, ExtiLine);
 308              		.loc 1 556 0
 309 0008 054B     		ldr	r3, .L17
 310 000a 9A68     		ldr	r2, [r3, #8]
ARM GAS  /tmp/ccHawOes.s 			page 16


 311 000c 7B68     		ldr	r3, [r7, #4]
 312 000e DB43     		mvns	r3, r3
 313 0010 0349     		ldr	r1, .L17
 314 0012 1340     		ands	r3, r3, r2
 315 0014 8B60     		str	r3, [r1, #8]
 557:Drivers/STM32F1xx_HAL_Driver/Inc/stm32f1xx_ll_exti.h **** 
 558:Drivers/STM32F1xx_HAL_Driver/Inc/stm32f1xx_ll_exti.h **** }
 316              		.loc 1 558 0
 317 0016 00BF     		nop
 318 0018 0C37     		adds	r7, r7, #12
 319              	.LCFI33:
 320              		.cfi_def_cfa_offset 4
 321 001a BD46     		mov	sp, r7
 322              	.LCFI34:
 323              		.cfi_def_cfa_register 13
 324              		@ sp needed
 325 001c 80BC     		pop	{r7}
 326              	.LCFI35:
 327              		.cfi_restore 7
 328              		.cfi_def_cfa_offset 0
 329 001e 7047     		bx	lr
 330              	.L18:
 331              		.align	2
 332              	.L17:
 333 0020 00040140 		.word	1073808384
 334              		.cfi_endproc
 335              	.LFE70:
 337              		.section	.text.LL_EXTI_EnableFallingTrig_0_31,"ax",%progbits
 338              		.align	1
 339              		.syntax unified
 340              		.thumb
 341              		.thumb_func
 342              		.fpu softvfp
 344              	LL_EXTI_EnableFallingTrig_0_31:
 345              	.LFB72:
 559:Drivers/STM32F1xx_HAL_Driver/Inc/stm32f1xx_ll_exti.h **** 
 560:Drivers/STM32F1xx_HAL_Driver/Inc/stm32f1xx_ll_exti.h **** 
 561:Drivers/STM32F1xx_HAL_Driver/Inc/stm32f1xx_ll_exti.h **** /**
 562:Drivers/STM32F1xx_HAL_Driver/Inc/stm32f1xx_ll_exti.h ****   * @brief  Check if rising edge trigger is enabled for Lines in range 0 to 31
 563:Drivers/STM32F1xx_HAL_Driver/Inc/stm32f1xx_ll_exti.h ****   * @rmtoll RTSR        RTx           LL_EXTI_IsEnabledRisingTrig_0_31
 564:Drivers/STM32F1xx_HAL_Driver/Inc/stm32f1xx_ll_exti.h ****   * @param  ExtiLine This parameter can be a combination of the following values:
 565:Drivers/STM32F1xx_HAL_Driver/Inc/stm32f1xx_ll_exti.h ****   *         @arg @ref LL_EXTI_LINE_0
 566:Drivers/STM32F1xx_HAL_Driver/Inc/stm32f1xx_ll_exti.h ****   *         @arg @ref LL_EXTI_LINE_1
 567:Drivers/STM32F1xx_HAL_Driver/Inc/stm32f1xx_ll_exti.h ****   *         @arg @ref LL_EXTI_LINE_2
 568:Drivers/STM32F1xx_HAL_Driver/Inc/stm32f1xx_ll_exti.h ****   *         @arg @ref LL_EXTI_LINE_3
 569:Drivers/STM32F1xx_HAL_Driver/Inc/stm32f1xx_ll_exti.h ****   *         @arg @ref LL_EXTI_LINE_4
 570:Drivers/STM32F1xx_HAL_Driver/Inc/stm32f1xx_ll_exti.h ****   *         @arg @ref LL_EXTI_LINE_5
 571:Drivers/STM32F1xx_HAL_Driver/Inc/stm32f1xx_ll_exti.h ****   *         @arg @ref LL_EXTI_LINE_6
 572:Drivers/STM32F1xx_HAL_Driver/Inc/stm32f1xx_ll_exti.h ****   *         @arg @ref LL_EXTI_LINE_7
 573:Drivers/STM32F1xx_HAL_Driver/Inc/stm32f1xx_ll_exti.h ****   *         @arg @ref LL_EXTI_LINE_8
 574:Drivers/STM32F1xx_HAL_Driver/Inc/stm32f1xx_ll_exti.h ****   *         @arg @ref LL_EXTI_LINE_9
 575:Drivers/STM32F1xx_HAL_Driver/Inc/stm32f1xx_ll_exti.h ****   *         @arg @ref LL_EXTI_LINE_10
 576:Drivers/STM32F1xx_HAL_Driver/Inc/stm32f1xx_ll_exti.h ****   *         @arg @ref LL_EXTI_LINE_11
 577:Drivers/STM32F1xx_HAL_Driver/Inc/stm32f1xx_ll_exti.h ****   *         @arg @ref LL_EXTI_LINE_12
 578:Drivers/STM32F1xx_HAL_Driver/Inc/stm32f1xx_ll_exti.h ****   *         @arg @ref LL_EXTI_LINE_13
 579:Drivers/STM32F1xx_HAL_Driver/Inc/stm32f1xx_ll_exti.h ****   *         @arg @ref LL_EXTI_LINE_14
 580:Drivers/STM32F1xx_HAL_Driver/Inc/stm32f1xx_ll_exti.h ****   *         @arg @ref LL_EXTI_LINE_15
ARM GAS  /tmp/ccHawOes.s 			page 17


 581:Drivers/STM32F1xx_HAL_Driver/Inc/stm32f1xx_ll_exti.h ****   *         @arg @ref LL_EXTI_LINE_16
 582:Drivers/STM32F1xx_HAL_Driver/Inc/stm32f1xx_ll_exti.h ****   *         @arg @ref LL_EXTI_LINE_18
 583:Drivers/STM32F1xx_HAL_Driver/Inc/stm32f1xx_ll_exti.h ****   *         @arg @ref LL_EXTI_LINE_19
 584:Drivers/STM32F1xx_HAL_Driver/Inc/stm32f1xx_ll_exti.h ****   * @note   Please check each device line mapping for EXTI Line availability
 585:Drivers/STM32F1xx_HAL_Driver/Inc/stm32f1xx_ll_exti.h ****   * @retval State of bit (1 or 0).
 586:Drivers/STM32F1xx_HAL_Driver/Inc/stm32f1xx_ll_exti.h ****   */
 587:Drivers/STM32F1xx_HAL_Driver/Inc/stm32f1xx_ll_exti.h **** __STATIC_INLINE uint32_t LL_EXTI_IsEnabledRisingTrig_0_31(uint32_t ExtiLine)
 588:Drivers/STM32F1xx_HAL_Driver/Inc/stm32f1xx_ll_exti.h **** {
 589:Drivers/STM32F1xx_HAL_Driver/Inc/stm32f1xx_ll_exti.h ****   return (READ_BIT(EXTI->RTSR, ExtiLine) == (ExtiLine));
 590:Drivers/STM32F1xx_HAL_Driver/Inc/stm32f1xx_ll_exti.h **** }
 591:Drivers/STM32F1xx_HAL_Driver/Inc/stm32f1xx_ll_exti.h **** 
 592:Drivers/STM32F1xx_HAL_Driver/Inc/stm32f1xx_ll_exti.h **** 
 593:Drivers/STM32F1xx_HAL_Driver/Inc/stm32f1xx_ll_exti.h **** /**
 594:Drivers/STM32F1xx_HAL_Driver/Inc/stm32f1xx_ll_exti.h ****   * @}
 595:Drivers/STM32F1xx_HAL_Driver/Inc/stm32f1xx_ll_exti.h ****   */
 596:Drivers/STM32F1xx_HAL_Driver/Inc/stm32f1xx_ll_exti.h **** 
 597:Drivers/STM32F1xx_HAL_Driver/Inc/stm32f1xx_ll_exti.h **** /** @defgroup EXTI_LL_EF_Falling_Trigger_Management Falling_Trigger_Management
 598:Drivers/STM32F1xx_HAL_Driver/Inc/stm32f1xx_ll_exti.h ****   * @{
 599:Drivers/STM32F1xx_HAL_Driver/Inc/stm32f1xx_ll_exti.h ****   */
 600:Drivers/STM32F1xx_HAL_Driver/Inc/stm32f1xx_ll_exti.h **** 
 601:Drivers/STM32F1xx_HAL_Driver/Inc/stm32f1xx_ll_exti.h **** /**
 602:Drivers/STM32F1xx_HAL_Driver/Inc/stm32f1xx_ll_exti.h ****   * @brief  Enable ExtiLine Falling Edge Trigger for Lines in range 0 to 31
 603:Drivers/STM32F1xx_HAL_Driver/Inc/stm32f1xx_ll_exti.h ****   * @note The configurable wakeup lines are edge-triggered. No glitch must be
 604:Drivers/STM32F1xx_HAL_Driver/Inc/stm32f1xx_ll_exti.h ****   *       generated on these lines. If a falling edge on a configurable interrupt
 605:Drivers/STM32F1xx_HAL_Driver/Inc/stm32f1xx_ll_exti.h ****   *       line occurs during a write operation in the EXTI_FTSR register, the
 606:Drivers/STM32F1xx_HAL_Driver/Inc/stm32f1xx_ll_exti.h ****   *       pending bit is not set.
 607:Drivers/STM32F1xx_HAL_Driver/Inc/stm32f1xx_ll_exti.h ****   *       Rising and falling edge triggers can be set for
 608:Drivers/STM32F1xx_HAL_Driver/Inc/stm32f1xx_ll_exti.h ****   *       the same interrupt line. In this case, both generate a trigger
 609:Drivers/STM32F1xx_HAL_Driver/Inc/stm32f1xx_ll_exti.h ****   *       condition.
 610:Drivers/STM32F1xx_HAL_Driver/Inc/stm32f1xx_ll_exti.h ****   * @rmtoll FTSR        FTx           LL_EXTI_EnableFallingTrig_0_31
 611:Drivers/STM32F1xx_HAL_Driver/Inc/stm32f1xx_ll_exti.h ****   * @param  ExtiLine This parameter can be a combination of the following values:
 612:Drivers/STM32F1xx_HAL_Driver/Inc/stm32f1xx_ll_exti.h ****   *         @arg @ref LL_EXTI_LINE_0
 613:Drivers/STM32F1xx_HAL_Driver/Inc/stm32f1xx_ll_exti.h ****   *         @arg @ref LL_EXTI_LINE_1
 614:Drivers/STM32F1xx_HAL_Driver/Inc/stm32f1xx_ll_exti.h ****   *         @arg @ref LL_EXTI_LINE_2
 615:Drivers/STM32F1xx_HAL_Driver/Inc/stm32f1xx_ll_exti.h ****   *         @arg @ref LL_EXTI_LINE_3
 616:Drivers/STM32F1xx_HAL_Driver/Inc/stm32f1xx_ll_exti.h ****   *         @arg @ref LL_EXTI_LINE_4
 617:Drivers/STM32F1xx_HAL_Driver/Inc/stm32f1xx_ll_exti.h ****   *         @arg @ref LL_EXTI_LINE_5
 618:Drivers/STM32F1xx_HAL_Driver/Inc/stm32f1xx_ll_exti.h ****   *         @arg @ref LL_EXTI_LINE_6
 619:Drivers/STM32F1xx_HAL_Driver/Inc/stm32f1xx_ll_exti.h ****   *         @arg @ref LL_EXTI_LINE_7
 620:Drivers/STM32F1xx_HAL_Driver/Inc/stm32f1xx_ll_exti.h ****   *         @arg @ref LL_EXTI_LINE_8
 621:Drivers/STM32F1xx_HAL_Driver/Inc/stm32f1xx_ll_exti.h ****   *         @arg @ref LL_EXTI_LINE_9
 622:Drivers/STM32F1xx_HAL_Driver/Inc/stm32f1xx_ll_exti.h ****   *         @arg @ref LL_EXTI_LINE_10
 623:Drivers/STM32F1xx_HAL_Driver/Inc/stm32f1xx_ll_exti.h ****   *         @arg @ref LL_EXTI_LINE_11
 624:Drivers/STM32F1xx_HAL_Driver/Inc/stm32f1xx_ll_exti.h ****   *         @arg @ref LL_EXTI_LINE_12
 625:Drivers/STM32F1xx_HAL_Driver/Inc/stm32f1xx_ll_exti.h ****   *         @arg @ref LL_EXTI_LINE_13
 626:Drivers/STM32F1xx_HAL_Driver/Inc/stm32f1xx_ll_exti.h ****   *         @arg @ref LL_EXTI_LINE_14
 627:Drivers/STM32F1xx_HAL_Driver/Inc/stm32f1xx_ll_exti.h ****   *         @arg @ref LL_EXTI_LINE_15
 628:Drivers/STM32F1xx_HAL_Driver/Inc/stm32f1xx_ll_exti.h ****   *         @arg @ref LL_EXTI_LINE_16
 629:Drivers/STM32F1xx_HAL_Driver/Inc/stm32f1xx_ll_exti.h ****   *         @arg @ref LL_EXTI_LINE_18
 630:Drivers/STM32F1xx_HAL_Driver/Inc/stm32f1xx_ll_exti.h ****   *         @arg @ref LL_EXTI_LINE_19
 631:Drivers/STM32F1xx_HAL_Driver/Inc/stm32f1xx_ll_exti.h ****   * @note   Please check each device line mapping for EXTI Line availability
 632:Drivers/STM32F1xx_HAL_Driver/Inc/stm32f1xx_ll_exti.h ****   * @retval None
 633:Drivers/STM32F1xx_HAL_Driver/Inc/stm32f1xx_ll_exti.h ****   */
 634:Drivers/STM32F1xx_HAL_Driver/Inc/stm32f1xx_ll_exti.h **** __STATIC_INLINE void LL_EXTI_EnableFallingTrig_0_31(uint32_t ExtiLine)
 635:Drivers/STM32F1xx_HAL_Driver/Inc/stm32f1xx_ll_exti.h **** {
 346              		.loc 1 635 0
 347              		.cfi_startproc
ARM GAS  /tmp/ccHawOes.s 			page 18


 348              		@ args = 0, pretend = 0, frame = 8
 349              		@ frame_needed = 1, uses_anonymous_args = 0
 350              		@ link register save eliminated.
 351 0000 80B4     		push	{r7}
 352              	.LCFI36:
 353              		.cfi_def_cfa_offset 4
 354              		.cfi_offset 7, -4
 355 0002 83B0     		sub	sp, sp, #12
 356              	.LCFI37:
 357              		.cfi_def_cfa_offset 16
 358 0004 00AF     		add	r7, sp, #0
 359              	.LCFI38:
 360              		.cfi_def_cfa_register 7
 361 0006 7860     		str	r0, [r7, #4]
 636:Drivers/STM32F1xx_HAL_Driver/Inc/stm32f1xx_ll_exti.h ****   SET_BIT(EXTI->FTSR, ExtiLine);
 362              		.loc 1 636 0
 363 0008 054B     		ldr	r3, .L20
 364 000a DA68     		ldr	r2, [r3, #12]
 365 000c 0449     		ldr	r1, .L20
 366 000e 7B68     		ldr	r3, [r7, #4]
 367 0010 1343     		orrs	r3, r3, r2
 368 0012 CB60     		str	r3, [r1, #12]
 637:Drivers/STM32F1xx_HAL_Driver/Inc/stm32f1xx_ll_exti.h **** }
 369              		.loc 1 637 0
 370 0014 00BF     		nop
 371 0016 0C37     		adds	r7, r7, #12
 372              	.LCFI39:
 373              		.cfi_def_cfa_offset 4
 374 0018 BD46     		mov	sp, r7
 375              	.LCFI40:
 376              		.cfi_def_cfa_register 13
 377              		@ sp needed
 378 001a 80BC     		pop	{r7}
 379              	.LCFI41:
 380              		.cfi_restore 7
 381              		.cfi_def_cfa_offset 0
 382 001c 7047     		bx	lr
 383              	.L21:
 384 001e 00BF     		.align	2
 385              	.L20:
 386 0020 00040140 		.word	1073808384
 387              		.cfi_endproc
 388              	.LFE72:
 390              		.section	.text.LL_EXTI_DisableFallingTrig_0_31,"ax",%progbits
 391              		.align	1
 392              		.syntax unified
 393              		.thumb
 394              		.thumb_func
 395              		.fpu softvfp
 397              	LL_EXTI_DisableFallingTrig_0_31:
 398              	.LFB73:
 638:Drivers/STM32F1xx_HAL_Driver/Inc/stm32f1xx_ll_exti.h **** 
 639:Drivers/STM32F1xx_HAL_Driver/Inc/stm32f1xx_ll_exti.h **** 
 640:Drivers/STM32F1xx_HAL_Driver/Inc/stm32f1xx_ll_exti.h **** /**
 641:Drivers/STM32F1xx_HAL_Driver/Inc/stm32f1xx_ll_exti.h ****   * @brief  Disable ExtiLine Falling Edge Trigger for Lines in range 0 to 31
 642:Drivers/STM32F1xx_HAL_Driver/Inc/stm32f1xx_ll_exti.h ****   * @note The configurable wakeup lines are edge-triggered. No glitch must be
 643:Drivers/STM32F1xx_HAL_Driver/Inc/stm32f1xx_ll_exti.h ****   *       generated on these lines. If a Falling edge on a configurable interrupt
ARM GAS  /tmp/ccHawOes.s 			page 19


 644:Drivers/STM32F1xx_HAL_Driver/Inc/stm32f1xx_ll_exti.h ****   *       line occurs during a write operation in the EXTI_FTSR register, the
 645:Drivers/STM32F1xx_HAL_Driver/Inc/stm32f1xx_ll_exti.h ****   *       pending bit is not set.
 646:Drivers/STM32F1xx_HAL_Driver/Inc/stm32f1xx_ll_exti.h ****   *       Rising and falling edge triggers can be set for the same interrupt line.
 647:Drivers/STM32F1xx_HAL_Driver/Inc/stm32f1xx_ll_exti.h ****   *       In this case, both generate a trigger condition.
 648:Drivers/STM32F1xx_HAL_Driver/Inc/stm32f1xx_ll_exti.h ****   * @rmtoll FTSR        FTx           LL_EXTI_DisableFallingTrig_0_31
 649:Drivers/STM32F1xx_HAL_Driver/Inc/stm32f1xx_ll_exti.h ****   * @param  ExtiLine This parameter can be a combination of the following values:
 650:Drivers/STM32F1xx_HAL_Driver/Inc/stm32f1xx_ll_exti.h ****   *         @arg @ref LL_EXTI_LINE_0
 651:Drivers/STM32F1xx_HAL_Driver/Inc/stm32f1xx_ll_exti.h ****   *         @arg @ref LL_EXTI_LINE_1
 652:Drivers/STM32F1xx_HAL_Driver/Inc/stm32f1xx_ll_exti.h ****   *         @arg @ref LL_EXTI_LINE_2
 653:Drivers/STM32F1xx_HAL_Driver/Inc/stm32f1xx_ll_exti.h ****   *         @arg @ref LL_EXTI_LINE_3
 654:Drivers/STM32F1xx_HAL_Driver/Inc/stm32f1xx_ll_exti.h ****   *         @arg @ref LL_EXTI_LINE_4
 655:Drivers/STM32F1xx_HAL_Driver/Inc/stm32f1xx_ll_exti.h ****   *         @arg @ref LL_EXTI_LINE_5
 656:Drivers/STM32F1xx_HAL_Driver/Inc/stm32f1xx_ll_exti.h ****   *         @arg @ref LL_EXTI_LINE_6
 657:Drivers/STM32F1xx_HAL_Driver/Inc/stm32f1xx_ll_exti.h ****   *         @arg @ref LL_EXTI_LINE_7
 658:Drivers/STM32F1xx_HAL_Driver/Inc/stm32f1xx_ll_exti.h ****   *         @arg @ref LL_EXTI_LINE_8
 659:Drivers/STM32F1xx_HAL_Driver/Inc/stm32f1xx_ll_exti.h ****   *         @arg @ref LL_EXTI_LINE_9
 660:Drivers/STM32F1xx_HAL_Driver/Inc/stm32f1xx_ll_exti.h ****   *         @arg @ref LL_EXTI_LINE_10
 661:Drivers/STM32F1xx_HAL_Driver/Inc/stm32f1xx_ll_exti.h ****   *         @arg @ref LL_EXTI_LINE_11
 662:Drivers/STM32F1xx_HAL_Driver/Inc/stm32f1xx_ll_exti.h ****   *         @arg @ref LL_EXTI_LINE_12
 663:Drivers/STM32F1xx_HAL_Driver/Inc/stm32f1xx_ll_exti.h ****   *         @arg @ref LL_EXTI_LINE_13
 664:Drivers/STM32F1xx_HAL_Driver/Inc/stm32f1xx_ll_exti.h ****   *         @arg @ref LL_EXTI_LINE_14
 665:Drivers/STM32F1xx_HAL_Driver/Inc/stm32f1xx_ll_exti.h ****   *         @arg @ref LL_EXTI_LINE_15
 666:Drivers/STM32F1xx_HAL_Driver/Inc/stm32f1xx_ll_exti.h ****   *         @arg @ref LL_EXTI_LINE_16
 667:Drivers/STM32F1xx_HAL_Driver/Inc/stm32f1xx_ll_exti.h ****   *         @arg @ref LL_EXTI_LINE_18
 668:Drivers/STM32F1xx_HAL_Driver/Inc/stm32f1xx_ll_exti.h ****   *         @arg @ref LL_EXTI_LINE_19
 669:Drivers/STM32F1xx_HAL_Driver/Inc/stm32f1xx_ll_exti.h ****   * @note   Please check each device line mapping for EXTI Line availability
 670:Drivers/STM32F1xx_HAL_Driver/Inc/stm32f1xx_ll_exti.h ****   * @retval None
 671:Drivers/STM32F1xx_HAL_Driver/Inc/stm32f1xx_ll_exti.h ****   */
 672:Drivers/STM32F1xx_HAL_Driver/Inc/stm32f1xx_ll_exti.h **** __STATIC_INLINE void LL_EXTI_DisableFallingTrig_0_31(uint32_t ExtiLine)
 673:Drivers/STM32F1xx_HAL_Driver/Inc/stm32f1xx_ll_exti.h **** {
 399              		.loc 1 673 0
 400              		.cfi_startproc
 401              		@ args = 0, pretend = 0, frame = 8
 402              		@ frame_needed = 1, uses_anonymous_args = 0
 403              		@ link register save eliminated.
 404 0000 80B4     		push	{r7}
 405              	.LCFI42:
 406              		.cfi_def_cfa_offset 4
 407              		.cfi_offset 7, -4
 408 0002 83B0     		sub	sp, sp, #12
 409              	.LCFI43:
 410              		.cfi_def_cfa_offset 16
 411 0004 00AF     		add	r7, sp, #0
 412              	.LCFI44:
 413              		.cfi_def_cfa_register 7
 414 0006 7860     		str	r0, [r7, #4]
 674:Drivers/STM32F1xx_HAL_Driver/Inc/stm32f1xx_ll_exti.h ****   CLEAR_BIT(EXTI->FTSR, ExtiLine);
 415              		.loc 1 674 0
 416 0008 054B     		ldr	r3, .L23
 417 000a DA68     		ldr	r2, [r3, #12]
 418 000c 7B68     		ldr	r3, [r7, #4]
 419 000e DB43     		mvns	r3, r3
 420 0010 0349     		ldr	r1, .L23
 421 0012 1340     		ands	r3, r3, r2
 422 0014 CB60     		str	r3, [r1, #12]
 675:Drivers/STM32F1xx_HAL_Driver/Inc/stm32f1xx_ll_exti.h **** }
 423              		.loc 1 675 0
ARM GAS  /tmp/ccHawOes.s 			page 20


 424 0016 00BF     		nop
 425 0018 0C37     		adds	r7, r7, #12
 426              	.LCFI45:
 427              		.cfi_def_cfa_offset 4
 428 001a BD46     		mov	sp, r7
 429              	.LCFI46:
 430              		.cfi_def_cfa_register 13
 431              		@ sp needed
 432 001c 80BC     		pop	{r7}
 433              	.LCFI47:
 434              		.cfi_restore 7
 435              		.cfi_def_cfa_offset 0
 436 001e 7047     		bx	lr
 437              	.L24:
 438              		.align	2
 439              	.L23:
 440 0020 00040140 		.word	1073808384
 441              		.cfi_endproc
 442              	.LFE73:
 444              		.section	.text.LL_EXTI_DeInit,"ax",%progbits
 445              		.align	1
 446              		.global	LL_EXTI_DeInit
 447              		.syntax unified
 448              		.thumb
 449              		.thumb_func
 450              		.fpu softvfp
 452              	LL_EXTI_DeInit:
 453              	.LFB79:
 454              		.file 2 "Drivers/STM32F1xx_HAL_Driver/Src/stm32f1xx_ll_exti.c"
   1:Drivers/STM32F1xx_HAL_Driver/Src/stm32f1xx_ll_exti.c **** /**
   2:Drivers/STM32F1xx_HAL_Driver/Src/stm32f1xx_ll_exti.c ****   ******************************************************************************
   3:Drivers/STM32F1xx_HAL_Driver/Src/stm32f1xx_ll_exti.c ****   * @file    stm32f1xx_ll_exti.c
   4:Drivers/STM32F1xx_HAL_Driver/Src/stm32f1xx_ll_exti.c ****   * @author  MCD Application Team
   5:Drivers/STM32F1xx_HAL_Driver/Src/stm32f1xx_ll_exti.c ****   * @brief   EXTI LL module driver.
   6:Drivers/STM32F1xx_HAL_Driver/Src/stm32f1xx_ll_exti.c ****   ******************************************************************************
   7:Drivers/STM32F1xx_HAL_Driver/Src/stm32f1xx_ll_exti.c ****   * @attention
   8:Drivers/STM32F1xx_HAL_Driver/Src/stm32f1xx_ll_exti.c ****   *
   9:Drivers/STM32F1xx_HAL_Driver/Src/stm32f1xx_ll_exti.c ****   * <h2><center>&copy; COPYRIGHT(c) 2016 STMicroelectronics</center></h2>
  10:Drivers/STM32F1xx_HAL_Driver/Src/stm32f1xx_ll_exti.c ****   *
  11:Drivers/STM32F1xx_HAL_Driver/Src/stm32f1xx_ll_exti.c ****   * Redistribution and use in source and binary forms, with or without modification,
  12:Drivers/STM32F1xx_HAL_Driver/Src/stm32f1xx_ll_exti.c ****   * are permitted provided that the following conditions are met:
  13:Drivers/STM32F1xx_HAL_Driver/Src/stm32f1xx_ll_exti.c ****   *   1. Redistributions of source code must retain the above copyright notice,
  14:Drivers/STM32F1xx_HAL_Driver/Src/stm32f1xx_ll_exti.c ****   *      this list of conditions and the following disclaimer.
  15:Drivers/STM32F1xx_HAL_Driver/Src/stm32f1xx_ll_exti.c ****   *   2. Redistributions in binary form must reproduce the above copyright notice,
  16:Drivers/STM32F1xx_HAL_Driver/Src/stm32f1xx_ll_exti.c ****   *      this list of conditions and the following disclaimer in the documentation
  17:Drivers/STM32F1xx_HAL_Driver/Src/stm32f1xx_ll_exti.c ****   *      and/or other materials provided with the distribution.
  18:Drivers/STM32F1xx_HAL_Driver/Src/stm32f1xx_ll_exti.c ****   *   3. Neither the name of STMicroelectronics nor the names of its contributors
  19:Drivers/STM32F1xx_HAL_Driver/Src/stm32f1xx_ll_exti.c ****   *      may be used to endorse or promote products derived from this software
  20:Drivers/STM32F1xx_HAL_Driver/Src/stm32f1xx_ll_exti.c ****   *      without specific prior written permission.
  21:Drivers/STM32F1xx_HAL_Driver/Src/stm32f1xx_ll_exti.c ****   *
  22:Drivers/STM32F1xx_HAL_Driver/Src/stm32f1xx_ll_exti.c ****   * THIS SOFTWARE IS PROVIDED BY THE COPYRIGHT HOLDERS AND CONTRIBUTORS "AS IS"
  23:Drivers/STM32F1xx_HAL_Driver/Src/stm32f1xx_ll_exti.c ****   * AND ANY EXPRESS OR IMPLIED WARRANTIES, INCLUDING, BUT NOT LIMITED TO, THE
  24:Drivers/STM32F1xx_HAL_Driver/Src/stm32f1xx_ll_exti.c ****   * IMPLIED WARRANTIES OF MERCHANTABILITY AND FITNESS FOR A PARTICULAR PURPOSE ARE
  25:Drivers/STM32F1xx_HAL_Driver/Src/stm32f1xx_ll_exti.c ****   * DISCLAIMED. IN NO EVENT SHALL THE COPYRIGHT HOLDER OR CONTRIBUTORS BE LIABLE
  26:Drivers/STM32F1xx_HAL_Driver/Src/stm32f1xx_ll_exti.c ****   * FOR ANY DIRECT, INDIRECT, INCIDENTAL, SPECIAL, EXEMPLARY, OR CONSEQUENTIAL
  27:Drivers/STM32F1xx_HAL_Driver/Src/stm32f1xx_ll_exti.c ****   * DAMAGES (INCLUDING, BUT NOT LIMITED TO, PROCUREMENT OF SUBSTITUTE GOODS OR
  28:Drivers/STM32F1xx_HAL_Driver/Src/stm32f1xx_ll_exti.c ****   * SERVICES; LOSS OF USE, DATA, OR PROFITS; OR BUSINESS INTERRUPTION) HOWEVER
ARM GAS  /tmp/ccHawOes.s 			page 21


  29:Drivers/STM32F1xx_HAL_Driver/Src/stm32f1xx_ll_exti.c ****   * CAUSED AND ON ANY THEORY OF LIABILITY, WHETHER IN CONTRACT, STRICT LIABILITY,
  30:Drivers/STM32F1xx_HAL_Driver/Src/stm32f1xx_ll_exti.c ****   * OR TORT (INCLUDING NEGLIGENCE OR OTHERWISE) ARISING IN ANY WAY OUT OF THE USE
  31:Drivers/STM32F1xx_HAL_Driver/Src/stm32f1xx_ll_exti.c ****   * OF THIS SOFTWARE, EVEN IF ADVISED OF THE POSSIBILITY OF SUCH DAMAGE.
  32:Drivers/STM32F1xx_HAL_Driver/Src/stm32f1xx_ll_exti.c ****   *
  33:Drivers/STM32F1xx_HAL_Driver/Src/stm32f1xx_ll_exti.c ****   ******************************************************************************
  34:Drivers/STM32F1xx_HAL_Driver/Src/stm32f1xx_ll_exti.c ****   */
  35:Drivers/STM32F1xx_HAL_Driver/Src/stm32f1xx_ll_exti.c **** #if defined(USE_FULL_LL_DRIVER)
  36:Drivers/STM32F1xx_HAL_Driver/Src/stm32f1xx_ll_exti.c **** 
  37:Drivers/STM32F1xx_HAL_Driver/Src/stm32f1xx_ll_exti.c **** /* Includes ------------------------------------------------------------------*/
  38:Drivers/STM32F1xx_HAL_Driver/Src/stm32f1xx_ll_exti.c **** #include "stm32f1xx_ll_exti.h"
  39:Drivers/STM32F1xx_HAL_Driver/Src/stm32f1xx_ll_exti.c **** #ifdef  USE_FULL_ASSERT
  40:Drivers/STM32F1xx_HAL_Driver/Src/stm32f1xx_ll_exti.c **** #include "stm32_assert.h"
  41:Drivers/STM32F1xx_HAL_Driver/Src/stm32f1xx_ll_exti.c **** #else
  42:Drivers/STM32F1xx_HAL_Driver/Src/stm32f1xx_ll_exti.c **** #define assert_param(expr) ((void)0U)
  43:Drivers/STM32F1xx_HAL_Driver/Src/stm32f1xx_ll_exti.c **** #endif
  44:Drivers/STM32F1xx_HAL_Driver/Src/stm32f1xx_ll_exti.c **** 
  45:Drivers/STM32F1xx_HAL_Driver/Src/stm32f1xx_ll_exti.c **** /** @addtogroup STM32F1xx_LL_Driver
  46:Drivers/STM32F1xx_HAL_Driver/Src/stm32f1xx_ll_exti.c ****   * @{
  47:Drivers/STM32F1xx_HAL_Driver/Src/stm32f1xx_ll_exti.c ****   */
  48:Drivers/STM32F1xx_HAL_Driver/Src/stm32f1xx_ll_exti.c **** 
  49:Drivers/STM32F1xx_HAL_Driver/Src/stm32f1xx_ll_exti.c **** #if defined (EXTI)
  50:Drivers/STM32F1xx_HAL_Driver/Src/stm32f1xx_ll_exti.c **** 
  51:Drivers/STM32F1xx_HAL_Driver/Src/stm32f1xx_ll_exti.c **** /** @defgroup EXTI_LL EXTI
  52:Drivers/STM32F1xx_HAL_Driver/Src/stm32f1xx_ll_exti.c ****   * @{
  53:Drivers/STM32F1xx_HAL_Driver/Src/stm32f1xx_ll_exti.c ****   */
  54:Drivers/STM32F1xx_HAL_Driver/Src/stm32f1xx_ll_exti.c **** 
  55:Drivers/STM32F1xx_HAL_Driver/Src/stm32f1xx_ll_exti.c **** /* Private types -------------------------------------------------------------*/
  56:Drivers/STM32F1xx_HAL_Driver/Src/stm32f1xx_ll_exti.c **** /* Private variables ---------------------------------------------------------*/
  57:Drivers/STM32F1xx_HAL_Driver/Src/stm32f1xx_ll_exti.c **** /* Private constants ---------------------------------------------------------*/
  58:Drivers/STM32F1xx_HAL_Driver/Src/stm32f1xx_ll_exti.c **** /* Private macros ------------------------------------------------------------*/
  59:Drivers/STM32F1xx_HAL_Driver/Src/stm32f1xx_ll_exti.c **** /** @addtogroup EXTI_LL_Private_Macros
  60:Drivers/STM32F1xx_HAL_Driver/Src/stm32f1xx_ll_exti.c ****   * @{
  61:Drivers/STM32F1xx_HAL_Driver/Src/stm32f1xx_ll_exti.c ****   */
  62:Drivers/STM32F1xx_HAL_Driver/Src/stm32f1xx_ll_exti.c **** 
  63:Drivers/STM32F1xx_HAL_Driver/Src/stm32f1xx_ll_exti.c **** #define IS_LL_EXTI_LINE_0_31(__VALUE__)              (((__VALUE__) & ~LL_EXTI_LINE_ALL_0_31) == 0x0
  64:Drivers/STM32F1xx_HAL_Driver/Src/stm32f1xx_ll_exti.c **** 
  65:Drivers/STM32F1xx_HAL_Driver/Src/stm32f1xx_ll_exti.c **** #define IS_LL_EXTI_MODE(__VALUE__)                   (((__VALUE__) == LL_EXTI_MODE_IT)            \
  66:Drivers/STM32F1xx_HAL_Driver/Src/stm32f1xx_ll_exti.c ****                                                    || ((__VALUE__) == LL_EXTI_MODE_EVENT)         \
  67:Drivers/STM32F1xx_HAL_Driver/Src/stm32f1xx_ll_exti.c ****                                                    || ((__VALUE__) == LL_EXTI_MODE_IT_EVENT))
  68:Drivers/STM32F1xx_HAL_Driver/Src/stm32f1xx_ll_exti.c **** 
  69:Drivers/STM32F1xx_HAL_Driver/Src/stm32f1xx_ll_exti.c **** 
  70:Drivers/STM32F1xx_HAL_Driver/Src/stm32f1xx_ll_exti.c **** #define IS_LL_EXTI_TRIGGER(__VALUE__)                (((__VALUE__) == LL_EXTI_TRIGGER_NONE)       \
  71:Drivers/STM32F1xx_HAL_Driver/Src/stm32f1xx_ll_exti.c ****                                                    || ((__VALUE__) == LL_EXTI_TRIGGER_RISING)     \
  72:Drivers/STM32F1xx_HAL_Driver/Src/stm32f1xx_ll_exti.c ****                                                    || ((__VALUE__) == LL_EXTI_TRIGGER_FALLING)    \
  73:Drivers/STM32F1xx_HAL_Driver/Src/stm32f1xx_ll_exti.c ****                                                    || ((__VALUE__) == LL_EXTI_TRIGGER_RISING_FALLIN
  74:Drivers/STM32F1xx_HAL_Driver/Src/stm32f1xx_ll_exti.c **** 
  75:Drivers/STM32F1xx_HAL_Driver/Src/stm32f1xx_ll_exti.c **** /**
  76:Drivers/STM32F1xx_HAL_Driver/Src/stm32f1xx_ll_exti.c ****   * @}
  77:Drivers/STM32F1xx_HAL_Driver/Src/stm32f1xx_ll_exti.c ****   */
  78:Drivers/STM32F1xx_HAL_Driver/Src/stm32f1xx_ll_exti.c **** 
  79:Drivers/STM32F1xx_HAL_Driver/Src/stm32f1xx_ll_exti.c **** /* Private function prototypes -----------------------------------------------*/
  80:Drivers/STM32F1xx_HAL_Driver/Src/stm32f1xx_ll_exti.c **** 
  81:Drivers/STM32F1xx_HAL_Driver/Src/stm32f1xx_ll_exti.c **** /* Exported functions --------------------------------------------------------*/
  82:Drivers/STM32F1xx_HAL_Driver/Src/stm32f1xx_ll_exti.c **** /** @addtogroup EXTI_LL_Exported_Functions
  83:Drivers/STM32F1xx_HAL_Driver/Src/stm32f1xx_ll_exti.c ****   * @{
  84:Drivers/STM32F1xx_HAL_Driver/Src/stm32f1xx_ll_exti.c ****   */
  85:Drivers/STM32F1xx_HAL_Driver/Src/stm32f1xx_ll_exti.c **** 
ARM GAS  /tmp/ccHawOes.s 			page 22


  86:Drivers/STM32F1xx_HAL_Driver/Src/stm32f1xx_ll_exti.c **** /** @addtogroup EXTI_LL_EF_Init
  87:Drivers/STM32F1xx_HAL_Driver/Src/stm32f1xx_ll_exti.c ****   * @{
  88:Drivers/STM32F1xx_HAL_Driver/Src/stm32f1xx_ll_exti.c ****   */
  89:Drivers/STM32F1xx_HAL_Driver/Src/stm32f1xx_ll_exti.c **** 
  90:Drivers/STM32F1xx_HAL_Driver/Src/stm32f1xx_ll_exti.c **** /**
  91:Drivers/STM32F1xx_HAL_Driver/Src/stm32f1xx_ll_exti.c ****   * @brief  De-initialize the EXTI registers to their default reset values.
  92:Drivers/STM32F1xx_HAL_Driver/Src/stm32f1xx_ll_exti.c ****   * @retval An ErrorStatus enumeration value:
  93:Drivers/STM32F1xx_HAL_Driver/Src/stm32f1xx_ll_exti.c ****   *          - SUCCESS: EXTI registers are de-initialized
  94:Drivers/STM32F1xx_HAL_Driver/Src/stm32f1xx_ll_exti.c ****   *          - ERROR: not applicable
  95:Drivers/STM32F1xx_HAL_Driver/Src/stm32f1xx_ll_exti.c ****   */
  96:Drivers/STM32F1xx_HAL_Driver/Src/stm32f1xx_ll_exti.c **** uint32_t LL_EXTI_DeInit(void)
  97:Drivers/STM32F1xx_HAL_Driver/Src/stm32f1xx_ll_exti.c **** {
 455              		.loc 2 97 0
 456              		.cfi_startproc
 457              		@ args = 0, pretend = 0, frame = 0
 458              		@ frame_needed = 1, uses_anonymous_args = 0
 459              		@ link register save eliminated.
 460 0000 80B4     		push	{r7}
 461              	.LCFI48:
 462              		.cfi_def_cfa_offset 4
 463              		.cfi_offset 7, -4
 464 0002 00AF     		add	r7, sp, #0
 465              	.LCFI49:
 466              		.cfi_def_cfa_register 7
  98:Drivers/STM32F1xx_HAL_Driver/Src/stm32f1xx_ll_exti.c ****   /* Interrupt mask register set to default reset values */
  99:Drivers/STM32F1xx_HAL_Driver/Src/stm32f1xx_ll_exti.c ****   LL_EXTI_WriteReg(IMR,   0x00000000U);
 467              		.loc 2 99 0
 468 0004 0B4B     		ldr	r3, .L27
 469 0006 0022     		movs	r2, #0
 470 0008 1A60     		str	r2, [r3]
 100:Drivers/STM32F1xx_HAL_Driver/Src/stm32f1xx_ll_exti.c ****   /* Event mask register set to default reset values */
 101:Drivers/STM32F1xx_HAL_Driver/Src/stm32f1xx_ll_exti.c ****   LL_EXTI_WriteReg(EMR,   0x00000000U);
 471              		.loc 2 101 0
 472 000a 0A4B     		ldr	r3, .L27
 473 000c 0022     		movs	r2, #0
 474 000e 5A60     		str	r2, [r3, #4]
 102:Drivers/STM32F1xx_HAL_Driver/Src/stm32f1xx_ll_exti.c ****   /* Rising Trigger selection register set to default reset values */
 103:Drivers/STM32F1xx_HAL_Driver/Src/stm32f1xx_ll_exti.c ****   LL_EXTI_WriteReg(RTSR,  0x00000000U);
 475              		.loc 2 103 0
 476 0010 084B     		ldr	r3, .L27
 477 0012 0022     		movs	r2, #0
 478 0014 9A60     		str	r2, [r3, #8]
 104:Drivers/STM32F1xx_HAL_Driver/Src/stm32f1xx_ll_exti.c ****   /* Falling Trigger selection register set to default reset values */
 105:Drivers/STM32F1xx_HAL_Driver/Src/stm32f1xx_ll_exti.c ****   LL_EXTI_WriteReg(FTSR,  0x00000000U);
 479              		.loc 2 105 0
 480 0016 074B     		ldr	r3, .L27
 481 0018 0022     		movs	r2, #0
 482 001a DA60     		str	r2, [r3, #12]
 106:Drivers/STM32F1xx_HAL_Driver/Src/stm32f1xx_ll_exti.c ****   /* Software interrupt event register set to default reset values */
 107:Drivers/STM32F1xx_HAL_Driver/Src/stm32f1xx_ll_exti.c ****   LL_EXTI_WriteReg(SWIER, 0x00000000U);
 483              		.loc 2 107 0
 484 001c 054B     		ldr	r3, .L27
 485 001e 0022     		movs	r2, #0
 486 0020 1A61     		str	r2, [r3, #16]
 108:Drivers/STM32F1xx_HAL_Driver/Src/stm32f1xx_ll_exti.c ****   /* Pending register clear */
 109:Drivers/STM32F1xx_HAL_Driver/Src/stm32f1xx_ll_exti.c ****   LL_EXTI_WriteReg(PR,    0x000FFFFFU);
 487              		.loc 2 109 0
ARM GAS  /tmp/ccHawOes.s 			page 23


 488 0022 044B     		ldr	r3, .L27
 489 0024 044A     		ldr	r2, .L27+4
 490 0026 5A61     		str	r2, [r3, #20]
 110:Drivers/STM32F1xx_HAL_Driver/Src/stm32f1xx_ll_exti.c **** 
 111:Drivers/STM32F1xx_HAL_Driver/Src/stm32f1xx_ll_exti.c ****   return SUCCESS;
 491              		.loc 2 111 0
 492 0028 0123     		movs	r3, #1
 112:Drivers/STM32F1xx_HAL_Driver/Src/stm32f1xx_ll_exti.c **** }
 493              		.loc 2 112 0
 494 002a 1846     		mov	r0, r3
 495 002c BD46     		mov	sp, r7
 496              	.LCFI50:
 497              		.cfi_def_cfa_register 13
 498              		@ sp needed
 499 002e 80BC     		pop	{r7}
 500              	.LCFI51:
 501              		.cfi_restore 7
 502              		.cfi_def_cfa_offset 0
 503 0030 7047     		bx	lr
 504              	.L28:
 505 0032 00BF     		.align	2
 506              	.L27:
 507 0034 00040140 		.word	1073808384
 508 0038 FFFF0F00 		.word	1048575
 509              		.cfi_endproc
 510              	.LFE79:
 512              		.section	.text.LL_EXTI_Init,"ax",%progbits
 513              		.align	1
 514              		.global	LL_EXTI_Init
 515              		.syntax unified
 516              		.thumb
 517              		.thumb_func
 518              		.fpu softvfp
 520              	LL_EXTI_Init:
 521              	.LFB80:
 113:Drivers/STM32F1xx_HAL_Driver/Src/stm32f1xx_ll_exti.c **** 
 114:Drivers/STM32F1xx_HAL_Driver/Src/stm32f1xx_ll_exti.c **** /**
 115:Drivers/STM32F1xx_HAL_Driver/Src/stm32f1xx_ll_exti.c ****   * @brief  Initialize the EXTI registers according to the specified parameters in EXTI_InitStruct.
 116:Drivers/STM32F1xx_HAL_Driver/Src/stm32f1xx_ll_exti.c ****   * @param  EXTI_InitStruct pointer to a @ref LL_EXTI_InitTypeDef structure.
 117:Drivers/STM32F1xx_HAL_Driver/Src/stm32f1xx_ll_exti.c ****   * @retval An ErrorStatus enumeration value:
 118:Drivers/STM32F1xx_HAL_Driver/Src/stm32f1xx_ll_exti.c ****   *          - SUCCESS: EXTI registers are initialized
 119:Drivers/STM32F1xx_HAL_Driver/Src/stm32f1xx_ll_exti.c ****   *          - ERROR: not applicable
 120:Drivers/STM32F1xx_HAL_Driver/Src/stm32f1xx_ll_exti.c ****   */
 121:Drivers/STM32F1xx_HAL_Driver/Src/stm32f1xx_ll_exti.c **** uint32_t LL_EXTI_Init(LL_EXTI_InitTypeDef *EXTI_InitStruct)
 122:Drivers/STM32F1xx_HAL_Driver/Src/stm32f1xx_ll_exti.c **** {
 522              		.loc 2 122 0
 523              		.cfi_startproc
 524              		@ args = 0, pretend = 0, frame = 16
 525              		@ frame_needed = 1, uses_anonymous_args = 0
 526 0000 80B5     		push	{r7, lr}
 527              	.LCFI52:
 528              		.cfi_def_cfa_offset 8
 529              		.cfi_offset 7, -8
 530              		.cfi_offset 14, -4
 531 0002 84B0     		sub	sp, sp, #16
 532              	.LCFI53:
 533              		.cfi_def_cfa_offset 24
ARM GAS  /tmp/ccHawOes.s 			page 24


 534 0004 00AF     		add	r7, sp, #0
 535              	.LCFI54:
 536              		.cfi_def_cfa_register 7
 537 0006 7860     		str	r0, [r7, #4]
 123:Drivers/STM32F1xx_HAL_Driver/Src/stm32f1xx_ll_exti.c ****   ErrorStatus status = SUCCESS;
 538              		.loc 2 123 0
 539 0008 0123     		movs	r3, #1
 540 000a FB73     		strb	r3, [r7, #15]
 124:Drivers/STM32F1xx_HAL_Driver/Src/stm32f1xx_ll_exti.c ****   /* Check the parameters */
 125:Drivers/STM32F1xx_HAL_Driver/Src/stm32f1xx_ll_exti.c ****   assert_param(IS_LL_EXTI_LINE_0_31(EXTI_InitStruct->Line_0_31));
 126:Drivers/STM32F1xx_HAL_Driver/Src/stm32f1xx_ll_exti.c ****   assert_param(IS_FUNCTIONAL_STATE(EXTI_InitStruct->LineCommand));
 127:Drivers/STM32F1xx_HAL_Driver/Src/stm32f1xx_ll_exti.c ****   assert_param(IS_LL_EXTI_MODE(EXTI_InitStruct->Mode));
 128:Drivers/STM32F1xx_HAL_Driver/Src/stm32f1xx_ll_exti.c **** 
 129:Drivers/STM32F1xx_HAL_Driver/Src/stm32f1xx_ll_exti.c ****   /* ENABLE LineCommand */
 130:Drivers/STM32F1xx_HAL_Driver/Src/stm32f1xx_ll_exti.c ****   if (EXTI_InitStruct->LineCommand != DISABLE)
 541              		.loc 2 130 0
 542 000c 7B68     		ldr	r3, [r7, #4]
 543 000e 1B79     		ldrb	r3, [r3, #4]	@ zero_extendqisi2
 544 0010 002B     		cmp	r3, #0
 545 0012 60D0     		beq	.L30
 131:Drivers/STM32F1xx_HAL_Driver/Src/stm32f1xx_ll_exti.c ****   {
 132:Drivers/STM32F1xx_HAL_Driver/Src/stm32f1xx_ll_exti.c ****     assert_param(IS_LL_EXTI_TRIGGER(EXTI_InitStruct->Trigger));
 133:Drivers/STM32F1xx_HAL_Driver/Src/stm32f1xx_ll_exti.c **** 
 134:Drivers/STM32F1xx_HAL_Driver/Src/stm32f1xx_ll_exti.c ****     /* Configure EXTI Lines in range from 0 to 31 */
 135:Drivers/STM32F1xx_HAL_Driver/Src/stm32f1xx_ll_exti.c ****     if (EXTI_InitStruct->Line_0_31 != LL_EXTI_LINE_NONE)
 546              		.loc 2 135 0
 547 0014 7B68     		ldr	r3, [r7, #4]
 548 0016 1B68     		ldr	r3, [r3]
 549 0018 002B     		cmp	r3, #0
 550 001a 67D0     		beq	.L45
 136:Drivers/STM32F1xx_HAL_Driver/Src/stm32f1xx_ll_exti.c ****     {
 137:Drivers/STM32F1xx_HAL_Driver/Src/stm32f1xx_ll_exti.c ****       switch (EXTI_InitStruct->Mode)
 551              		.loc 2 137 0
 552 001c 7B68     		ldr	r3, [r7, #4]
 553 001e 5B79     		ldrb	r3, [r3, #5]	@ zero_extendqisi2
 554 0020 012B     		cmp	r3, #1
 555 0022 0ED0     		beq	.L33
 556 0024 022B     		cmp	r3, #2
 557 0026 17D0     		beq	.L34
 558 0028 002B     		cmp	r3, #0
 559 002a 20D1     		bne	.L43
 138:Drivers/STM32F1xx_HAL_Driver/Src/stm32f1xx_ll_exti.c ****       {
 139:Drivers/STM32F1xx_HAL_Driver/Src/stm32f1xx_ll_exti.c ****         case LL_EXTI_MODE_IT:
 140:Drivers/STM32F1xx_HAL_Driver/Src/stm32f1xx_ll_exti.c ****           /* First Disable Event on provided Lines */
 141:Drivers/STM32F1xx_HAL_Driver/Src/stm32f1xx_ll_exti.c ****           LL_EXTI_DisableEvent_0_31(EXTI_InitStruct->Line_0_31);
 560              		.loc 2 141 0
 561 002c 7B68     		ldr	r3, [r7, #4]
 562 002e 1B68     		ldr	r3, [r3]
 563 0030 1846     		mov	r0, r3
 564 0032 FFF7FEFF 		bl	LL_EXTI_DisableEvent_0_31
 142:Drivers/STM32F1xx_HAL_Driver/Src/stm32f1xx_ll_exti.c ****           /* Then Enable IT on provided Lines */
 143:Drivers/STM32F1xx_HAL_Driver/Src/stm32f1xx_ll_exti.c ****           LL_EXTI_EnableIT_0_31(EXTI_InitStruct->Line_0_31);
 565              		.loc 2 143 0
 566 0036 7B68     		ldr	r3, [r7, #4]
 567 0038 1B68     		ldr	r3, [r3]
 568 003a 1846     		mov	r0, r3
 569 003c FFF7FEFF 		bl	LL_EXTI_EnableIT_0_31
ARM GAS  /tmp/ccHawOes.s 			page 25


 144:Drivers/STM32F1xx_HAL_Driver/Src/stm32f1xx_ll_exti.c ****           break;
 570              		.loc 2 144 0
 571 0040 18E0     		b	.L36
 572              	.L33:
 145:Drivers/STM32F1xx_HAL_Driver/Src/stm32f1xx_ll_exti.c ****         case LL_EXTI_MODE_EVENT:
 146:Drivers/STM32F1xx_HAL_Driver/Src/stm32f1xx_ll_exti.c ****           /* First Disable IT on provided Lines */
 147:Drivers/STM32F1xx_HAL_Driver/Src/stm32f1xx_ll_exti.c ****           LL_EXTI_DisableIT_0_31(EXTI_InitStruct->Line_0_31);
 573              		.loc 2 147 0
 574 0042 7B68     		ldr	r3, [r7, #4]
 575 0044 1B68     		ldr	r3, [r3]
 576 0046 1846     		mov	r0, r3
 577 0048 FFF7FEFF 		bl	LL_EXTI_DisableIT_0_31
 148:Drivers/STM32F1xx_HAL_Driver/Src/stm32f1xx_ll_exti.c ****           /* Then Enable Event on provided Lines */
 149:Drivers/STM32F1xx_HAL_Driver/Src/stm32f1xx_ll_exti.c ****           LL_EXTI_EnableEvent_0_31(EXTI_InitStruct->Line_0_31);
 578              		.loc 2 149 0
 579 004c 7B68     		ldr	r3, [r7, #4]
 580 004e 1B68     		ldr	r3, [r3]
 581 0050 1846     		mov	r0, r3
 582 0052 FFF7FEFF 		bl	LL_EXTI_EnableEvent_0_31
 150:Drivers/STM32F1xx_HAL_Driver/Src/stm32f1xx_ll_exti.c ****           break;
 583              		.loc 2 150 0
 584 0056 0DE0     		b	.L36
 585              	.L34:
 151:Drivers/STM32F1xx_HAL_Driver/Src/stm32f1xx_ll_exti.c ****         case LL_EXTI_MODE_IT_EVENT:
 152:Drivers/STM32F1xx_HAL_Driver/Src/stm32f1xx_ll_exti.c ****           /* Directly Enable IT & Event on provided Lines */
 153:Drivers/STM32F1xx_HAL_Driver/Src/stm32f1xx_ll_exti.c ****           LL_EXTI_EnableIT_0_31(EXTI_InitStruct->Line_0_31);
 586              		.loc 2 153 0
 587 0058 7B68     		ldr	r3, [r7, #4]
 588 005a 1B68     		ldr	r3, [r3]
 589 005c 1846     		mov	r0, r3
 590 005e FFF7FEFF 		bl	LL_EXTI_EnableIT_0_31
 154:Drivers/STM32F1xx_HAL_Driver/Src/stm32f1xx_ll_exti.c ****           LL_EXTI_EnableEvent_0_31(EXTI_InitStruct->Line_0_31);
 591              		.loc 2 154 0
 592 0062 7B68     		ldr	r3, [r7, #4]
 593 0064 1B68     		ldr	r3, [r3]
 594 0066 1846     		mov	r0, r3
 595 0068 FFF7FEFF 		bl	LL_EXTI_EnableEvent_0_31
 155:Drivers/STM32F1xx_HAL_Driver/Src/stm32f1xx_ll_exti.c ****           break;
 596              		.loc 2 155 0
 597 006c 02E0     		b	.L36
 598              	.L43:
 156:Drivers/STM32F1xx_HAL_Driver/Src/stm32f1xx_ll_exti.c ****         default:
 157:Drivers/STM32F1xx_HAL_Driver/Src/stm32f1xx_ll_exti.c ****           status = ERROR;
 599              		.loc 2 157 0
 600 006e 0023     		movs	r3, #0
 601 0070 FB73     		strb	r3, [r7, #15]
 158:Drivers/STM32F1xx_HAL_Driver/Src/stm32f1xx_ll_exti.c ****           break;
 602              		.loc 2 158 0
 603 0072 00BF     		nop
 604              	.L36:
 159:Drivers/STM32F1xx_HAL_Driver/Src/stm32f1xx_ll_exti.c ****       }
 160:Drivers/STM32F1xx_HAL_Driver/Src/stm32f1xx_ll_exti.c ****       if (EXTI_InitStruct->Trigger != LL_EXTI_TRIGGER_NONE)
 605              		.loc 2 160 0
 606 0074 7B68     		ldr	r3, [r7, #4]
 607 0076 9B79     		ldrb	r3, [r3, #6]	@ zero_extendqisi2
 608 0078 002B     		cmp	r3, #0
 609 007a 37D0     		beq	.L45
ARM GAS  /tmp/ccHawOes.s 			page 26


 161:Drivers/STM32F1xx_HAL_Driver/Src/stm32f1xx_ll_exti.c ****       {
 162:Drivers/STM32F1xx_HAL_Driver/Src/stm32f1xx_ll_exti.c ****         switch (EXTI_InitStruct->Trigger)
 610              		.loc 2 162 0
 611 007c 7B68     		ldr	r3, [r7, #4]
 612 007e 9B79     		ldrb	r3, [r3, #6]	@ zero_extendqisi2
 613 0080 022B     		cmp	r3, #2
 614 0082 0ED0     		beq	.L38
 615 0084 032B     		cmp	r3, #3
 616 0086 17D0     		beq	.L39
 617 0088 012B     		cmp	r3, #1
 618 008a 20D1     		bne	.L44
 163:Drivers/STM32F1xx_HAL_Driver/Src/stm32f1xx_ll_exti.c ****         {
 164:Drivers/STM32F1xx_HAL_Driver/Src/stm32f1xx_ll_exti.c ****           case LL_EXTI_TRIGGER_RISING:
 165:Drivers/STM32F1xx_HAL_Driver/Src/stm32f1xx_ll_exti.c ****             /* First Disable Falling Trigger on provided Lines */
 166:Drivers/STM32F1xx_HAL_Driver/Src/stm32f1xx_ll_exti.c ****             LL_EXTI_DisableFallingTrig_0_31(EXTI_InitStruct->Line_0_31);
 619              		.loc 2 166 0
 620 008c 7B68     		ldr	r3, [r7, #4]
 621 008e 1B68     		ldr	r3, [r3]
 622 0090 1846     		mov	r0, r3
 623 0092 FFF7FEFF 		bl	LL_EXTI_DisableFallingTrig_0_31
 167:Drivers/STM32F1xx_HAL_Driver/Src/stm32f1xx_ll_exti.c ****             /* Then Enable Rising Trigger on provided Lines */
 168:Drivers/STM32F1xx_HAL_Driver/Src/stm32f1xx_ll_exti.c ****             LL_EXTI_EnableRisingTrig_0_31(EXTI_InitStruct->Line_0_31);
 624              		.loc 2 168 0
 625 0096 7B68     		ldr	r3, [r7, #4]
 626 0098 1B68     		ldr	r3, [r3]
 627 009a 1846     		mov	r0, r3
 628 009c FFF7FEFF 		bl	LL_EXTI_EnableRisingTrig_0_31
 169:Drivers/STM32F1xx_HAL_Driver/Src/stm32f1xx_ll_exti.c ****             break;
 629              		.loc 2 169 0
 630 00a0 25E0     		b	.L41
 631              	.L38:
 170:Drivers/STM32F1xx_HAL_Driver/Src/stm32f1xx_ll_exti.c ****           case LL_EXTI_TRIGGER_FALLING:
 171:Drivers/STM32F1xx_HAL_Driver/Src/stm32f1xx_ll_exti.c ****             /* First Disable Rising Trigger on provided Lines */
 172:Drivers/STM32F1xx_HAL_Driver/Src/stm32f1xx_ll_exti.c ****             LL_EXTI_DisableRisingTrig_0_31(EXTI_InitStruct->Line_0_31);
 632              		.loc 2 172 0
 633 00a2 7B68     		ldr	r3, [r7, #4]
 634 00a4 1B68     		ldr	r3, [r3]
 635 00a6 1846     		mov	r0, r3
 636 00a8 FFF7FEFF 		bl	LL_EXTI_DisableRisingTrig_0_31
 173:Drivers/STM32F1xx_HAL_Driver/Src/stm32f1xx_ll_exti.c ****             /* Then Enable Falling Trigger on provided Lines */
 174:Drivers/STM32F1xx_HAL_Driver/Src/stm32f1xx_ll_exti.c ****             LL_EXTI_EnableFallingTrig_0_31(EXTI_InitStruct->Line_0_31);
 637              		.loc 2 174 0
 638 00ac 7B68     		ldr	r3, [r7, #4]
 639 00ae 1B68     		ldr	r3, [r3]
 640 00b0 1846     		mov	r0, r3
 641 00b2 FFF7FEFF 		bl	LL_EXTI_EnableFallingTrig_0_31
 175:Drivers/STM32F1xx_HAL_Driver/Src/stm32f1xx_ll_exti.c ****             break;
 642              		.loc 2 175 0
 643 00b6 1AE0     		b	.L41
 644              	.L39:
 176:Drivers/STM32F1xx_HAL_Driver/Src/stm32f1xx_ll_exti.c ****           case LL_EXTI_TRIGGER_RISING_FALLING:
 177:Drivers/STM32F1xx_HAL_Driver/Src/stm32f1xx_ll_exti.c ****             LL_EXTI_EnableRisingTrig_0_31(EXTI_InitStruct->Line_0_31);
 645              		.loc 2 177 0
 646 00b8 7B68     		ldr	r3, [r7, #4]
 647 00ba 1B68     		ldr	r3, [r3]
 648 00bc 1846     		mov	r0, r3
 649 00be FFF7FEFF 		bl	LL_EXTI_EnableRisingTrig_0_31
ARM GAS  /tmp/ccHawOes.s 			page 27


 178:Drivers/STM32F1xx_HAL_Driver/Src/stm32f1xx_ll_exti.c ****             LL_EXTI_EnableFallingTrig_0_31(EXTI_InitStruct->Line_0_31);
 650              		.loc 2 178 0
 651 00c2 7B68     		ldr	r3, [r7, #4]
 652 00c4 1B68     		ldr	r3, [r3]
 653 00c6 1846     		mov	r0, r3
 654 00c8 FFF7FEFF 		bl	LL_EXTI_EnableFallingTrig_0_31
 179:Drivers/STM32F1xx_HAL_Driver/Src/stm32f1xx_ll_exti.c ****             break;
 655              		.loc 2 179 0
 656 00cc 0FE0     		b	.L41
 657              	.L44:
 180:Drivers/STM32F1xx_HAL_Driver/Src/stm32f1xx_ll_exti.c ****           default:
 181:Drivers/STM32F1xx_HAL_Driver/Src/stm32f1xx_ll_exti.c ****             status = ERROR;
 658              		.loc 2 181 0
 659 00ce 0023     		movs	r3, #0
 660 00d0 FB73     		strb	r3, [r7, #15]
 182:Drivers/STM32F1xx_HAL_Driver/Src/stm32f1xx_ll_exti.c ****             break;
 661              		.loc 2 182 0
 662 00d2 00BF     		nop
 663 00d4 0BE0     		b	.L41
 664              	.L30:
 183:Drivers/STM32F1xx_HAL_Driver/Src/stm32f1xx_ll_exti.c ****         }
 184:Drivers/STM32F1xx_HAL_Driver/Src/stm32f1xx_ll_exti.c ****       }
 185:Drivers/STM32F1xx_HAL_Driver/Src/stm32f1xx_ll_exti.c ****     }
 186:Drivers/STM32F1xx_HAL_Driver/Src/stm32f1xx_ll_exti.c ****   }
 187:Drivers/STM32F1xx_HAL_Driver/Src/stm32f1xx_ll_exti.c ****   /* DISABLE LineCommand */
 188:Drivers/STM32F1xx_HAL_Driver/Src/stm32f1xx_ll_exti.c ****   else
 189:Drivers/STM32F1xx_HAL_Driver/Src/stm32f1xx_ll_exti.c ****   {
 190:Drivers/STM32F1xx_HAL_Driver/Src/stm32f1xx_ll_exti.c ****     /* De-configure EXTI Lines in range from 0 to 31 */
 191:Drivers/STM32F1xx_HAL_Driver/Src/stm32f1xx_ll_exti.c ****     LL_EXTI_DisableIT_0_31(EXTI_InitStruct->Line_0_31);
 665              		.loc 2 191 0
 666 00d6 7B68     		ldr	r3, [r7, #4]
 667 00d8 1B68     		ldr	r3, [r3]
 668 00da 1846     		mov	r0, r3
 669 00dc FFF7FEFF 		bl	LL_EXTI_DisableIT_0_31
 192:Drivers/STM32F1xx_HAL_Driver/Src/stm32f1xx_ll_exti.c ****     LL_EXTI_DisableEvent_0_31(EXTI_InitStruct->Line_0_31);
 670              		.loc 2 192 0
 671 00e0 7B68     		ldr	r3, [r7, #4]
 672 00e2 1B68     		ldr	r3, [r3]
 673 00e4 1846     		mov	r0, r3
 674 00e6 FFF7FEFF 		bl	LL_EXTI_DisableEvent_0_31
 675 00ea 00E0     		b	.L41
 676              	.L45:
 184:Drivers/STM32F1xx_HAL_Driver/Src/stm32f1xx_ll_exti.c ****     }
 677              		.loc 2 184 0
 678 00ec 00BF     		nop
 679              	.L41:
 193:Drivers/STM32F1xx_HAL_Driver/Src/stm32f1xx_ll_exti.c ****   }
 194:Drivers/STM32F1xx_HAL_Driver/Src/stm32f1xx_ll_exti.c ****   return status;
 680              		.loc 2 194 0
 681 00ee FB7B     		ldrb	r3, [r7, #15]	@ zero_extendqisi2
 195:Drivers/STM32F1xx_HAL_Driver/Src/stm32f1xx_ll_exti.c **** }
 682              		.loc 2 195 0
 683 00f0 1846     		mov	r0, r3
 684 00f2 1037     		adds	r7, r7, #16
 685              	.LCFI55:
 686              		.cfi_def_cfa_offset 8
 687 00f4 BD46     		mov	sp, r7
ARM GAS  /tmp/ccHawOes.s 			page 28


 688              	.LCFI56:
 689              		.cfi_def_cfa_register 13
 690              		@ sp needed
 691 00f6 80BD     		pop	{r7, pc}
 692              		.cfi_endproc
 693              	.LFE80:
 695              		.section	.text.LL_EXTI_StructInit,"ax",%progbits
 696              		.align	1
 697              		.global	LL_EXTI_StructInit
 698              		.syntax unified
 699              		.thumb
 700              		.thumb_func
 701              		.fpu softvfp
 703              	LL_EXTI_StructInit:
 704              	.LFB81:
 196:Drivers/STM32F1xx_HAL_Driver/Src/stm32f1xx_ll_exti.c **** 
 197:Drivers/STM32F1xx_HAL_Driver/Src/stm32f1xx_ll_exti.c **** /**
 198:Drivers/STM32F1xx_HAL_Driver/Src/stm32f1xx_ll_exti.c ****   * @brief  Set each @ref LL_EXTI_InitTypeDef field to default value.
 199:Drivers/STM32F1xx_HAL_Driver/Src/stm32f1xx_ll_exti.c ****   * @param  EXTI_InitStruct Pointer to a @ref LL_EXTI_InitTypeDef structure.
 200:Drivers/STM32F1xx_HAL_Driver/Src/stm32f1xx_ll_exti.c ****   * @retval None
 201:Drivers/STM32F1xx_HAL_Driver/Src/stm32f1xx_ll_exti.c ****   */
 202:Drivers/STM32F1xx_HAL_Driver/Src/stm32f1xx_ll_exti.c **** void LL_EXTI_StructInit(LL_EXTI_InitTypeDef *EXTI_InitStruct)
 203:Drivers/STM32F1xx_HAL_Driver/Src/stm32f1xx_ll_exti.c **** {
 705              		.loc 2 203 0
 706              		.cfi_startproc
 707              		@ args = 0, pretend = 0, frame = 8
 708              		@ frame_needed = 1, uses_anonymous_args = 0
 709              		@ link register save eliminated.
 710 0000 80B4     		push	{r7}
 711              	.LCFI57:
 712              		.cfi_def_cfa_offset 4
 713              		.cfi_offset 7, -4
 714 0002 83B0     		sub	sp, sp, #12
 715              	.LCFI58:
 716              		.cfi_def_cfa_offset 16
 717 0004 00AF     		add	r7, sp, #0
 718              	.LCFI59:
 719              		.cfi_def_cfa_register 7
 720 0006 7860     		str	r0, [r7, #4]
 204:Drivers/STM32F1xx_HAL_Driver/Src/stm32f1xx_ll_exti.c ****   EXTI_InitStruct->Line_0_31      = LL_EXTI_LINE_NONE;
 721              		.loc 2 204 0
 722 0008 7B68     		ldr	r3, [r7, #4]
 723 000a 0022     		movs	r2, #0
 724 000c 1A60     		str	r2, [r3]
 205:Drivers/STM32F1xx_HAL_Driver/Src/stm32f1xx_ll_exti.c ****   EXTI_InitStruct->LineCommand    = DISABLE;
 725              		.loc 2 205 0
 726 000e 7B68     		ldr	r3, [r7, #4]
 727 0010 0022     		movs	r2, #0
 728 0012 1A71     		strb	r2, [r3, #4]
 206:Drivers/STM32F1xx_HAL_Driver/Src/stm32f1xx_ll_exti.c ****   EXTI_InitStruct->Mode           = LL_EXTI_MODE_IT;
 729              		.loc 2 206 0
 730 0014 7B68     		ldr	r3, [r7, #4]
 731 0016 0022     		movs	r2, #0
 732 0018 5A71     		strb	r2, [r3, #5]
 207:Drivers/STM32F1xx_HAL_Driver/Src/stm32f1xx_ll_exti.c ****   EXTI_InitStruct->Trigger        = LL_EXTI_TRIGGER_FALLING;
 733              		.loc 2 207 0
 734 001a 7B68     		ldr	r3, [r7, #4]
ARM GAS  /tmp/ccHawOes.s 			page 29


 735 001c 0222     		movs	r2, #2
 736 001e 9A71     		strb	r2, [r3, #6]
 208:Drivers/STM32F1xx_HAL_Driver/Src/stm32f1xx_ll_exti.c **** }
 737              		.loc 2 208 0
 738 0020 00BF     		nop
 739 0022 0C37     		adds	r7, r7, #12
 740              	.LCFI60:
 741              		.cfi_def_cfa_offset 4
 742 0024 BD46     		mov	sp, r7
 743              	.LCFI61:
 744              		.cfi_def_cfa_register 13
 745              		@ sp needed
 746 0026 80BC     		pop	{r7}
 747              	.LCFI62:
 748              		.cfi_restore 7
 749              		.cfi_def_cfa_offset 0
 750 0028 7047     		bx	lr
 751              		.cfi_endproc
 752              	.LFE81:
 754              		.text
 755              	.Letext0:
 756              		.file 3 "/usr/include/newlib/machine/_default_types.h"
 757              		.file 4 "/usr/include/newlib/sys/_stdint.h"
 758              		.file 5 "Drivers/CMSIS/Include/core_cm3.h"
 759              		.file 6 "Drivers/CMSIS/Device/ST/STM32F1xx/Include/system_stm32f1xx.h"
 760              		.file 7 "Drivers/CMSIS/Device/ST/STM32F1xx/Include/stm32f103xb.h"
 761              		.file 8 "Drivers/CMSIS/Device/ST/STM32F1xx/Include/stm32f1xx.h"
ARM GAS  /tmp/ccHawOes.s 			page 30

