ARM GAS  /tmp/ccY3COIh.s 			page 1


   1              		.cpu cortex-m3
   2              		.eabi_attribute 20, 1
   3              		.eabi_attribute 21, 1
   4              		.eabi_attribute 23, 3
   5              		.eabi_attribute 24, 1
   6              		.eabi_attribute 25, 1
   7              		.eabi_attribute 26, 1
   8              		.eabi_attribute 30, 6
   9              		.eabi_attribute 34, 1
  10              		.eabi_attribute 18, 4
  11              		.file	"stm32f1xx_ll_usart.c"
  12              		.text
  13              	.Ltext0:
  14              		.cfi_sections	.debug_frame
  15              		.section	.text.LL_USART_IsEnabled,"ax",%progbits
  16              		.align	1
  17              		.syntax unified
  18              		.thumb
  19              		.thumb_func
  20              		.fpu softvfp
  22              	LL_USART_IsEnabled:
  23              	.LFB65:
  24              		.file 1 "Drivers/STM32F1xx_HAL_Driver/Inc/stm32f1xx_ll_usart.h"
   1:Drivers/STM32F1xx_HAL_Driver/Inc/stm32f1xx_ll_usart.h **** /**
   2:Drivers/STM32F1xx_HAL_Driver/Inc/stm32f1xx_ll_usart.h ****   ******************************************************************************
   3:Drivers/STM32F1xx_HAL_Driver/Inc/stm32f1xx_ll_usart.h ****   * @file    stm32f1xx_ll_usart.h
   4:Drivers/STM32F1xx_HAL_Driver/Inc/stm32f1xx_ll_usart.h ****   * @author  MCD Application Team
   5:Drivers/STM32F1xx_HAL_Driver/Inc/stm32f1xx_ll_usart.h ****   * @brief   Header file of USART LL module.
   6:Drivers/STM32F1xx_HAL_Driver/Inc/stm32f1xx_ll_usart.h ****   ******************************************************************************
   7:Drivers/STM32F1xx_HAL_Driver/Inc/stm32f1xx_ll_usart.h ****   * @attention
   8:Drivers/STM32F1xx_HAL_Driver/Inc/stm32f1xx_ll_usart.h ****   *
   9:Drivers/STM32F1xx_HAL_Driver/Inc/stm32f1xx_ll_usart.h ****   * <h2><center>&copy; COPYRIGHT(c) 2016 STMicroelectronics</center></h2>
  10:Drivers/STM32F1xx_HAL_Driver/Inc/stm32f1xx_ll_usart.h ****   *
  11:Drivers/STM32F1xx_HAL_Driver/Inc/stm32f1xx_ll_usart.h ****   * Redistribution and use in source and binary forms, with or without modification,
  12:Drivers/STM32F1xx_HAL_Driver/Inc/stm32f1xx_ll_usart.h ****   * are permitted provided that the following conditions are met:
  13:Drivers/STM32F1xx_HAL_Driver/Inc/stm32f1xx_ll_usart.h ****   *   1. Redistributions of source code must retain the above copyright notice,
  14:Drivers/STM32F1xx_HAL_Driver/Inc/stm32f1xx_ll_usart.h ****   *      this list of conditions and the following disclaimer.
  15:Drivers/STM32F1xx_HAL_Driver/Inc/stm32f1xx_ll_usart.h ****   *   2. Redistributions in binary form must reproduce the above copyright notice,
  16:Drivers/STM32F1xx_HAL_Driver/Inc/stm32f1xx_ll_usart.h ****   *      this list of conditions and the following disclaimer in the documentation
  17:Drivers/STM32F1xx_HAL_Driver/Inc/stm32f1xx_ll_usart.h ****   *      and/or other materials provided with the distribution.
  18:Drivers/STM32F1xx_HAL_Driver/Inc/stm32f1xx_ll_usart.h ****   *   3. Neither the name of STMicroelectronics nor the names of its contributors
  19:Drivers/STM32F1xx_HAL_Driver/Inc/stm32f1xx_ll_usart.h ****   *      may be used to endorse or promote products derived from this software
  20:Drivers/STM32F1xx_HAL_Driver/Inc/stm32f1xx_ll_usart.h ****   *      without specific prior written permission.
  21:Drivers/STM32F1xx_HAL_Driver/Inc/stm32f1xx_ll_usart.h ****   *
  22:Drivers/STM32F1xx_HAL_Driver/Inc/stm32f1xx_ll_usart.h ****   * THIS SOFTWARE IS PROVIDED BY THE COPYRIGHT HOLDERS AND CONTRIBUTORS "AS IS"
  23:Drivers/STM32F1xx_HAL_Driver/Inc/stm32f1xx_ll_usart.h ****   * AND ANY EXPRESS OR IMPLIED WARRANTIES, INCLUDING, BUT NOT LIMITED TO, THE
  24:Drivers/STM32F1xx_HAL_Driver/Inc/stm32f1xx_ll_usart.h ****   * IMPLIED WARRANTIES OF MERCHANTABILITY AND FITNESS FOR A PARTICULAR PURPOSE ARE
  25:Drivers/STM32F1xx_HAL_Driver/Inc/stm32f1xx_ll_usart.h ****   * DISCLAIMED. IN NO EVENT SHALL THE COPYRIGHT HOLDER OR CONTRIBUTORS BE LIABLE
  26:Drivers/STM32F1xx_HAL_Driver/Inc/stm32f1xx_ll_usart.h ****   * FOR ANY DIRECT, INDIRECT, INCIDENTAL, SPECIAL, EXEMPLARY, OR CONSEQUENTIAL
  27:Drivers/STM32F1xx_HAL_Driver/Inc/stm32f1xx_ll_usart.h ****   * DAMAGES (INCLUDING, BUT NOT LIMITED TO, PROCUREMENT OF SUBSTITUTE GOODS OR
  28:Drivers/STM32F1xx_HAL_Driver/Inc/stm32f1xx_ll_usart.h ****   * SERVICES; LOSS OF USE, DATA, OR PROFITS; OR BUSINESS INTERRUPTION) HOWEVER
  29:Drivers/STM32F1xx_HAL_Driver/Inc/stm32f1xx_ll_usart.h ****   * CAUSED AND ON ANY THEORY OF LIABILITY, WHETHER IN CONTRACT, STRICT LIABILITY,
  30:Drivers/STM32F1xx_HAL_Driver/Inc/stm32f1xx_ll_usart.h ****   * OR TORT (INCLUDING NEGLIGENCE OR OTHERWISE) ARISING IN ANY WAY OUT OF THE USE
  31:Drivers/STM32F1xx_HAL_Driver/Inc/stm32f1xx_ll_usart.h ****   * OF THIS SOFTWARE, EVEN IF ADVISED OF THE POSSIBILITY OF SUCH DAMAGE.
  32:Drivers/STM32F1xx_HAL_Driver/Inc/stm32f1xx_ll_usart.h ****   *
  33:Drivers/STM32F1xx_HAL_Driver/Inc/stm32f1xx_ll_usart.h ****   ******************************************************************************
  34:Drivers/STM32F1xx_HAL_Driver/Inc/stm32f1xx_ll_usart.h ****   */
ARM GAS  /tmp/ccY3COIh.s 			page 2


  35:Drivers/STM32F1xx_HAL_Driver/Inc/stm32f1xx_ll_usart.h **** 
  36:Drivers/STM32F1xx_HAL_Driver/Inc/stm32f1xx_ll_usart.h **** /* Define to prevent recursive inclusion -------------------------------------*/
  37:Drivers/STM32F1xx_HAL_Driver/Inc/stm32f1xx_ll_usart.h **** #ifndef __STM32F1xx_LL_USART_H
  38:Drivers/STM32F1xx_HAL_Driver/Inc/stm32f1xx_ll_usart.h **** #define __STM32F1xx_LL_USART_H
  39:Drivers/STM32F1xx_HAL_Driver/Inc/stm32f1xx_ll_usart.h **** 
  40:Drivers/STM32F1xx_HAL_Driver/Inc/stm32f1xx_ll_usart.h **** #ifdef __cplusplus
  41:Drivers/STM32F1xx_HAL_Driver/Inc/stm32f1xx_ll_usart.h **** extern "C" {
  42:Drivers/STM32F1xx_HAL_Driver/Inc/stm32f1xx_ll_usart.h **** #endif
  43:Drivers/STM32F1xx_HAL_Driver/Inc/stm32f1xx_ll_usart.h **** 
  44:Drivers/STM32F1xx_HAL_Driver/Inc/stm32f1xx_ll_usart.h **** /* Includes ------------------------------------------------------------------*/
  45:Drivers/STM32F1xx_HAL_Driver/Inc/stm32f1xx_ll_usart.h **** #include "stm32f1xx.h"
  46:Drivers/STM32F1xx_HAL_Driver/Inc/stm32f1xx_ll_usart.h **** 
  47:Drivers/STM32F1xx_HAL_Driver/Inc/stm32f1xx_ll_usart.h **** /** @addtogroup STM32F1xx_LL_Driver
  48:Drivers/STM32F1xx_HAL_Driver/Inc/stm32f1xx_ll_usart.h ****   * @{
  49:Drivers/STM32F1xx_HAL_Driver/Inc/stm32f1xx_ll_usart.h ****   */
  50:Drivers/STM32F1xx_HAL_Driver/Inc/stm32f1xx_ll_usart.h **** 
  51:Drivers/STM32F1xx_HAL_Driver/Inc/stm32f1xx_ll_usart.h **** #if defined (USART1) || defined (USART2) || defined (USART3) || defined (UART4) || defined (UART5)
  52:Drivers/STM32F1xx_HAL_Driver/Inc/stm32f1xx_ll_usart.h **** 
  53:Drivers/STM32F1xx_HAL_Driver/Inc/stm32f1xx_ll_usart.h **** /** @defgroup USART_LL USART
  54:Drivers/STM32F1xx_HAL_Driver/Inc/stm32f1xx_ll_usart.h ****   * @{
  55:Drivers/STM32F1xx_HAL_Driver/Inc/stm32f1xx_ll_usart.h ****   */
  56:Drivers/STM32F1xx_HAL_Driver/Inc/stm32f1xx_ll_usart.h **** 
  57:Drivers/STM32F1xx_HAL_Driver/Inc/stm32f1xx_ll_usart.h **** /* Private types -------------------------------------------------------------*/
  58:Drivers/STM32F1xx_HAL_Driver/Inc/stm32f1xx_ll_usart.h **** /* Private variables ---------------------------------------------------------*/
  59:Drivers/STM32F1xx_HAL_Driver/Inc/stm32f1xx_ll_usart.h **** 
  60:Drivers/STM32F1xx_HAL_Driver/Inc/stm32f1xx_ll_usart.h **** /* Private constants ---------------------------------------------------------*/
  61:Drivers/STM32F1xx_HAL_Driver/Inc/stm32f1xx_ll_usart.h **** /** @defgroup USART_LL_Private_Constants USART Private Constants
  62:Drivers/STM32F1xx_HAL_Driver/Inc/stm32f1xx_ll_usart.h ****   * @{
  63:Drivers/STM32F1xx_HAL_Driver/Inc/stm32f1xx_ll_usart.h ****   */
  64:Drivers/STM32F1xx_HAL_Driver/Inc/stm32f1xx_ll_usart.h **** 
  65:Drivers/STM32F1xx_HAL_Driver/Inc/stm32f1xx_ll_usart.h **** /* Defines used for the bit position in the register and perform offsets*/
  66:Drivers/STM32F1xx_HAL_Driver/Inc/stm32f1xx_ll_usart.h **** #define USART_POSITION_GTPR_GT                  USART_GTPR_GT_Pos
  67:Drivers/STM32F1xx_HAL_Driver/Inc/stm32f1xx_ll_usart.h **** /**
  68:Drivers/STM32F1xx_HAL_Driver/Inc/stm32f1xx_ll_usart.h ****   * @}
  69:Drivers/STM32F1xx_HAL_Driver/Inc/stm32f1xx_ll_usart.h ****   */
  70:Drivers/STM32F1xx_HAL_Driver/Inc/stm32f1xx_ll_usart.h **** 
  71:Drivers/STM32F1xx_HAL_Driver/Inc/stm32f1xx_ll_usart.h **** /* Private macros ------------------------------------------------------------*/
  72:Drivers/STM32F1xx_HAL_Driver/Inc/stm32f1xx_ll_usart.h **** #if defined(USE_FULL_LL_DRIVER)
  73:Drivers/STM32F1xx_HAL_Driver/Inc/stm32f1xx_ll_usart.h **** /** @defgroup USART_LL_Private_Macros USART Private Macros
  74:Drivers/STM32F1xx_HAL_Driver/Inc/stm32f1xx_ll_usart.h ****   * @{
  75:Drivers/STM32F1xx_HAL_Driver/Inc/stm32f1xx_ll_usart.h ****   */
  76:Drivers/STM32F1xx_HAL_Driver/Inc/stm32f1xx_ll_usart.h **** /**
  77:Drivers/STM32F1xx_HAL_Driver/Inc/stm32f1xx_ll_usart.h ****   * @}
  78:Drivers/STM32F1xx_HAL_Driver/Inc/stm32f1xx_ll_usart.h ****   */
  79:Drivers/STM32F1xx_HAL_Driver/Inc/stm32f1xx_ll_usart.h **** #endif /*USE_FULL_LL_DRIVER*/
  80:Drivers/STM32F1xx_HAL_Driver/Inc/stm32f1xx_ll_usart.h **** 
  81:Drivers/STM32F1xx_HAL_Driver/Inc/stm32f1xx_ll_usart.h **** /* Exported types ------------------------------------------------------------*/
  82:Drivers/STM32F1xx_HAL_Driver/Inc/stm32f1xx_ll_usart.h **** #if defined(USE_FULL_LL_DRIVER)
  83:Drivers/STM32F1xx_HAL_Driver/Inc/stm32f1xx_ll_usart.h **** /** @defgroup USART_LL_ES_INIT USART Exported Init structures
  84:Drivers/STM32F1xx_HAL_Driver/Inc/stm32f1xx_ll_usart.h ****   * @{
  85:Drivers/STM32F1xx_HAL_Driver/Inc/stm32f1xx_ll_usart.h ****   */
  86:Drivers/STM32F1xx_HAL_Driver/Inc/stm32f1xx_ll_usart.h **** 
  87:Drivers/STM32F1xx_HAL_Driver/Inc/stm32f1xx_ll_usart.h **** /**
  88:Drivers/STM32F1xx_HAL_Driver/Inc/stm32f1xx_ll_usart.h ****   * @brief LL USART Init Structure definition
  89:Drivers/STM32F1xx_HAL_Driver/Inc/stm32f1xx_ll_usart.h ****   */
  90:Drivers/STM32F1xx_HAL_Driver/Inc/stm32f1xx_ll_usart.h **** typedef struct
  91:Drivers/STM32F1xx_HAL_Driver/Inc/stm32f1xx_ll_usart.h **** {
ARM GAS  /tmp/ccY3COIh.s 			page 3


  92:Drivers/STM32F1xx_HAL_Driver/Inc/stm32f1xx_ll_usart.h ****   uint32_t BaudRate;                  /*!< This field defines expected Usart communication baud rat
  93:Drivers/STM32F1xx_HAL_Driver/Inc/stm32f1xx_ll_usart.h **** 
  94:Drivers/STM32F1xx_HAL_Driver/Inc/stm32f1xx_ll_usart.h ****                                            This feature can be modified afterwards using unitary fu
  95:Drivers/STM32F1xx_HAL_Driver/Inc/stm32f1xx_ll_usart.h **** 
  96:Drivers/STM32F1xx_HAL_Driver/Inc/stm32f1xx_ll_usart.h ****   uint32_t DataWidth;                 /*!< Specifies the number of data bits transmitted or receive
  97:Drivers/STM32F1xx_HAL_Driver/Inc/stm32f1xx_ll_usart.h ****                                            This parameter can be a value of @ref USART_LL_EC_DATAWI
  98:Drivers/STM32F1xx_HAL_Driver/Inc/stm32f1xx_ll_usart.h **** 
  99:Drivers/STM32F1xx_HAL_Driver/Inc/stm32f1xx_ll_usart.h ****                                            This feature can be modified afterwards using unitary fu
 100:Drivers/STM32F1xx_HAL_Driver/Inc/stm32f1xx_ll_usart.h **** 
 101:Drivers/STM32F1xx_HAL_Driver/Inc/stm32f1xx_ll_usart.h ****   uint32_t StopBits;                  /*!< Specifies the number of stop bits transmitted.
 102:Drivers/STM32F1xx_HAL_Driver/Inc/stm32f1xx_ll_usart.h ****                                            This parameter can be a value of @ref USART_LL_EC_STOPBI
 103:Drivers/STM32F1xx_HAL_Driver/Inc/stm32f1xx_ll_usart.h **** 
 104:Drivers/STM32F1xx_HAL_Driver/Inc/stm32f1xx_ll_usart.h ****                                            This feature can be modified afterwards using unitary fu
 105:Drivers/STM32F1xx_HAL_Driver/Inc/stm32f1xx_ll_usart.h **** 
 106:Drivers/STM32F1xx_HAL_Driver/Inc/stm32f1xx_ll_usart.h ****   uint32_t Parity;                    /*!< Specifies the parity mode.
 107:Drivers/STM32F1xx_HAL_Driver/Inc/stm32f1xx_ll_usart.h ****                                            This parameter can be a value of @ref USART_LL_EC_PARITY
 108:Drivers/STM32F1xx_HAL_Driver/Inc/stm32f1xx_ll_usart.h **** 
 109:Drivers/STM32F1xx_HAL_Driver/Inc/stm32f1xx_ll_usart.h ****                                            This feature can be modified afterwards using unitary fu
 110:Drivers/STM32F1xx_HAL_Driver/Inc/stm32f1xx_ll_usart.h **** 
 111:Drivers/STM32F1xx_HAL_Driver/Inc/stm32f1xx_ll_usart.h ****   uint32_t TransferDirection;         /*!< Specifies whether the Receive and/or Transmit mode is en
 112:Drivers/STM32F1xx_HAL_Driver/Inc/stm32f1xx_ll_usart.h ****                                            This parameter can be a value of @ref USART_LL_EC_DIRECT
 113:Drivers/STM32F1xx_HAL_Driver/Inc/stm32f1xx_ll_usart.h **** 
 114:Drivers/STM32F1xx_HAL_Driver/Inc/stm32f1xx_ll_usart.h ****                                            This feature can be modified afterwards using unitary fu
 115:Drivers/STM32F1xx_HAL_Driver/Inc/stm32f1xx_ll_usart.h **** 
 116:Drivers/STM32F1xx_HAL_Driver/Inc/stm32f1xx_ll_usart.h ****   uint32_t HardwareFlowControl;       /*!< Specifies whether the hardware flow control mode is enab
 117:Drivers/STM32F1xx_HAL_Driver/Inc/stm32f1xx_ll_usart.h ****                                            This parameter can be a value of @ref USART_LL_EC_HWCONT
 118:Drivers/STM32F1xx_HAL_Driver/Inc/stm32f1xx_ll_usart.h **** 
 119:Drivers/STM32F1xx_HAL_Driver/Inc/stm32f1xx_ll_usart.h ****                                            This feature can be modified afterwards using unitary fu
 120:Drivers/STM32F1xx_HAL_Driver/Inc/stm32f1xx_ll_usart.h **** 
 121:Drivers/STM32F1xx_HAL_Driver/Inc/stm32f1xx_ll_usart.h **** #if defined(USART_CR1_OVER8)
 122:Drivers/STM32F1xx_HAL_Driver/Inc/stm32f1xx_ll_usart.h ****   uint32_t OverSampling;              /*!< Specifies whether USART oversampling mode is 16 or 8.
 123:Drivers/STM32F1xx_HAL_Driver/Inc/stm32f1xx_ll_usart.h ****                                            This parameter can be a value of @ref USART_LL_EC_OVERSA
 124:Drivers/STM32F1xx_HAL_Driver/Inc/stm32f1xx_ll_usart.h **** 
 125:Drivers/STM32F1xx_HAL_Driver/Inc/stm32f1xx_ll_usart.h ****                                            This feature can be modified afterwards using unitary fu
 126:Drivers/STM32F1xx_HAL_Driver/Inc/stm32f1xx_ll_usart.h **** 
 127:Drivers/STM32F1xx_HAL_Driver/Inc/stm32f1xx_ll_usart.h **** #endif /* USART_OverSampling_Feature */
 128:Drivers/STM32F1xx_HAL_Driver/Inc/stm32f1xx_ll_usart.h **** } LL_USART_InitTypeDef;
 129:Drivers/STM32F1xx_HAL_Driver/Inc/stm32f1xx_ll_usart.h **** 
 130:Drivers/STM32F1xx_HAL_Driver/Inc/stm32f1xx_ll_usart.h **** /**
 131:Drivers/STM32F1xx_HAL_Driver/Inc/stm32f1xx_ll_usart.h ****   * @brief LL USART Clock Init Structure definition
 132:Drivers/STM32F1xx_HAL_Driver/Inc/stm32f1xx_ll_usart.h ****   */
 133:Drivers/STM32F1xx_HAL_Driver/Inc/stm32f1xx_ll_usart.h **** typedef struct
 134:Drivers/STM32F1xx_HAL_Driver/Inc/stm32f1xx_ll_usart.h **** {
 135:Drivers/STM32F1xx_HAL_Driver/Inc/stm32f1xx_ll_usart.h ****   uint32_t ClockOutput;               /*!< Specifies whether the USART clock is enabled or disabled
 136:Drivers/STM32F1xx_HAL_Driver/Inc/stm32f1xx_ll_usart.h ****                                            This parameter can be a value of @ref USART_LL_EC_CLOCK.
 137:Drivers/STM32F1xx_HAL_Driver/Inc/stm32f1xx_ll_usart.h **** 
 138:Drivers/STM32F1xx_HAL_Driver/Inc/stm32f1xx_ll_usart.h ****                                            USART HW configuration can be modified afterwards using 
 139:Drivers/STM32F1xx_HAL_Driver/Inc/stm32f1xx_ll_usart.h ****                                            @ref LL_USART_EnableSCLKOutput() or @ref LL_USART_Disabl
 140:Drivers/STM32F1xx_HAL_Driver/Inc/stm32f1xx_ll_usart.h ****                                            For more details, refer to description of this function.
 141:Drivers/STM32F1xx_HAL_Driver/Inc/stm32f1xx_ll_usart.h **** 
 142:Drivers/STM32F1xx_HAL_Driver/Inc/stm32f1xx_ll_usart.h ****   uint32_t ClockPolarity;             /*!< Specifies the steady state of the serial clock.
 143:Drivers/STM32F1xx_HAL_Driver/Inc/stm32f1xx_ll_usart.h ****                                            This parameter can be a value of @ref USART_LL_EC_POLARI
 144:Drivers/STM32F1xx_HAL_Driver/Inc/stm32f1xx_ll_usart.h **** 
 145:Drivers/STM32F1xx_HAL_Driver/Inc/stm32f1xx_ll_usart.h ****                                            USART HW configuration can be modified afterwards using 
 146:Drivers/STM32F1xx_HAL_Driver/Inc/stm32f1xx_ll_usart.h ****                                            For more details, refer to description of this function.
 147:Drivers/STM32F1xx_HAL_Driver/Inc/stm32f1xx_ll_usart.h **** 
 148:Drivers/STM32F1xx_HAL_Driver/Inc/stm32f1xx_ll_usart.h ****   uint32_t ClockPhase;                /*!< Specifies the clock transition on which the bit capture 
ARM GAS  /tmp/ccY3COIh.s 			page 4


 149:Drivers/STM32F1xx_HAL_Driver/Inc/stm32f1xx_ll_usart.h ****                                            This parameter can be a value of @ref USART_LL_EC_PHASE.
 150:Drivers/STM32F1xx_HAL_Driver/Inc/stm32f1xx_ll_usart.h **** 
 151:Drivers/STM32F1xx_HAL_Driver/Inc/stm32f1xx_ll_usart.h ****                                            USART HW configuration can be modified afterwards using 
 152:Drivers/STM32F1xx_HAL_Driver/Inc/stm32f1xx_ll_usart.h ****                                            For more details, refer to description of this function.
 153:Drivers/STM32F1xx_HAL_Driver/Inc/stm32f1xx_ll_usart.h **** 
 154:Drivers/STM32F1xx_HAL_Driver/Inc/stm32f1xx_ll_usart.h ****   uint32_t LastBitClockPulse;         /*!< Specifies whether the clock pulse corresponding to the l
 155:Drivers/STM32F1xx_HAL_Driver/Inc/stm32f1xx_ll_usart.h ****                                            data bit (MSB) has to be output on the SCLK pin in synch
 156:Drivers/STM32F1xx_HAL_Driver/Inc/stm32f1xx_ll_usart.h ****                                            This parameter can be a value of @ref USART_LL_EC_LASTCL
 157:Drivers/STM32F1xx_HAL_Driver/Inc/stm32f1xx_ll_usart.h **** 
 158:Drivers/STM32F1xx_HAL_Driver/Inc/stm32f1xx_ll_usart.h ****                                            USART HW configuration can be modified afterwards using 
 159:Drivers/STM32F1xx_HAL_Driver/Inc/stm32f1xx_ll_usart.h ****                                            For more details, refer to description of this function.
 160:Drivers/STM32F1xx_HAL_Driver/Inc/stm32f1xx_ll_usart.h **** 
 161:Drivers/STM32F1xx_HAL_Driver/Inc/stm32f1xx_ll_usart.h **** } LL_USART_ClockInitTypeDef;
 162:Drivers/STM32F1xx_HAL_Driver/Inc/stm32f1xx_ll_usart.h **** 
 163:Drivers/STM32F1xx_HAL_Driver/Inc/stm32f1xx_ll_usart.h **** /**
 164:Drivers/STM32F1xx_HAL_Driver/Inc/stm32f1xx_ll_usart.h ****   * @}
 165:Drivers/STM32F1xx_HAL_Driver/Inc/stm32f1xx_ll_usart.h ****   */
 166:Drivers/STM32F1xx_HAL_Driver/Inc/stm32f1xx_ll_usart.h **** #endif /* USE_FULL_LL_DRIVER */
 167:Drivers/STM32F1xx_HAL_Driver/Inc/stm32f1xx_ll_usart.h **** 
 168:Drivers/STM32F1xx_HAL_Driver/Inc/stm32f1xx_ll_usart.h **** /* Exported constants --------------------------------------------------------*/
 169:Drivers/STM32F1xx_HAL_Driver/Inc/stm32f1xx_ll_usart.h **** /** @defgroup USART_LL_Exported_Constants USART Exported Constants
 170:Drivers/STM32F1xx_HAL_Driver/Inc/stm32f1xx_ll_usart.h ****   * @{
 171:Drivers/STM32F1xx_HAL_Driver/Inc/stm32f1xx_ll_usart.h ****   */
 172:Drivers/STM32F1xx_HAL_Driver/Inc/stm32f1xx_ll_usart.h **** 
 173:Drivers/STM32F1xx_HAL_Driver/Inc/stm32f1xx_ll_usart.h **** /** @defgroup USART_LL_EC_GET_FLAG Get Flags Defines
 174:Drivers/STM32F1xx_HAL_Driver/Inc/stm32f1xx_ll_usart.h ****   * @brief    Flags defines which can be used with LL_USART_ReadReg function
 175:Drivers/STM32F1xx_HAL_Driver/Inc/stm32f1xx_ll_usart.h ****   * @{
 176:Drivers/STM32F1xx_HAL_Driver/Inc/stm32f1xx_ll_usart.h ****   */
 177:Drivers/STM32F1xx_HAL_Driver/Inc/stm32f1xx_ll_usart.h **** #define LL_USART_SR_PE                          USART_SR_PE                   /*!< Parity error fla
 178:Drivers/STM32F1xx_HAL_Driver/Inc/stm32f1xx_ll_usart.h **** #define LL_USART_SR_FE                          USART_SR_FE                   /*!< Framing error fl
 179:Drivers/STM32F1xx_HAL_Driver/Inc/stm32f1xx_ll_usart.h **** #define LL_USART_SR_NE                          USART_SR_NE                   /*!< Noise detected f
 180:Drivers/STM32F1xx_HAL_Driver/Inc/stm32f1xx_ll_usart.h **** #define LL_USART_SR_ORE                         USART_SR_ORE                  /*!< Overrun error fl
 181:Drivers/STM32F1xx_HAL_Driver/Inc/stm32f1xx_ll_usart.h **** #define LL_USART_SR_IDLE                        USART_SR_IDLE                 /*!< Idle line detect
 182:Drivers/STM32F1xx_HAL_Driver/Inc/stm32f1xx_ll_usart.h **** #define LL_USART_SR_RXNE                        USART_SR_RXNE                 /*!< Read data regist
 183:Drivers/STM32F1xx_HAL_Driver/Inc/stm32f1xx_ll_usart.h **** #define LL_USART_SR_TC                          USART_SR_TC                   /*!< Transmission com
 184:Drivers/STM32F1xx_HAL_Driver/Inc/stm32f1xx_ll_usart.h **** #define LL_USART_SR_TXE                         USART_SR_TXE                  /*!< Transmit data re
 185:Drivers/STM32F1xx_HAL_Driver/Inc/stm32f1xx_ll_usart.h **** #define LL_USART_SR_LBD                         USART_SR_LBD                  /*!< LIN break detect
 186:Drivers/STM32F1xx_HAL_Driver/Inc/stm32f1xx_ll_usart.h **** #define LL_USART_SR_CTS                         USART_SR_CTS                  /*!< CTS flag */
 187:Drivers/STM32F1xx_HAL_Driver/Inc/stm32f1xx_ll_usart.h **** /**
 188:Drivers/STM32F1xx_HAL_Driver/Inc/stm32f1xx_ll_usart.h ****   * @}
 189:Drivers/STM32F1xx_HAL_Driver/Inc/stm32f1xx_ll_usart.h ****   */
 190:Drivers/STM32F1xx_HAL_Driver/Inc/stm32f1xx_ll_usart.h **** 
 191:Drivers/STM32F1xx_HAL_Driver/Inc/stm32f1xx_ll_usart.h **** /** @defgroup USART_LL_EC_IT IT Defines
 192:Drivers/STM32F1xx_HAL_Driver/Inc/stm32f1xx_ll_usart.h ****   * @brief    IT defines which can be used with LL_USART_ReadReg and  LL_USART_WriteReg functions
 193:Drivers/STM32F1xx_HAL_Driver/Inc/stm32f1xx_ll_usart.h ****   * @{
 194:Drivers/STM32F1xx_HAL_Driver/Inc/stm32f1xx_ll_usart.h ****   */
 195:Drivers/STM32F1xx_HAL_Driver/Inc/stm32f1xx_ll_usart.h **** #define LL_USART_CR1_IDLEIE                     USART_CR1_IDLEIE              /*!< IDLE interrupt e
 196:Drivers/STM32F1xx_HAL_Driver/Inc/stm32f1xx_ll_usart.h **** #define LL_USART_CR1_RXNEIE                     USART_CR1_RXNEIE              /*!< Read data regist
 197:Drivers/STM32F1xx_HAL_Driver/Inc/stm32f1xx_ll_usart.h **** #define LL_USART_CR1_TCIE                       USART_CR1_TCIE                /*!< Transmission com
 198:Drivers/STM32F1xx_HAL_Driver/Inc/stm32f1xx_ll_usart.h **** #define LL_USART_CR1_TXEIE                      USART_CR1_TXEIE               /*!< Transmit data re
 199:Drivers/STM32F1xx_HAL_Driver/Inc/stm32f1xx_ll_usart.h **** #define LL_USART_CR1_PEIE                       USART_CR1_PEIE                /*!< Parity error */
 200:Drivers/STM32F1xx_HAL_Driver/Inc/stm32f1xx_ll_usart.h **** #define LL_USART_CR2_LBDIE                      USART_CR2_LBDIE               /*!< LIN break detect
 201:Drivers/STM32F1xx_HAL_Driver/Inc/stm32f1xx_ll_usart.h **** #define LL_USART_CR3_EIE                        USART_CR3_EIE                 /*!< Error interrupt 
 202:Drivers/STM32F1xx_HAL_Driver/Inc/stm32f1xx_ll_usart.h **** #define LL_USART_CR3_CTSIE                      USART_CR3_CTSIE               /*!< CTS interrupt en
 203:Drivers/STM32F1xx_HAL_Driver/Inc/stm32f1xx_ll_usart.h **** /**
 204:Drivers/STM32F1xx_HAL_Driver/Inc/stm32f1xx_ll_usart.h ****   * @}
 205:Drivers/STM32F1xx_HAL_Driver/Inc/stm32f1xx_ll_usart.h ****   */
ARM GAS  /tmp/ccY3COIh.s 			page 5


 206:Drivers/STM32F1xx_HAL_Driver/Inc/stm32f1xx_ll_usart.h **** 
 207:Drivers/STM32F1xx_HAL_Driver/Inc/stm32f1xx_ll_usart.h **** /** @defgroup USART_LL_EC_DIRECTION Communication Direction
 208:Drivers/STM32F1xx_HAL_Driver/Inc/stm32f1xx_ll_usart.h ****   * @{
 209:Drivers/STM32F1xx_HAL_Driver/Inc/stm32f1xx_ll_usart.h ****   */
 210:Drivers/STM32F1xx_HAL_Driver/Inc/stm32f1xx_ll_usart.h **** #define LL_USART_DIRECTION_NONE                 0x00000000U                        /*!< Transmitter
 211:Drivers/STM32F1xx_HAL_Driver/Inc/stm32f1xx_ll_usart.h **** #define LL_USART_DIRECTION_RX                   USART_CR1_RE                       /*!< Transmitter
 212:Drivers/STM32F1xx_HAL_Driver/Inc/stm32f1xx_ll_usart.h **** #define LL_USART_DIRECTION_TX                   USART_CR1_TE                       /*!< Transmitter
 213:Drivers/STM32F1xx_HAL_Driver/Inc/stm32f1xx_ll_usart.h **** #define LL_USART_DIRECTION_TX_RX                (USART_CR1_TE |USART_CR1_RE)       /*!< Transmitter
 214:Drivers/STM32F1xx_HAL_Driver/Inc/stm32f1xx_ll_usart.h **** /**
 215:Drivers/STM32F1xx_HAL_Driver/Inc/stm32f1xx_ll_usart.h ****   * @}
 216:Drivers/STM32F1xx_HAL_Driver/Inc/stm32f1xx_ll_usart.h ****   */
 217:Drivers/STM32F1xx_HAL_Driver/Inc/stm32f1xx_ll_usart.h **** 
 218:Drivers/STM32F1xx_HAL_Driver/Inc/stm32f1xx_ll_usart.h **** /** @defgroup USART_LL_EC_PARITY Parity Control
 219:Drivers/STM32F1xx_HAL_Driver/Inc/stm32f1xx_ll_usart.h ****   * @{
 220:Drivers/STM32F1xx_HAL_Driver/Inc/stm32f1xx_ll_usart.h ****   */ 
 221:Drivers/STM32F1xx_HAL_Driver/Inc/stm32f1xx_ll_usart.h **** #define LL_USART_PARITY_NONE                    0x00000000U                          /*!< Parity co
 222:Drivers/STM32F1xx_HAL_Driver/Inc/stm32f1xx_ll_usart.h **** #define LL_USART_PARITY_EVEN                    USART_CR1_PCE                        /*!< Parity co
 223:Drivers/STM32F1xx_HAL_Driver/Inc/stm32f1xx_ll_usart.h **** #define LL_USART_PARITY_ODD                     (USART_CR1_PCE | USART_CR1_PS)       /*!< Parity co
 224:Drivers/STM32F1xx_HAL_Driver/Inc/stm32f1xx_ll_usart.h **** /**
 225:Drivers/STM32F1xx_HAL_Driver/Inc/stm32f1xx_ll_usart.h ****   * @}
 226:Drivers/STM32F1xx_HAL_Driver/Inc/stm32f1xx_ll_usart.h ****   */
 227:Drivers/STM32F1xx_HAL_Driver/Inc/stm32f1xx_ll_usart.h **** 
 228:Drivers/STM32F1xx_HAL_Driver/Inc/stm32f1xx_ll_usart.h **** /** @defgroup USART_LL_EC_WAKEUP Wakeup
 229:Drivers/STM32F1xx_HAL_Driver/Inc/stm32f1xx_ll_usart.h ****   * @{
 230:Drivers/STM32F1xx_HAL_Driver/Inc/stm32f1xx_ll_usart.h ****   */
 231:Drivers/STM32F1xx_HAL_Driver/Inc/stm32f1xx_ll_usart.h **** #define LL_USART_WAKEUP_IDLELINE                0x00000000U           /*!<  USART wake up from Mute
 232:Drivers/STM32F1xx_HAL_Driver/Inc/stm32f1xx_ll_usart.h **** #define LL_USART_WAKEUP_ADDRESSMARK             USART_CR1_WAKE        /*!<  USART wake up from Mute
 233:Drivers/STM32F1xx_HAL_Driver/Inc/stm32f1xx_ll_usart.h **** /**
 234:Drivers/STM32F1xx_HAL_Driver/Inc/stm32f1xx_ll_usart.h ****   * @}
 235:Drivers/STM32F1xx_HAL_Driver/Inc/stm32f1xx_ll_usart.h ****   */
 236:Drivers/STM32F1xx_HAL_Driver/Inc/stm32f1xx_ll_usart.h **** 
 237:Drivers/STM32F1xx_HAL_Driver/Inc/stm32f1xx_ll_usart.h **** /** @defgroup USART_LL_EC_DATAWIDTH Datawidth
 238:Drivers/STM32F1xx_HAL_Driver/Inc/stm32f1xx_ll_usart.h ****   * @{
 239:Drivers/STM32F1xx_HAL_Driver/Inc/stm32f1xx_ll_usart.h ****   */
 240:Drivers/STM32F1xx_HAL_Driver/Inc/stm32f1xx_ll_usart.h **** #define LL_USART_DATAWIDTH_8B                   0x00000000U             /*!< 8 bits word length : S
 241:Drivers/STM32F1xx_HAL_Driver/Inc/stm32f1xx_ll_usart.h **** #define LL_USART_DATAWIDTH_9B                   USART_CR1_M             /*!< 9 bits word length : S
 242:Drivers/STM32F1xx_HAL_Driver/Inc/stm32f1xx_ll_usart.h **** /**
 243:Drivers/STM32F1xx_HAL_Driver/Inc/stm32f1xx_ll_usart.h ****   * @}
 244:Drivers/STM32F1xx_HAL_Driver/Inc/stm32f1xx_ll_usart.h ****   */
 245:Drivers/STM32F1xx_HAL_Driver/Inc/stm32f1xx_ll_usart.h **** 
 246:Drivers/STM32F1xx_HAL_Driver/Inc/stm32f1xx_ll_usart.h **** #if defined(USART_CR1_OVER8)
 247:Drivers/STM32F1xx_HAL_Driver/Inc/stm32f1xx_ll_usart.h **** /** @defgroup USART_LL_EC_OVERSAMPLING Oversampling
 248:Drivers/STM32F1xx_HAL_Driver/Inc/stm32f1xx_ll_usart.h ****   * @{
 249:Drivers/STM32F1xx_HAL_Driver/Inc/stm32f1xx_ll_usart.h ****   */
 250:Drivers/STM32F1xx_HAL_Driver/Inc/stm32f1xx_ll_usart.h **** #define LL_USART_OVERSAMPLING_16                0x00000000U            /*!< Oversampling by 16 */
 251:Drivers/STM32F1xx_HAL_Driver/Inc/stm32f1xx_ll_usart.h **** #define LL_USART_OVERSAMPLING_8                 USART_CR1_OVER8        /*!< Oversampling by 8 */
 252:Drivers/STM32F1xx_HAL_Driver/Inc/stm32f1xx_ll_usart.h **** /**
 253:Drivers/STM32F1xx_HAL_Driver/Inc/stm32f1xx_ll_usart.h ****   * @}
 254:Drivers/STM32F1xx_HAL_Driver/Inc/stm32f1xx_ll_usart.h ****   */
 255:Drivers/STM32F1xx_HAL_Driver/Inc/stm32f1xx_ll_usart.h **** 
 256:Drivers/STM32F1xx_HAL_Driver/Inc/stm32f1xx_ll_usart.h **** #endif /* USART_OverSampling_Feature */
 257:Drivers/STM32F1xx_HAL_Driver/Inc/stm32f1xx_ll_usart.h **** #if defined(USE_FULL_LL_DRIVER)
 258:Drivers/STM32F1xx_HAL_Driver/Inc/stm32f1xx_ll_usart.h **** /** @defgroup USART_LL_EC_CLOCK Clock Signal
 259:Drivers/STM32F1xx_HAL_Driver/Inc/stm32f1xx_ll_usart.h ****   * @{
 260:Drivers/STM32F1xx_HAL_Driver/Inc/stm32f1xx_ll_usart.h ****   */
 261:Drivers/STM32F1xx_HAL_Driver/Inc/stm32f1xx_ll_usart.h **** 
 262:Drivers/STM32F1xx_HAL_Driver/Inc/stm32f1xx_ll_usart.h **** #define LL_USART_CLOCK_DISABLE                  0x00000000U            /*!< Clock signal not provid
ARM GAS  /tmp/ccY3COIh.s 			page 6


 263:Drivers/STM32F1xx_HAL_Driver/Inc/stm32f1xx_ll_usart.h **** #define LL_USART_CLOCK_ENABLE                   USART_CR2_CLKEN        /*!< Clock signal provided *
 264:Drivers/STM32F1xx_HAL_Driver/Inc/stm32f1xx_ll_usart.h **** /**
 265:Drivers/STM32F1xx_HAL_Driver/Inc/stm32f1xx_ll_usart.h ****   * @}
 266:Drivers/STM32F1xx_HAL_Driver/Inc/stm32f1xx_ll_usart.h ****   */
 267:Drivers/STM32F1xx_HAL_Driver/Inc/stm32f1xx_ll_usart.h **** #endif /*USE_FULL_LL_DRIVER*/
 268:Drivers/STM32F1xx_HAL_Driver/Inc/stm32f1xx_ll_usart.h **** 
 269:Drivers/STM32F1xx_HAL_Driver/Inc/stm32f1xx_ll_usart.h **** /** @defgroup USART_LL_EC_LASTCLKPULSE Last Clock Pulse
 270:Drivers/STM32F1xx_HAL_Driver/Inc/stm32f1xx_ll_usart.h ****   * @{
 271:Drivers/STM32F1xx_HAL_Driver/Inc/stm32f1xx_ll_usart.h ****   */
 272:Drivers/STM32F1xx_HAL_Driver/Inc/stm32f1xx_ll_usart.h **** #define LL_USART_LASTCLKPULSE_NO_OUTPUT         0x00000000U           /*!< The clock pulse of the l
 273:Drivers/STM32F1xx_HAL_Driver/Inc/stm32f1xx_ll_usart.h **** #define LL_USART_LASTCLKPULSE_OUTPUT            USART_CR2_LBCL        /*!< The clock pulse of the l
 274:Drivers/STM32F1xx_HAL_Driver/Inc/stm32f1xx_ll_usart.h **** /**
 275:Drivers/STM32F1xx_HAL_Driver/Inc/stm32f1xx_ll_usart.h ****   * @}
 276:Drivers/STM32F1xx_HAL_Driver/Inc/stm32f1xx_ll_usart.h ****   */
 277:Drivers/STM32F1xx_HAL_Driver/Inc/stm32f1xx_ll_usart.h **** 
 278:Drivers/STM32F1xx_HAL_Driver/Inc/stm32f1xx_ll_usart.h **** /** @defgroup USART_LL_EC_PHASE Clock Phase
 279:Drivers/STM32F1xx_HAL_Driver/Inc/stm32f1xx_ll_usart.h ****   * @{
 280:Drivers/STM32F1xx_HAL_Driver/Inc/stm32f1xx_ll_usart.h ****   */
 281:Drivers/STM32F1xx_HAL_Driver/Inc/stm32f1xx_ll_usart.h **** #define LL_USART_PHASE_1EDGE                    0x00000000U           /*!< The first clock transiti
 282:Drivers/STM32F1xx_HAL_Driver/Inc/stm32f1xx_ll_usart.h **** #define LL_USART_PHASE_2EDGE                    USART_CR2_CPHA        /*!< The second clock transit
 283:Drivers/STM32F1xx_HAL_Driver/Inc/stm32f1xx_ll_usart.h **** /**
 284:Drivers/STM32F1xx_HAL_Driver/Inc/stm32f1xx_ll_usart.h ****   * @}
 285:Drivers/STM32F1xx_HAL_Driver/Inc/stm32f1xx_ll_usart.h ****   */
 286:Drivers/STM32F1xx_HAL_Driver/Inc/stm32f1xx_ll_usart.h **** 
 287:Drivers/STM32F1xx_HAL_Driver/Inc/stm32f1xx_ll_usart.h **** /** @defgroup USART_LL_EC_POLARITY Clock Polarity
 288:Drivers/STM32F1xx_HAL_Driver/Inc/stm32f1xx_ll_usart.h ****   * @{
 289:Drivers/STM32F1xx_HAL_Driver/Inc/stm32f1xx_ll_usart.h ****   */
 290:Drivers/STM32F1xx_HAL_Driver/Inc/stm32f1xx_ll_usart.h **** #define LL_USART_POLARITY_LOW                   0x00000000U           /*!< Steady low value on SCLK
 291:Drivers/STM32F1xx_HAL_Driver/Inc/stm32f1xx_ll_usart.h **** #define LL_USART_POLARITY_HIGH                  USART_CR2_CPOL        /*!< Steady high value on SCL
 292:Drivers/STM32F1xx_HAL_Driver/Inc/stm32f1xx_ll_usart.h **** /**
 293:Drivers/STM32F1xx_HAL_Driver/Inc/stm32f1xx_ll_usart.h ****   * @}
 294:Drivers/STM32F1xx_HAL_Driver/Inc/stm32f1xx_ll_usart.h ****   */
 295:Drivers/STM32F1xx_HAL_Driver/Inc/stm32f1xx_ll_usart.h **** 
 296:Drivers/STM32F1xx_HAL_Driver/Inc/stm32f1xx_ll_usart.h **** /** @defgroup USART_LL_EC_STOPBITS Stop Bits
 297:Drivers/STM32F1xx_HAL_Driver/Inc/stm32f1xx_ll_usart.h ****   * @{
 298:Drivers/STM32F1xx_HAL_Driver/Inc/stm32f1xx_ll_usart.h ****   */
 299:Drivers/STM32F1xx_HAL_Driver/Inc/stm32f1xx_ll_usart.h **** #define LL_USART_STOPBITS_0_5                   USART_CR2_STOP_0                           /*!< 0.5
 300:Drivers/STM32F1xx_HAL_Driver/Inc/stm32f1xx_ll_usart.h **** #define LL_USART_STOPBITS_1                     0x00000000U                                /*!< 1 s
 301:Drivers/STM32F1xx_HAL_Driver/Inc/stm32f1xx_ll_usart.h **** #define LL_USART_STOPBITS_1_5                   (USART_CR2_STOP_0 | USART_CR2_STOP_1)      /*!< 1.5
 302:Drivers/STM32F1xx_HAL_Driver/Inc/stm32f1xx_ll_usart.h **** #define LL_USART_STOPBITS_2                     USART_CR2_STOP_1                           /*!< 2 s
 303:Drivers/STM32F1xx_HAL_Driver/Inc/stm32f1xx_ll_usart.h **** /**
 304:Drivers/STM32F1xx_HAL_Driver/Inc/stm32f1xx_ll_usart.h ****   * @}
 305:Drivers/STM32F1xx_HAL_Driver/Inc/stm32f1xx_ll_usart.h ****   */
 306:Drivers/STM32F1xx_HAL_Driver/Inc/stm32f1xx_ll_usart.h **** 
 307:Drivers/STM32F1xx_HAL_Driver/Inc/stm32f1xx_ll_usart.h **** /** @defgroup USART_LL_EC_HWCONTROL Hardware Control
 308:Drivers/STM32F1xx_HAL_Driver/Inc/stm32f1xx_ll_usart.h ****   * @{
 309:Drivers/STM32F1xx_HAL_Driver/Inc/stm32f1xx_ll_usart.h ****   */
 310:Drivers/STM32F1xx_HAL_Driver/Inc/stm32f1xx_ll_usart.h **** #define LL_USART_HWCONTROL_NONE                 0x00000000U                          /*!< CTS and R
 311:Drivers/STM32F1xx_HAL_Driver/Inc/stm32f1xx_ll_usart.h **** #define LL_USART_HWCONTROL_RTS                  USART_CR3_RTSE                       /*!< RTS outpu
 312:Drivers/STM32F1xx_HAL_Driver/Inc/stm32f1xx_ll_usart.h **** #define LL_USART_HWCONTROL_CTS                  USART_CR3_CTSE                       /*!< CTS mode 
 313:Drivers/STM32F1xx_HAL_Driver/Inc/stm32f1xx_ll_usart.h **** #define LL_USART_HWCONTROL_RTS_CTS              (USART_CR3_RTSE | USART_CR3_CTSE)    /*!< CTS and R
 314:Drivers/STM32F1xx_HAL_Driver/Inc/stm32f1xx_ll_usart.h **** /**
 315:Drivers/STM32F1xx_HAL_Driver/Inc/stm32f1xx_ll_usart.h ****   * @}
 316:Drivers/STM32F1xx_HAL_Driver/Inc/stm32f1xx_ll_usart.h ****   */
 317:Drivers/STM32F1xx_HAL_Driver/Inc/stm32f1xx_ll_usart.h **** 
 318:Drivers/STM32F1xx_HAL_Driver/Inc/stm32f1xx_ll_usart.h **** /** @defgroup USART_LL_EC_IRDA_POWER IrDA Power
 319:Drivers/STM32F1xx_HAL_Driver/Inc/stm32f1xx_ll_usart.h ****   * @{
ARM GAS  /tmp/ccY3COIh.s 			page 7


 320:Drivers/STM32F1xx_HAL_Driver/Inc/stm32f1xx_ll_usart.h ****   */
 321:Drivers/STM32F1xx_HAL_Driver/Inc/stm32f1xx_ll_usart.h **** #define LL_USART_IRDA_POWER_NORMAL              0x00000000U           /*!< IrDA normal power mode *
 322:Drivers/STM32F1xx_HAL_Driver/Inc/stm32f1xx_ll_usart.h **** #define LL_USART_IRDA_POWER_LOW                 USART_CR3_IRLP        /*!< IrDA low power mode */
 323:Drivers/STM32F1xx_HAL_Driver/Inc/stm32f1xx_ll_usart.h **** /**
 324:Drivers/STM32F1xx_HAL_Driver/Inc/stm32f1xx_ll_usart.h ****   * @}
 325:Drivers/STM32F1xx_HAL_Driver/Inc/stm32f1xx_ll_usart.h ****   */
 326:Drivers/STM32F1xx_HAL_Driver/Inc/stm32f1xx_ll_usart.h **** 
 327:Drivers/STM32F1xx_HAL_Driver/Inc/stm32f1xx_ll_usart.h **** /** @defgroup USART_LL_EC_LINBREAK_DETECT LIN Break Detection Length
 328:Drivers/STM32F1xx_HAL_Driver/Inc/stm32f1xx_ll_usart.h ****   * @{
 329:Drivers/STM32F1xx_HAL_Driver/Inc/stm32f1xx_ll_usart.h ****   */
 330:Drivers/STM32F1xx_HAL_Driver/Inc/stm32f1xx_ll_usart.h **** #define LL_USART_LINBREAK_DETECT_10B            0x00000000U           /*!< 10-bit break detection m
 331:Drivers/STM32F1xx_HAL_Driver/Inc/stm32f1xx_ll_usart.h **** #define LL_USART_LINBREAK_DETECT_11B            USART_CR2_LBDL        /*!< 11-bit break detection m
 332:Drivers/STM32F1xx_HAL_Driver/Inc/stm32f1xx_ll_usart.h **** /**
 333:Drivers/STM32F1xx_HAL_Driver/Inc/stm32f1xx_ll_usart.h ****   * @}
 334:Drivers/STM32F1xx_HAL_Driver/Inc/stm32f1xx_ll_usart.h ****   */
 335:Drivers/STM32F1xx_HAL_Driver/Inc/stm32f1xx_ll_usart.h **** 
 336:Drivers/STM32F1xx_HAL_Driver/Inc/stm32f1xx_ll_usart.h **** /**
 337:Drivers/STM32F1xx_HAL_Driver/Inc/stm32f1xx_ll_usart.h ****   * @}
 338:Drivers/STM32F1xx_HAL_Driver/Inc/stm32f1xx_ll_usart.h ****   */
 339:Drivers/STM32F1xx_HAL_Driver/Inc/stm32f1xx_ll_usart.h **** 
 340:Drivers/STM32F1xx_HAL_Driver/Inc/stm32f1xx_ll_usart.h **** /* Exported macro ------------------------------------------------------------*/
 341:Drivers/STM32F1xx_HAL_Driver/Inc/stm32f1xx_ll_usart.h **** /** @defgroup USART_LL_Exported_Macros USART Exported Macros
 342:Drivers/STM32F1xx_HAL_Driver/Inc/stm32f1xx_ll_usart.h ****   * @{
 343:Drivers/STM32F1xx_HAL_Driver/Inc/stm32f1xx_ll_usart.h ****   */
 344:Drivers/STM32F1xx_HAL_Driver/Inc/stm32f1xx_ll_usart.h **** 
 345:Drivers/STM32F1xx_HAL_Driver/Inc/stm32f1xx_ll_usart.h **** /** @defgroup USART_LL_EM_WRITE_READ Common Write and read registers Macros
 346:Drivers/STM32F1xx_HAL_Driver/Inc/stm32f1xx_ll_usart.h ****   * @{
 347:Drivers/STM32F1xx_HAL_Driver/Inc/stm32f1xx_ll_usart.h ****   */
 348:Drivers/STM32F1xx_HAL_Driver/Inc/stm32f1xx_ll_usart.h **** 
 349:Drivers/STM32F1xx_HAL_Driver/Inc/stm32f1xx_ll_usart.h **** /**
 350:Drivers/STM32F1xx_HAL_Driver/Inc/stm32f1xx_ll_usart.h ****   * @brief  Write a value in USART register
 351:Drivers/STM32F1xx_HAL_Driver/Inc/stm32f1xx_ll_usart.h ****   * @param  __INSTANCE__ USART Instance
 352:Drivers/STM32F1xx_HAL_Driver/Inc/stm32f1xx_ll_usart.h ****   * @param  __REG__ Register to be written
 353:Drivers/STM32F1xx_HAL_Driver/Inc/stm32f1xx_ll_usart.h ****   * @param  __VALUE__ Value to be written in the register
 354:Drivers/STM32F1xx_HAL_Driver/Inc/stm32f1xx_ll_usart.h ****   * @retval None
 355:Drivers/STM32F1xx_HAL_Driver/Inc/stm32f1xx_ll_usart.h ****   */
 356:Drivers/STM32F1xx_HAL_Driver/Inc/stm32f1xx_ll_usart.h **** #define LL_USART_WriteReg(__INSTANCE__, __REG__, __VALUE__) WRITE_REG(__INSTANCE__->__REG__, (__VAL
 357:Drivers/STM32F1xx_HAL_Driver/Inc/stm32f1xx_ll_usart.h **** 
 358:Drivers/STM32F1xx_HAL_Driver/Inc/stm32f1xx_ll_usart.h **** /**
 359:Drivers/STM32F1xx_HAL_Driver/Inc/stm32f1xx_ll_usart.h ****   * @brief  Read a value in USART register
 360:Drivers/STM32F1xx_HAL_Driver/Inc/stm32f1xx_ll_usart.h ****   * @param  __INSTANCE__ USART Instance
 361:Drivers/STM32F1xx_HAL_Driver/Inc/stm32f1xx_ll_usart.h ****   * @param  __REG__ Register to be read
 362:Drivers/STM32F1xx_HAL_Driver/Inc/stm32f1xx_ll_usart.h ****   * @retval Register value
 363:Drivers/STM32F1xx_HAL_Driver/Inc/stm32f1xx_ll_usart.h ****   */
 364:Drivers/STM32F1xx_HAL_Driver/Inc/stm32f1xx_ll_usart.h **** #define LL_USART_ReadReg(__INSTANCE__, __REG__) READ_REG(__INSTANCE__->__REG__)
 365:Drivers/STM32F1xx_HAL_Driver/Inc/stm32f1xx_ll_usart.h **** /**
 366:Drivers/STM32F1xx_HAL_Driver/Inc/stm32f1xx_ll_usart.h ****   * @}
 367:Drivers/STM32F1xx_HAL_Driver/Inc/stm32f1xx_ll_usart.h ****   */
 368:Drivers/STM32F1xx_HAL_Driver/Inc/stm32f1xx_ll_usart.h **** 
 369:Drivers/STM32F1xx_HAL_Driver/Inc/stm32f1xx_ll_usart.h **** /** @defgroup USART_LL_EM_Exported_Macros_Helper Exported_Macros_Helper
 370:Drivers/STM32F1xx_HAL_Driver/Inc/stm32f1xx_ll_usart.h ****   * @{
 371:Drivers/STM32F1xx_HAL_Driver/Inc/stm32f1xx_ll_usart.h ****   */
 372:Drivers/STM32F1xx_HAL_Driver/Inc/stm32f1xx_ll_usart.h **** 
 373:Drivers/STM32F1xx_HAL_Driver/Inc/stm32f1xx_ll_usart.h **** /**
 374:Drivers/STM32F1xx_HAL_Driver/Inc/stm32f1xx_ll_usart.h ****   * @brief  Compute USARTDIV value according to Peripheral Clock and
 375:Drivers/STM32F1xx_HAL_Driver/Inc/stm32f1xx_ll_usart.h ****   *         expected Baud Rate in 8 bits sampling mode (32 bits value of USARTDIV is returned)
 376:Drivers/STM32F1xx_HAL_Driver/Inc/stm32f1xx_ll_usart.h ****   * @param  __PERIPHCLK__ Peripheral Clock frequency used for USART instance
ARM GAS  /tmp/ccY3COIh.s 			page 8


 377:Drivers/STM32F1xx_HAL_Driver/Inc/stm32f1xx_ll_usart.h ****   * @param  __BAUDRATE__ Baud rate value to achieve
 378:Drivers/STM32F1xx_HAL_Driver/Inc/stm32f1xx_ll_usart.h ****   * @retval USARTDIV value to be used for BRR register filling in OverSampling_8 case
 379:Drivers/STM32F1xx_HAL_Driver/Inc/stm32f1xx_ll_usart.h ****   */
 380:Drivers/STM32F1xx_HAL_Driver/Inc/stm32f1xx_ll_usart.h **** #define __LL_USART_DIV_SAMPLING8_100(__PERIPHCLK__, __BAUDRATE__)      (((__PERIPHCLK__)*25)/(2*(__
 381:Drivers/STM32F1xx_HAL_Driver/Inc/stm32f1xx_ll_usart.h **** #define __LL_USART_DIVMANT_SAMPLING8(__PERIPHCLK__, __BAUDRATE__)      (__LL_USART_DIV_SAMPLING8_10
 382:Drivers/STM32F1xx_HAL_Driver/Inc/stm32f1xx_ll_usart.h **** #define __LL_USART_DIVFRAQ_SAMPLING8(__PERIPHCLK__, __BAUDRATE__)      (((__LL_USART_DIV_SAMPLING8_
 383:Drivers/STM32F1xx_HAL_Driver/Inc/stm32f1xx_ll_usart.h **** /* UART BRR = mantissa + overflow + fraction
 384:Drivers/STM32F1xx_HAL_Driver/Inc/stm32f1xx_ll_usart.h ****             = (UART DIVMANT << 4) + ((UART DIVFRAQ & 0xF8) << 1) + (UART DIVFRAQ & 0x07) */
 385:Drivers/STM32F1xx_HAL_Driver/Inc/stm32f1xx_ll_usart.h **** #define __LL_USART_DIV_SAMPLING8(__PERIPHCLK__, __BAUDRATE__)             (((__LL_USART_DIVMANT_SAM
 386:Drivers/STM32F1xx_HAL_Driver/Inc/stm32f1xx_ll_usart.h ****                                                                            ((__LL_USART_DIVFRAQ_SAM
 387:Drivers/STM32F1xx_HAL_Driver/Inc/stm32f1xx_ll_usart.h ****                                                                            (__LL_USART_DIVFRAQ_SAMP
 388:Drivers/STM32F1xx_HAL_Driver/Inc/stm32f1xx_ll_usart.h **** 
 389:Drivers/STM32F1xx_HAL_Driver/Inc/stm32f1xx_ll_usart.h **** /**
 390:Drivers/STM32F1xx_HAL_Driver/Inc/stm32f1xx_ll_usart.h ****   * @brief  Compute USARTDIV value according to Peripheral Clock and
 391:Drivers/STM32F1xx_HAL_Driver/Inc/stm32f1xx_ll_usart.h ****   *         expected Baud Rate in 16 bits sampling mode (32 bits value of USARTDIV is returned)
 392:Drivers/STM32F1xx_HAL_Driver/Inc/stm32f1xx_ll_usart.h ****   * @param  __PERIPHCLK__ Peripheral Clock frequency used for USART instance
 393:Drivers/STM32F1xx_HAL_Driver/Inc/stm32f1xx_ll_usart.h ****   * @param  __BAUDRATE__ Baud rate value to achieve
 394:Drivers/STM32F1xx_HAL_Driver/Inc/stm32f1xx_ll_usart.h ****   * @retval USARTDIV value to be used for BRR register filling in OverSampling_16 case
 395:Drivers/STM32F1xx_HAL_Driver/Inc/stm32f1xx_ll_usart.h ****   */
 396:Drivers/STM32F1xx_HAL_Driver/Inc/stm32f1xx_ll_usart.h **** #define __LL_USART_DIV_SAMPLING16_100(__PERIPHCLK__, __BAUDRATE__)     (((__PERIPHCLK__)*25)/(4*(__
 397:Drivers/STM32F1xx_HAL_Driver/Inc/stm32f1xx_ll_usart.h **** #define __LL_USART_DIVMANT_SAMPLING16(__PERIPHCLK__, __BAUDRATE__)     (__LL_USART_DIV_SAMPLING16_1
 398:Drivers/STM32F1xx_HAL_Driver/Inc/stm32f1xx_ll_usart.h **** #define __LL_USART_DIVFRAQ_SAMPLING16(__PERIPHCLK__, __BAUDRATE__)     (((__LL_USART_DIV_SAMPLING16
 399:Drivers/STM32F1xx_HAL_Driver/Inc/stm32f1xx_ll_usart.h **** /* USART BRR = mantissa + overflow + fraction
 400:Drivers/STM32F1xx_HAL_Driver/Inc/stm32f1xx_ll_usart.h ****             = (USART DIVMANT << 4) + (USART DIVFRAQ & 0xF0) + (USART DIVFRAQ & 0x0F) */
 401:Drivers/STM32F1xx_HAL_Driver/Inc/stm32f1xx_ll_usart.h **** #define __LL_USART_DIV_SAMPLING16(__PERIPHCLK__, __BAUDRATE__)            (((__LL_USART_DIVMANT_SAM
 402:Drivers/STM32F1xx_HAL_Driver/Inc/stm32f1xx_ll_usart.h ****                                                                            (__LL_USART_DIVFRAQ_SAMP
 403:Drivers/STM32F1xx_HAL_Driver/Inc/stm32f1xx_ll_usart.h ****                                                                            (__LL_USART_DIVFRAQ_SAMP
 404:Drivers/STM32F1xx_HAL_Driver/Inc/stm32f1xx_ll_usart.h **** 
 405:Drivers/STM32F1xx_HAL_Driver/Inc/stm32f1xx_ll_usart.h **** /**
 406:Drivers/STM32F1xx_HAL_Driver/Inc/stm32f1xx_ll_usart.h ****   * @}
 407:Drivers/STM32F1xx_HAL_Driver/Inc/stm32f1xx_ll_usart.h ****   */
 408:Drivers/STM32F1xx_HAL_Driver/Inc/stm32f1xx_ll_usart.h **** 
 409:Drivers/STM32F1xx_HAL_Driver/Inc/stm32f1xx_ll_usart.h **** /**
 410:Drivers/STM32F1xx_HAL_Driver/Inc/stm32f1xx_ll_usart.h ****   * @}
 411:Drivers/STM32F1xx_HAL_Driver/Inc/stm32f1xx_ll_usart.h ****   */
 412:Drivers/STM32F1xx_HAL_Driver/Inc/stm32f1xx_ll_usart.h **** 
 413:Drivers/STM32F1xx_HAL_Driver/Inc/stm32f1xx_ll_usart.h **** /* Exported functions --------------------------------------------------------*/
 414:Drivers/STM32F1xx_HAL_Driver/Inc/stm32f1xx_ll_usart.h **** 
 415:Drivers/STM32F1xx_HAL_Driver/Inc/stm32f1xx_ll_usart.h **** /** @defgroup USART_LL_Exported_Functions USART Exported Functions
 416:Drivers/STM32F1xx_HAL_Driver/Inc/stm32f1xx_ll_usart.h ****   * @{
 417:Drivers/STM32F1xx_HAL_Driver/Inc/stm32f1xx_ll_usart.h ****   */
 418:Drivers/STM32F1xx_HAL_Driver/Inc/stm32f1xx_ll_usart.h **** 
 419:Drivers/STM32F1xx_HAL_Driver/Inc/stm32f1xx_ll_usart.h **** /** @defgroup USART_LL_EF_Configuration Configuration functions
 420:Drivers/STM32F1xx_HAL_Driver/Inc/stm32f1xx_ll_usart.h ****   * @{
 421:Drivers/STM32F1xx_HAL_Driver/Inc/stm32f1xx_ll_usart.h ****   */
 422:Drivers/STM32F1xx_HAL_Driver/Inc/stm32f1xx_ll_usart.h **** 
 423:Drivers/STM32F1xx_HAL_Driver/Inc/stm32f1xx_ll_usart.h **** /**
 424:Drivers/STM32F1xx_HAL_Driver/Inc/stm32f1xx_ll_usart.h ****   * @brief  USART Enable
 425:Drivers/STM32F1xx_HAL_Driver/Inc/stm32f1xx_ll_usart.h ****   * @rmtoll CR1          UE            LL_USART_Enable
 426:Drivers/STM32F1xx_HAL_Driver/Inc/stm32f1xx_ll_usart.h ****   * @param  USARTx USART Instance
 427:Drivers/STM32F1xx_HAL_Driver/Inc/stm32f1xx_ll_usart.h ****   * @retval None
 428:Drivers/STM32F1xx_HAL_Driver/Inc/stm32f1xx_ll_usart.h ****   */
 429:Drivers/STM32F1xx_HAL_Driver/Inc/stm32f1xx_ll_usart.h **** __STATIC_INLINE void LL_USART_Enable(USART_TypeDef *USARTx)
 430:Drivers/STM32F1xx_HAL_Driver/Inc/stm32f1xx_ll_usart.h **** {
 431:Drivers/STM32F1xx_HAL_Driver/Inc/stm32f1xx_ll_usart.h ****   SET_BIT(USARTx->CR1, USART_CR1_UE);
 432:Drivers/STM32F1xx_HAL_Driver/Inc/stm32f1xx_ll_usart.h **** }
 433:Drivers/STM32F1xx_HAL_Driver/Inc/stm32f1xx_ll_usart.h **** 
ARM GAS  /tmp/ccY3COIh.s 			page 9


 434:Drivers/STM32F1xx_HAL_Driver/Inc/stm32f1xx_ll_usart.h **** /**
 435:Drivers/STM32F1xx_HAL_Driver/Inc/stm32f1xx_ll_usart.h ****   * @brief  USART Disable (all USART prescalers and outputs are disabled)
 436:Drivers/STM32F1xx_HAL_Driver/Inc/stm32f1xx_ll_usart.h ****   * @note   When USART is disabled, USART prescalers and outputs are stopped immediately,
 437:Drivers/STM32F1xx_HAL_Driver/Inc/stm32f1xx_ll_usart.h ****   *         and current operations are discarded. The configuration of the USART is kept, but all t
 438:Drivers/STM32F1xx_HAL_Driver/Inc/stm32f1xx_ll_usart.h ****   *         flags, in the USARTx_SR are set to their default values.
 439:Drivers/STM32F1xx_HAL_Driver/Inc/stm32f1xx_ll_usart.h ****   * @rmtoll CR1          UE            LL_USART_Disable
 440:Drivers/STM32F1xx_HAL_Driver/Inc/stm32f1xx_ll_usart.h ****   * @param  USARTx USART Instance
 441:Drivers/STM32F1xx_HAL_Driver/Inc/stm32f1xx_ll_usart.h ****   * @retval None
 442:Drivers/STM32F1xx_HAL_Driver/Inc/stm32f1xx_ll_usart.h ****   */
 443:Drivers/STM32F1xx_HAL_Driver/Inc/stm32f1xx_ll_usart.h **** __STATIC_INLINE void LL_USART_Disable(USART_TypeDef *USARTx)
 444:Drivers/STM32F1xx_HAL_Driver/Inc/stm32f1xx_ll_usart.h **** {
 445:Drivers/STM32F1xx_HAL_Driver/Inc/stm32f1xx_ll_usart.h ****   CLEAR_BIT(USARTx->CR1, USART_CR1_UE);
 446:Drivers/STM32F1xx_HAL_Driver/Inc/stm32f1xx_ll_usart.h **** }
 447:Drivers/STM32F1xx_HAL_Driver/Inc/stm32f1xx_ll_usart.h **** 
 448:Drivers/STM32F1xx_HAL_Driver/Inc/stm32f1xx_ll_usart.h **** /**
 449:Drivers/STM32F1xx_HAL_Driver/Inc/stm32f1xx_ll_usart.h ****   * @brief  Indicate if USART is enabled
 450:Drivers/STM32F1xx_HAL_Driver/Inc/stm32f1xx_ll_usart.h ****   * @rmtoll CR1          UE            LL_USART_IsEnabled
 451:Drivers/STM32F1xx_HAL_Driver/Inc/stm32f1xx_ll_usart.h ****   * @param  USARTx USART Instance
 452:Drivers/STM32F1xx_HAL_Driver/Inc/stm32f1xx_ll_usart.h ****   * @retval State of bit (1 or 0).
 453:Drivers/STM32F1xx_HAL_Driver/Inc/stm32f1xx_ll_usart.h ****   */
 454:Drivers/STM32F1xx_HAL_Driver/Inc/stm32f1xx_ll_usart.h **** __STATIC_INLINE uint32_t LL_USART_IsEnabled(USART_TypeDef *USARTx)
 455:Drivers/STM32F1xx_HAL_Driver/Inc/stm32f1xx_ll_usart.h **** {
  25              		.loc 1 455 0
  26              		.cfi_startproc
  27              		@ args = 0, pretend = 0, frame = 8
  28              		@ frame_needed = 1, uses_anonymous_args = 0
  29              		@ link register save eliminated.
  30 0000 80B4     		push	{r7}
  31              	.LCFI0:
  32              		.cfi_def_cfa_offset 4
  33              		.cfi_offset 7, -4
  34 0002 83B0     		sub	sp, sp, #12
  35              	.LCFI1:
  36              		.cfi_def_cfa_offset 16
  37 0004 00AF     		add	r7, sp, #0
  38              	.LCFI2:
  39              		.cfi_def_cfa_register 7
  40 0006 7860     		str	r0, [r7, #4]
 456:Drivers/STM32F1xx_HAL_Driver/Inc/stm32f1xx_ll_usart.h ****   return (READ_BIT(USARTx->CR1, USART_CR1_UE) == (USART_CR1_UE));
  41              		.loc 1 456 0
  42 0008 7B68     		ldr	r3, [r7, #4]
  43 000a DB68     		ldr	r3, [r3, #12]
  44 000c 03F40053 		and	r3, r3, #8192
  45 0010 B3F5005F 		cmp	r3, #8192
  46 0014 0CBF     		ite	eq
  47 0016 0123     		moveq	r3, #1
  48 0018 0023     		movne	r3, #0
  49 001a DBB2     		uxtb	r3, r3
 457:Drivers/STM32F1xx_HAL_Driver/Inc/stm32f1xx_ll_usart.h **** }
  50              		.loc 1 457 0
  51 001c 1846     		mov	r0, r3
  52 001e 0C37     		adds	r7, r7, #12
  53              	.LCFI3:
  54              		.cfi_def_cfa_offset 4
  55 0020 BD46     		mov	sp, r7
  56              	.LCFI4:
  57              		.cfi_def_cfa_register 13
ARM GAS  /tmp/ccY3COIh.s 			page 10


  58              		@ sp needed
  59 0022 80BC     		pop	{r7}
  60              	.LCFI5:
  61              		.cfi_restore 7
  62              		.cfi_def_cfa_offset 0
  63 0024 7047     		bx	lr
  64              		.cfi_endproc
  65              	.LFE65:
  67              		.section	.text.LL_USART_DisableSCLKOutput,"ax",%progbits
  68              		.align	1
  69              		.syntax unified
  70              		.thumb
  71              		.thumb_func
  72              		.fpu softvfp
  74              	LL_USART_DisableSCLKOutput:
  75              	.LFB86:
 458:Drivers/STM32F1xx_HAL_Driver/Inc/stm32f1xx_ll_usart.h **** 
 459:Drivers/STM32F1xx_HAL_Driver/Inc/stm32f1xx_ll_usart.h **** /**
 460:Drivers/STM32F1xx_HAL_Driver/Inc/stm32f1xx_ll_usart.h ****   * @brief  Receiver Enable (Receiver is enabled and begins searching for a start bit)
 461:Drivers/STM32F1xx_HAL_Driver/Inc/stm32f1xx_ll_usart.h ****   * @rmtoll CR1          RE            LL_USART_EnableDirectionRx
 462:Drivers/STM32F1xx_HAL_Driver/Inc/stm32f1xx_ll_usart.h ****   * @param  USARTx USART Instance
 463:Drivers/STM32F1xx_HAL_Driver/Inc/stm32f1xx_ll_usart.h ****   * @retval None
 464:Drivers/STM32F1xx_HAL_Driver/Inc/stm32f1xx_ll_usart.h ****   */
 465:Drivers/STM32F1xx_HAL_Driver/Inc/stm32f1xx_ll_usart.h **** __STATIC_INLINE void LL_USART_EnableDirectionRx(USART_TypeDef *USARTx)
 466:Drivers/STM32F1xx_HAL_Driver/Inc/stm32f1xx_ll_usart.h **** {
 467:Drivers/STM32F1xx_HAL_Driver/Inc/stm32f1xx_ll_usart.h ****   SET_BIT(USARTx->CR1, USART_CR1_RE);
 468:Drivers/STM32F1xx_HAL_Driver/Inc/stm32f1xx_ll_usart.h **** }
 469:Drivers/STM32F1xx_HAL_Driver/Inc/stm32f1xx_ll_usart.h **** 
 470:Drivers/STM32F1xx_HAL_Driver/Inc/stm32f1xx_ll_usart.h **** /**
 471:Drivers/STM32F1xx_HAL_Driver/Inc/stm32f1xx_ll_usart.h ****   * @brief  Receiver Disable
 472:Drivers/STM32F1xx_HAL_Driver/Inc/stm32f1xx_ll_usart.h ****   * @rmtoll CR1          RE            LL_USART_DisableDirectionRx
 473:Drivers/STM32F1xx_HAL_Driver/Inc/stm32f1xx_ll_usart.h ****   * @param  USARTx USART Instance
 474:Drivers/STM32F1xx_HAL_Driver/Inc/stm32f1xx_ll_usart.h ****   * @retval None
 475:Drivers/STM32F1xx_HAL_Driver/Inc/stm32f1xx_ll_usart.h ****   */
 476:Drivers/STM32F1xx_HAL_Driver/Inc/stm32f1xx_ll_usart.h **** __STATIC_INLINE void LL_USART_DisableDirectionRx(USART_TypeDef *USARTx)
 477:Drivers/STM32F1xx_HAL_Driver/Inc/stm32f1xx_ll_usart.h **** {
 478:Drivers/STM32F1xx_HAL_Driver/Inc/stm32f1xx_ll_usart.h ****   CLEAR_BIT(USARTx->CR1, USART_CR1_RE);
 479:Drivers/STM32F1xx_HAL_Driver/Inc/stm32f1xx_ll_usart.h **** }
 480:Drivers/STM32F1xx_HAL_Driver/Inc/stm32f1xx_ll_usart.h **** 
 481:Drivers/STM32F1xx_HAL_Driver/Inc/stm32f1xx_ll_usart.h **** /**
 482:Drivers/STM32F1xx_HAL_Driver/Inc/stm32f1xx_ll_usart.h ****   * @brief  Transmitter Enable
 483:Drivers/STM32F1xx_HAL_Driver/Inc/stm32f1xx_ll_usart.h ****   * @rmtoll CR1          TE            LL_USART_EnableDirectionTx
 484:Drivers/STM32F1xx_HAL_Driver/Inc/stm32f1xx_ll_usart.h ****   * @param  USARTx USART Instance
 485:Drivers/STM32F1xx_HAL_Driver/Inc/stm32f1xx_ll_usart.h ****   * @retval None
 486:Drivers/STM32F1xx_HAL_Driver/Inc/stm32f1xx_ll_usart.h ****   */
 487:Drivers/STM32F1xx_HAL_Driver/Inc/stm32f1xx_ll_usart.h **** __STATIC_INLINE void LL_USART_EnableDirectionTx(USART_TypeDef *USARTx)
 488:Drivers/STM32F1xx_HAL_Driver/Inc/stm32f1xx_ll_usart.h **** {
 489:Drivers/STM32F1xx_HAL_Driver/Inc/stm32f1xx_ll_usart.h ****   SET_BIT(USARTx->CR1, USART_CR1_TE);
 490:Drivers/STM32F1xx_HAL_Driver/Inc/stm32f1xx_ll_usart.h **** }
 491:Drivers/STM32F1xx_HAL_Driver/Inc/stm32f1xx_ll_usart.h **** 
 492:Drivers/STM32F1xx_HAL_Driver/Inc/stm32f1xx_ll_usart.h **** /**
 493:Drivers/STM32F1xx_HAL_Driver/Inc/stm32f1xx_ll_usart.h ****   * @brief  Transmitter Disable
 494:Drivers/STM32F1xx_HAL_Driver/Inc/stm32f1xx_ll_usart.h ****   * @rmtoll CR1          TE            LL_USART_DisableDirectionTx
 495:Drivers/STM32F1xx_HAL_Driver/Inc/stm32f1xx_ll_usart.h ****   * @param  USARTx USART Instance
 496:Drivers/STM32F1xx_HAL_Driver/Inc/stm32f1xx_ll_usart.h ****   * @retval None
 497:Drivers/STM32F1xx_HAL_Driver/Inc/stm32f1xx_ll_usart.h ****   */
 498:Drivers/STM32F1xx_HAL_Driver/Inc/stm32f1xx_ll_usart.h **** __STATIC_INLINE void LL_USART_DisableDirectionTx(USART_TypeDef *USARTx)
ARM GAS  /tmp/ccY3COIh.s 			page 11


 499:Drivers/STM32F1xx_HAL_Driver/Inc/stm32f1xx_ll_usart.h **** {
 500:Drivers/STM32F1xx_HAL_Driver/Inc/stm32f1xx_ll_usart.h ****   CLEAR_BIT(USARTx->CR1, USART_CR1_TE);
 501:Drivers/STM32F1xx_HAL_Driver/Inc/stm32f1xx_ll_usart.h **** }
 502:Drivers/STM32F1xx_HAL_Driver/Inc/stm32f1xx_ll_usart.h **** 
 503:Drivers/STM32F1xx_HAL_Driver/Inc/stm32f1xx_ll_usart.h **** /**
 504:Drivers/STM32F1xx_HAL_Driver/Inc/stm32f1xx_ll_usart.h ****   * @brief  Configure simultaneously enabled/disabled states
 505:Drivers/STM32F1xx_HAL_Driver/Inc/stm32f1xx_ll_usart.h ****   *         of Transmitter and Receiver
 506:Drivers/STM32F1xx_HAL_Driver/Inc/stm32f1xx_ll_usart.h ****   * @rmtoll CR1          RE            LL_USART_SetTransferDirection\n
 507:Drivers/STM32F1xx_HAL_Driver/Inc/stm32f1xx_ll_usart.h ****   *         CR1          TE            LL_USART_SetTransferDirection
 508:Drivers/STM32F1xx_HAL_Driver/Inc/stm32f1xx_ll_usart.h ****   * @param  USARTx USART Instance
 509:Drivers/STM32F1xx_HAL_Driver/Inc/stm32f1xx_ll_usart.h ****   * @param  TransferDirection This parameter can be one of the following values:
 510:Drivers/STM32F1xx_HAL_Driver/Inc/stm32f1xx_ll_usart.h ****   *         @arg @ref LL_USART_DIRECTION_NONE
 511:Drivers/STM32F1xx_HAL_Driver/Inc/stm32f1xx_ll_usart.h ****   *         @arg @ref LL_USART_DIRECTION_RX
 512:Drivers/STM32F1xx_HAL_Driver/Inc/stm32f1xx_ll_usart.h ****   *         @arg @ref LL_USART_DIRECTION_TX
 513:Drivers/STM32F1xx_HAL_Driver/Inc/stm32f1xx_ll_usart.h ****   *         @arg @ref LL_USART_DIRECTION_TX_RX
 514:Drivers/STM32F1xx_HAL_Driver/Inc/stm32f1xx_ll_usart.h ****   * @retval None
 515:Drivers/STM32F1xx_HAL_Driver/Inc/stm32f1xx_ll_usart.h ****   */
 516:Drivers/STM32F1xx_HAL_Driver/Inc/stm32f1xx_ll_usart.h **** __STATIC_INLINE void LL_USART_SetTransferDirection(USART_TypeDef *USARTx, uint32_t TransferDirectio
 517:Drivers/STM32F1xx_HAL_Driver/Inc/stm32f1xx_ll_usart.h **** {
 518:Drivers/STM32F1xx_HAL_Driver/Inc/stm32f1xx_ll_usart.h ****   MODIFY_REG(USARTx->CR1, USART_CR1_RE | USART_CR1_TE, TransferDirection);
 519:Drivers/STM32F1xx_HAL_Driver/Inc/stm32f1xx_ll_usart.h **** }
 520:Drivers/STM32F1xx_HAL_Driver/Inc/stm32f1xx_ll_usart.h **** 
 521:Drivers/STM32F1xx_HAL_Driver/Inc/stm32f1xx_ll_usart.h **** /**
 522:Drivers/STM32F1xx_HAL_Driver/Inc/stm32f1xx_ll_usart.h ****   * @brief  Return enabled/disabled states of Transmitter and Receiver
 523:Drivers/STM32F1xx_HAL_Driver/Inc/stm32f1xx_ll_usart.h ****   * @rmtoll CR1          RE            LL_USART_GetTransferDirection\n
 524:Drivers/STM32F1xx_HAL_Driver/Inc/stm32f1xx_ll_usart.h ****   *         CR1          TE            LL_USART_GetTransferDirection
 525:Drivers/STM32F1xx_HAL_Driver/Inc/stm32f1xx_ll_usart.h ****   * @param  USARTx USART Instance
 526:Drivers/STM32F1xx_HAL_Driver/Inc/stm32f1xx_ll_usart.h ****   * @retval Returned value can be one of the following values:
 527:Drivers/STM32F1xx_HAL_Driver/Inc/stm32f1xx_ll_usart.h ****   *         @arg @ref LL_USART_DIRECTION_NONE
 528:Drivers/STM32F1xx_HAL_Driver/Inc/stm32f1xx_ll_usart.h ****   *         @arg @ref LL_USART_DIRECTION_RX
 529:Drivers/STM32F1xx_HAL_Driver/Inc/stm32f1xx_ll_usart.h ****   *         @arg @ref LL_USART_DIRECTION_TX
 530:Drivers/STM32F1xx_HAL_Driver/Inc/stm32f1xx_ll_usart.h ****   *         @arg @ref LL_USART_DIRECTION_TX_RX
 531:Drivers/STM32F1xx_HAL_Driver/Inc/stm32f1xx_ll_usart.h ****   */
 532:Drivers/STM32F1xx_HAL_Driver/Inc/stm32f1xx_ll_usart.h **** __STATIC_INLINE uint32_t LL_USART_GetTransferDirection(USART_TypeDef *USARTx)
 533:Drivers/STM32F1xx_HAL_Driver/Inc/stm32f1xx_ll_usart.h **** {
 534:Drivers/STM32F1xx_HAL_Driver/Inc/stm32f1xx_ll_usart.h ****   return (uint32_t)(READ_BIT(USARTx->CR1, USART_CR1_RE | USART_CR1_TE));
 535:Drivers/STM32F1xx_HAL_Driver/Inc/stm32f1xx_ll_usart.h **** }
 536:Drivers/STM32F1xx_HAL_Driver/Inc/stm32f1xx_ll_usart.h **** 
 537:Drivers/STM32F1xx_HAL_Driver/Inc/stm32f1xx_ll_usart.h **** /**
 538:Drivers/STM32F1xx_HAL_Driver/Inc/stm32f1xx_ll_usart.h ****   * @brief  Configure Parity (enabled/disabled and parity mode if enabled).
 539:Drivers/STM32F1xx_HAL_Driver/Inc/stm32f1xx_ll_usart.h ****   * @note   This function selects if hardware parity control (generation and detection) is enabled 
 540:Drivers/STM32F1xx_HAL_Driver/Inc/stm32f1xx_ll_usart.h ****   *         When the parity control is enabled (Odd or Even), computed parity bit is inserted at th
 541:Drivers/STM32F1xx_HAL_Driver/Inc/stm32f1xx_ll_usart.h ****   *         (9th or 8th bit depending on data width) and parity is checked on the received data.
 542:Drivers/STM32F1xx_HAL_Driver/Inc/stm32f1xx_ll_usart.h ****   * @rmtoll CR1          PS            LL_USART_SetParity\n
 543:Drivers/STM32F1xx_HAL_Driver/Inc/stm32f1xx_ll_usart.h ****   *         CR1          PCE           LL_USART_SetParity
 544:Drivers/STM32F1xx_HAL_Driver/Inc/stm32f1xx_ll_usart.h ****   * @param  USARTx USART Instance
 545:Drivers/STM32F1xx_HAL_Driver/Inc/stm32f1xx_ll_usart.h ****   * @param  Parity This parameter can be one of the following values:
 546:Drivers/STM32F1xx_HAL_Driver/Inc/stm32f1xx_ll_usart.h ****   *         @arg @ref LL_USART_PARITY_NONE
 547:Drivers/STM32F1xx_HAL_Driver/Inc/stm32f1xx_ll_usart.h ****   *         @arg @ref LL_USART_PARITY_EVEN
 548:Drivers/STM32F1xx_HAL_Driver/Inc/stm32f1xx_ll_usart.h ****   *         @arg @ref LL_USART_PARITY_ODD
 549:Drivers/STM32F1xx_HAL_Driver/Inc/stm32f1xx_ll_usart.h ****   * @retval None
 550:Drivers/STM32F1xx_HAL_Driver/Inc/stm32f1xx_ll_usart.h ****   */
 551:Drivers/STM32F1xx_HAL_Driver/Inc/stm32f1xx_ll_usart.h **** __STATIC_INLINE void LL_USART_SetParity(USART_TypeDef *USARTx, uint32_t Parity)
 552:Drivers/STM32F1xx_HAL_Driver/Inc/stm32f1xx_ll_usart.h **** {
 553:Drivers/STM32F1xx_HAL_Driver/Inc/stm32f1xx_ll_usart.h ****   MODIFY_REG(USARTx->CR1, USART_CR1_PS | USART_CR1_PCE, Parity);
 554:Drivers/STM32F1xx_HAL_Driver/Inc/stm32f1xx_ll_usart.h **** }
 555:Drivers/STM32F1xx_HAL_Driver/Inc/stm32f1xx_ll_usart.h **** 
ARM GAS  /tmp/ccY3COIh.s 			page 12


 556:Drivers/STM32F1xx_HAL_Driver/Inc/stm32f1xx_ll_usart.h **** /**
 557:Drivers/STM32F1xx_HAL_Driver/Inc/stm32f1xx_ll_usart.h ****   * @brief  Return Parity configuration (enabled/disabled and parity mode if enabled)
 558:Drivers/STM32F1xx_HAL_Driver/Inc/stm32f1xx_ll_usart.h ****   * @rmtoll CR1          PS            LL_USART_GetParity\n
 559:Drivers/STM32F1xx_HAL_Driver/Inc/stm32f1xx_ll_usart.h ****   *         CR1          PCE           LL_USART_GetParity
 560:Drivers/STM32F1xx_HAL_Driver/Inc/stm32f1xx_ll_usart.h ****   * @param  USARTx USART Instance
 561:Drivers/STM32F1xx_HAL_Driver/Inc/stm32f1xx_ll_usart.h ****   * @retval Returned value can be one of the following values:
 562:Drivers/STM32F1xx_HAL_Driver/Inc/stm32f1xx_ll_usart.h ****   *         @arg @ref LL_USART_PARITY_NONE
 563:Drivers/STM32F1xx_HAL_Driver/Inc/stm32f1xx_ll_usart.h ****   *         @arg @ref LL_USART_PARITY_EVEN
 564:Drivers/STM32F1xx_HAL_Driver/Inc/stm32f1xx_ll_usart.h ****   *         @arg @ref LL_USART_PARITY_ODD
 565:Drivers/STM32F1xx_HAL_Driver/Inc/stm32f1xx_ll_usart.h ****   */
 566:Drivers/STM32F1xx_HAL_Driver/Inc/stm32f1xx_ll_usart.h **** __STATIC_INLINE uint32_t LL_USART_GetParity(USART_TypeDef *USARTx)
 567:Drivers/STM32F1xx_HAL_Driver/Inc/stm32f1xx_ll_usart.h **** {
 568:Drivers/STM32F1xx_HAL_Driver/Inc/stm32f1xx_ll_usart.h ****   return (uint32_t)(READ_BIT(USARTx->CR1, USART_CR1_PS | USART_CR1_PCE));
 569:Drivers/STM32F1xx_HAL_Driver/Inc/stm32f1xx_ll_usart.h **** }
 570:Drivers/STM32F1xx_HAL_Driver/Inc/stm32f1xx_ll_usart.h **** 
 571:Drivers/STM32F1xx_HAL_Driver/Inc/stm32f1xx_ll_usart.h **** /**
 572:Drivers/STM32F1xx_HAL_Driver/Inc/stm32f1xx_ll_usart.h ****   * @brief  Set Receiver Wake Up method from Mute mode.
 573:Drivers/STM32F1xx_HAL_Driver/Inc/stm32f1xx_ll_usart.h ****   * @rmtoll CR1          WAKE          LL_USART_SetWakeUpMethod
 574:Drivers/STM32F1xx_HAL_Driver/Inc/stm32f1xx_ll_usart.h ****   * @param  USARTx USART Instance
 575:Drivers/STM32F1xx_HAL_Driver/Inc/stm32f1xx_ll_usart.h ****   * @param  Method This parameter can be one of the following values:
 576:Drivers/STM32F1xx_HAL_Driver/Inc/stm32f1xx_ll_usart.h ****   *         @arg @ref LL_USART_WAKEUP_IDLELINE
 577:Drivers/STM32F1xx_HAL_Driver/Inc/stm32f1xx_ll_usart.h ****   *         @arg @ref LL_USART_WAKEUP_ADDRESSMARK
 578:Drivers/STM32F1xx_HAL_Driver/Inc/stm32f1xx_ll_usart.h ****   * @retval None
 579:Drivers/STM32F1xx_HAL_Driver/Inc/stm32f1xx_ll_usart.h ****   */
 580:Drivers/STM32F1xx_HAL_Driver/Inc/stm32f1xx_ll_usart.h **** __STATIC_INLINE void LL_USART_SetWakeUpMethod(USART_TypeDef *USARTx, uint32_t Method)
 581:Drivers/STM32F1xx_HAL_Driver/Inc/stm32f1xx_ll_usart.h **** {
 582:Drivers/STM32F1xx_HAL_Driver/Inc/stm32f1xx_ll_usart.h ****   MODIFY_REG(USARTx->CR1, USART_CR1_WAKE, Method);
 583:Drivers/STM32F1xx_HAL_Driver/Inc/stm32f1xx_ll_usart.h **** }
 584:Drivers/STM32F1xx_HAL_Driver/Inc/stm32f1xx_ll_usart.h **** 
 585:Drivers/STM32F1xx_HAL_Driver/Inc/stm32f1xx_ll_usart.h **** /**
 586:Drivers/STM32F1xx_HAL_Driver/Inc/stm32f1xx_ll_usart.h ****   * @brief  Return Receiver Wake Up method from Mute mode
 587:Drivers/STM32F1xx_HAL_Driver/Inc/stm32f1xx_ll_usart.h ****   * @rmtoll CR1          WAKE          LL_USART_GetWakeUpMethod
 588:Drivers/STM32F1xx_HAL_Driver/Inc/stm32f1xx_ll_usart.h ****   * @param  USARTx USART Instance
 589:Drivers/STM32F1xx_HAL_Driver/Inc/stm32f1xx_ll_usart.h ****   * @retval Returned value can be one of the following values:
 590:Drivers/STM32F1xx_HAL_Driver/Inc/stm32f1xx_ll_usart.h ****   *         @arg @ref LL_USART_WAKEUP_IDLELINE
 591:Drivers/STM32F1xx_HAL_Driver/Inc/stm32f1xx_ll_usart.h ****   *         @arg @ref LL_USART_WAKEUP_ADDRESSMARK
 592:Drivers/STM32F1xx_HAL_Driver/Inc/stm32f1xx_ll_usart.h ****   */
 593:Drivers/STM32F1xx_HAL_Driver/Inc/stm32f1xx_ll_usart.h **** __STATIC_INLINE uint32_t LL_USART_GetWakeUpMethod(USART_TypeDef *USARTx)
 594:Drivers/STM32F1xx_HAL_Driver/Inc/stm32f1xx_ll_usart.h **** {
 595:Drivers/STM32F1xx_HAL_Driver/Inc/stm32f1xx_ll_usart.h ****   return (uint32_t)(READ_BIT(USARTx->CR1, USART_CR1_WAKE));
 596:Drivers/STM32F1xx_HAL_Driver/Inc/stm32f1xx_ll_usart.h **** }
 597:Drivers/STM32F1xx_HAL_Driver/Inc/stm32f1xx_ll_usart.h **** 
 598:Drivers/STM32F1xx_HAL_Driver/Inc/stm32f1xx_ll_usart.h **** /**
 599:Drivers/STM32F1xx_HAL_Driver/Inc/stm32f1xx_ll_usart.h ****   * @brief  Set Word length (i.e. nb of data bits, excluding start and stop bits)
 600:Drivers/STM32F1xx_HAL_Driver/Inc/stm32f1xx_ll_usart.h ****   * @rmtoll CR1          M             LL_USART_SetDataWidth
 601:Drivers/STM32F1xx_HAL_Driver/Inc/stm32f1xx_ll_usart.h ****   * @param  USARTx USART Instance
 602:Drivers/STM32F1xx_HAL_Driver/Inc/stm32f1xx_ll_usart.h ****   * @param  DataWidth This parameter can be one of the following values:
 603:Drivers/STM32F1xx_HAL_Driver/Inc/stm32f1xx_ll_usart.h ****   *         @arg @ref LL_USART_DATAWIDTH_8B
 604:Drivers/STM32F1xx_HAL_Driver/Inc/stm32f1xx_ll_usart.h ****   *         @arg @ref LL_USART_DATAWIDTH_9B
 605:Drivers/STM32F1xx_HAL_Driver/Inc/stm32f1xx_ll_usart.h ****   * @retval None
 606:Drivers/STM32F1xx_HAL_Driver/Inc/stm32f1xx_ll_usart.h ****   */
 607:Drivers/STM32F1xx_HAL_Driver/Inc/stm32f1xx_ll_usart.h **** __STATIC_INLINE void LL_USART_SetDataWidth(USART_TypeDef *USARTx, uint32_t DataWidth)
 608:Drivers/STM32F1xx_HAL_Driver/Inc/stm32f1xx_ll_usart.h **** {
 609:Drivers/STM32F1xx_HAL_Driver/Inc/stm32f1xx_ll_usart.h ****   MODIFY_REG(USARTx->CR1, USART_CR1_M, DataWidth);
 610:Drivers/STM32F1xx_HAL_Driver/Inc/stm32f1xx_ll_usart.h **** }
 611:Drivers/STM32F1xx_HAL_Driver/Inc/stm32f1xx_ll_usart.h **** 
 612:Drivers/STM32F1xx_HAL_Driver/Inc/stm32f1xx_ll_usart.h **** /**
ARM GAS  /tmp/ccY3COIh.s 			page 13


 613:Drivers/STM32F1xx_HAL_Driver/Inc/stm32f1xx_ll_usart.h ****   * @brief  Return Word length (i.e. nb of data bits, excluding start and stop bits)
 614:Drivers/STM32F1xx_HAL_Driver/Inc/stm32f1xx_ll_usart.h ****   * @rmtoll CR1          M             LL_USART_GetDataWidth
 615:Drivers/STM32F1xx_HAL_Driver/Inc/stm32f1xx_ll_usart.h ****   * @param  USARTx USART Instance
 616:Drivers/STM32F1xx_HAL_Driver/Inc/stm32f1xx_ll_usart.h ****   * @retval Returned value can be one of the following values:
 617:Drivers/STM32F1xx_HAL_Driver/Inc/stm32f1xx_ll_usart.h ****   *         @arg @ref LL_USART_DATAWIDTH_8B
 618:Drivers/STM32F1xx_HAL_Driver/Inc/stm32f1xx_ll_usart.h ****   *         @arg @ref LL_USART_DATAWIDTH_9B
 619:Drivers/STM32F1xx_HAL_Driver/Inc/stm32f1xx_ll_usart.h ****   */
 620:Drivers/STM32F1xx_HAL_Driver/Inc/stm32f1xx_ll_usart.h **** __STATIC_INLINE uint32_t LL_USART_GetDataWidth(USART_TypeDef *USARTx)
 621:Drivers/STM32F1xx_HAL_Driver/Inc/stm32f1xx_ll_usart.h **** {
 622:Drivers/STM32F1xx_HAL_Driver/Inc/stm32f1xx_ll_usart.h ****   return (uint32_t)(READ_BIT(USARTx->CR1, USART_CR1_M));
 623:Drivers/STM32F1xx_HAL_Driver/Inc/stm32f1xx_ll_usart.h **** }
 624:Drivers/STM32F1xx_HAL_Driver/Inc/stm32f1xx_ll_usart.h **** 
 625:Drivers/STM32F1xx_HAL_Driver/Inc/stm32f1xx_ll_usart.h **** #if defined(USART_CR1_OVER8)
 626:Drivers/STM32F1xx_HAL_Driver/Inc/stm32f1xx_ll_usart.h **** /**
 627:Drivers/STM32F1xx_HAL_Driver/Inc/stm32f1xx_ll_usart.h ****   * @brief  Set Oversampling to 8-bit or 16-bit mode
 628:Drivers/STM32F1xx_HAL_Driver/Inc/stm32f1xx_ll_usart.h ****   * @rmtoll CR1          OVER8         LL_USART_SetOverSampling
 629:Drivers/STM32F1xx_HAL_Driver/Inc/stm32f1xx_ll_usart.h ****   * @param  USARTx USART Instance
 630:Drivers/STM32F1xx_HAL_Driver/Inc/stm32f1xx_ll_usart.h ****   * @param  OverSampling This parameter can be one of the following values:
 631:Drivers/STM32F1xx_HAL_Driver/Inc/stm32f1xx_ll_usart.h ****   *         @arg @ref LL_USART_OVERSAMPLING_16
 632:Drivers/STM32F1xx_HAL_Driver/Inc/stm32f1xx_ll_usart.h ****   *         @arg @ref LL_USART_OVERSAMPLING_8
 633:Drivers/STM32F1xx_HAL_Driver/Inc/stm32f1xx_ll_usart.h ****   * @retval None
 634:Drivers/STM32F1xx_HAL_Driver/Inc/stm32f1xx_ll_usart.h ****   */
 635:Drivers/STM32F1xx_HAL_Driver/Inc/stm32f1xx_ll_usart.h **** __STATIC_INLINE void LL_USART_SetOverSampling(USART_TypeDef *USARTx, uint32_t OverSampling)
 636:Drivers/STM32F1xx_HAL_Driver/Inc/stm32f1xx_ll_usart.h **** {
 637:Drivers/STM32F1xx_HAL_Driver/Inc/stm32f1xx_ll_usart.h ****   MODIFY_REG(USARTx->CR1, USART_CR1_OVER8, OverSampling);
 638:Drivers/STM32F1xx_HAL_Driver/Inc/stm32f1xx_ll_usart.h **** }
 639:Drivers/STM32F1xx_HAL_Driver/Inc/stm32f1xx_ll_usart.h **** 
 640:Drivers/STM32F1xx_HAL_Driver/Inc/stm32f1xx_ll_usart.h **** /**
 641:Drivers/STM32F1xx_HAL_Driver/Inc/stm32f1xx_ll_usart.h ****   * @brief  Return Oversampling mode
 642:Drivers/STM32F1xx_HAL_Driver/Inc/stm32f1xx_ll_usart.h ****   * @rmtoll CR1          OVER8         LL_USART_GetOverSampling
 643:Drivers/STM32F1xx_HAL_Driver/Inc/stm32f1xx_ll_usart.h ****   * @param  USARTx USART Instance
 644:Drivers/STM32F1xx_HAL_Driver/Inc/stm32f1xx_ll_usart.h ****   * @retval Returned value can be one of the following values:
 645:Drivers/STM32F1xx_HAL_Driver/Inc/stm32f1xx_ll_usart.h ****   *         @arg @ref LL_USART_OVERSAMPLING_16
 646:Drivers/STM32F1xx_HAL_Driver/Inc/stm32f1xx_ll_usart.h ****   *         @arg @ref LL_USART_OVERSAMPLING_8
 647:Drivers/STM32F1xx_HAL_Driver/Inc/stm32f1xx_ll_usart.h ****   */
 648:Drivers/STM32F1xx_HAL_Driver/Inc/stm32f1xx_ll_usart.h **** __STATIC_INLINE uint32_t LL_USART_GetOverSampling(USART_TypeDef *USARTx)
 649:Drivers/STM32F1xx_HAL_Driver/Inc/stm32f1xx_ll_usart.h **** {
 650:Drivers/STM32F1xx_HAL_Driver/Inc/stm32f1xx_ll_usart.h ****   return (uint32_t)(READ_BIT(USARTx->CR1, USART_CR1_OVER8));
 651:Drivers/STM32F1xx_HAL_Driver/Inc/stm32f1xx_ll_usart.h **** }
 652:Drivers/STM32F1xx_HAL_Driver/Inc/stm32f1xx_ll_usart.h **** 
 653:Drivers/STM32F1xx_HAL_Driver/Inc/stm32f1xx_ll_usart.h **** #endif /* USART_OverSampling_Feature */
 654:Drivers/STM32F1xx_HAL_Driver/Inc/stm32f1xx_ll_usart.h **** /**
 655:Drivers/STM32F1xx_HAL_Driver/Inc/stm32f1xx_ll_usart.h ****   * @brief  Configure if Clock pulse of the last data bit is output to the SCLK pin or not
 656:Drivers/STM32F1xx_HAL_Driver/Inc/stm32f1xx_ll_usart.h ****   * @note   Macro @ref IS_USART_INSTANCE(USARTx) can be used to check whether or not
 657:Drivers/STM32F1xx_HAL_Driver/Inc/stm32f1xx_ll_usart.h ****   *         Synchronous mode is supported by the USARTx instance.
 658:Drivers/STM32F1xx_HAL_Driver/Inc/stm32f1xx_ll_usart.h ****   * @rmtoll CR2          LBCL          LL_USART_SetLastClkPulseOutput
 659:Drivers/STM32F1xx_HAL_Driver/Inc/stm32f1xx_ll_usart.h ****   * @param  USARTx USART Instance
 660:Drivers/STM32F1xx_HAL_Driver/Inc/stm32f1xx_ll_usart.h ****   * @param  LastBitClockPulse This parameter can be one of the following values:
 661:Drivers/STM32F1xx_HAL_Driver/Inc/stm32f1xx_ll_usart.h ****   *         @arg @ref LL_USART_LASTCLKPULSE_NO_OUTPUT
 662:Drivers/STM32F1xx_HAL_Driver/Inc/stm32f1xx_ll_usart.h ****   *         @arg @ref LL_USART_LASTCLKPULSE_OUTPUT
 663:Drivers/STM32F1xx_HAL_Driver/Inc/stm32f1xx_ll_usart.h ****   * @retval None
 664:Drivers/STM32F1xx_HAL_Driver/Inc/stm32f1xx_ll_usart.h ****   */
 665:Drivers/STM32F1xx_HAL_Driver/Inc/stm32f1xx_ll_usart.h **** __STATIC_INLINE void LL_USART_SetLastClkPulseOutput(USART_TypeDef *USARTx, uint32_t LastBitClockPul
 666:Drivers/STM32F1xx_HAL_Driver/Inc/stm32f1xx_ll_usart.h **** {
 667:Drivers/STM32F1xx_HAL_Driver/Inc/stm32f1xx_ll_usart.h ****   MODIFY_REG(USARTx->CR2, USART_CR2_LBCL, LastBitClockPulse);
 668:Drivers/STM32F1xx_HAL_Driver/Inc/stm32f1xx_ll_usart.h **** }
 669:Drivers/STM32F1xx_HAL_Driver/Inc/stm32f1xx_ll_usart.h **** 
ARM GAS  /tmp/ccY3COIh.s 			page 14


 670:Drivers/STM32F1xx_HAL_Driver/Inc/stm32f1xx_ll_usart.h **** /**
 671:Drivers/STM32F1xx_HAL_Driver/Inc/stm32f1xx_ll_usart.h ****   * @brief  Retrieve Clock pulse of the last data bit output configuration
 672:Drivers/STM32F1xx_HAL_Driver/Inc/stm32f1xx_ll_usart.h ****   *         (Last bit Clock pulse output to the SCLK pin or not)
 673:Drivers/STM32F1xx_HAL_Driver/Inc/stm32f1xx_ll_usart.h ****   * @note   Macro @ref IS_USART_INSTANCE(USARTx) can be used to check whether or not
 674:Drivers/STM32F1xx_HAL_Driver/Inc/stm32f1xx_ll_usart.h ****   *         Synchronous mode is supported by the USARTx instance.
 675:Drivers/STM32F1xx_HAL_Driver/Inc/stm32f1xx_ll_usart.h ****   * @rmtoll CR2          LBCL          LL_USART_GetLastClkPulseOutput
 676:Drivers/STM32F1xx_HAL_Driver/Inc/stm32f1xx_ll_usart.h ****   * @param  USARTx USART Instance
 677:Drivers/STM32F1xx_HAL_Driver/Inc/stm32f1xx_ll_usart.h ****   * @retval Returned value can be one of the following values:
 678:Drivers/STM32F1xx_HAL_Driver/Inc/stm32f1xx_ll_usart.h ****   *         @arg @ref LL_USART_LASTCLKPULSE_NO_OUTPUT
 679:Drivers/STM32F1xx_HAL_Driver/Inc/stm32f1xx_ll_usart.h ****   *         @arg @ref LL_USART_LASTCLKPULSE_OUTPUT
 680:Drivers/STM32F1xx_HAL_Driver/Inc/stm32f1xx_ll_usart.h ****   */
 681:Drivers/STM32F1xx_HAL_Driver/Inc/stm32f1xx_ll_usart.h **** __STATIC_INLINE uint32_t LL_USART_GetLastClkPulseOutput(USART_TypeDef *USARTx)
 682:Drivers/STM32F1xx_HAL_Driver/Inc/stm32f1xx_ll_usart.h **** {
 683:Drivers/STM32F1xx_HAL_Driver/Inc/stm32f1xx_ll_usart.h ****   return (uint32_t)(READ_BIT(USARTx->CR2, USART_CR2_LBCL));
 684:Drivers/STM32F1xx_HAL_Driver/Inc/stm32f1xx_ll_usart.h **** }
 685:Drivers/STM32F1xx_HAL_Driver/Inc/stm32f1xx_ll_usart.h **** 
 686:Drivers/STM32F1xx_HAL_Driver/Inc/stm32f1xx_ll_usart.h **** /**
 687:Drivers/STM32F1xx_HAL_Driver/Inc/stm32f1xx_ll_usart.h ****   * @brief  Select the phase of the clock output on the SCLK pin in synchronous mode
 688:Drivers/STM32F1xx_HAL_Driver/Inc/stm32f1xx_ll_usart.h ****   * @note   Macro @ref IS_USART_INSTANCE(USARTx) can be used to check whether or not
 689:Drivers/STM32F1xx_HAL_Driver/Inc/stm32f1xx_ll_usart.h ****   *         Synchronous mode is supported by the USARTx instance.
 690:Drivers/STM32F1xx_HAL_Driver/Inc/stm32f1xx_ll_usart.h ****   * @rmtoll CR2          CPHA          LL_USART_SetClockPhase
 691:Drivers/STM32F1xx_HAL_Driver/Inc/stm32f1xx_ll_usart.h ****   * @param  USARTx USART Instance
 692:Drivers/STM32F1xx_HAL_Driver/Inc/stm32f1xx_ll_usart.h ****   * @param  ClockPhase This parameter can be one of the following values:
 693:Drivers/STM32F1xx_HAL_Driver/Inc/stm32f1xx_ll_usart.h ****   *         @arg @ref LL_USART_PHASE_1EDGE
 694:Drivers/STM32F1xx_HAL_Driver/Inc/stm32f1xx_ll_usart.h ****   *         @arg @ref LL_USART_PHASE_2EDGE
 695:Drivers/STM32F1xx_HAL_Driver/Inc/stm32f1xx_ll_usart.h ****   * @retval None
 696:Drivers/STM32F1xx_HAL_Driver/Inc/stm32f1xx_ll_usart.h ****   */
 697:Drivers/STM32F1xx_HAL_Driver/Inc/stm32f1xx_ll_usart.h **** __STATIC_INLINE void LL_USART_SetClockPhase(USART_TypeDef *USARTx, uint32_t ClockPhase)
 698:Drivers/STM32F1xx_HAL_Driver/Inc/stm32f1xx_ll_usart.h **** {
 699:Drivers/STM32F1xx_HAL_Driver/Inc/stm32f1xx_ll_usart.h ****   MODIFY_REG(USARTx->CR2, USART_CR2_CPHA, ClockPhase);
 700:Drivers/STM32F1xx_HAL_Driver/Inc/stm32f1xx_ll_usart.h **** }
 701:Drivers/STM32F1xx_HAL_Driver/Inc/stm32f1xx_ll_usart.h **** 
 702:Drivers/STM32F1xx_HAL_Driver/Inc/stm32f1xx_ll_usart.h **** /**
 703:Drivers/STM32F1xx_HAL_Driver/Inc/stm32f1xx_ll_usart.h ****   * @brief  Return phase of the clock output on the SCLK pin in synchronous mode
 704:Drivers/STM32F1xx_HAL_Driver/Inc/stm32f1xx_ll_usart.h ****   * @note   Macro @ref IS_USART_INSTANCE(USARTx) can be used to check whether or not
 705:Drivers/STM32F1xx_HAL_Driver/Inc/stm32f1xx_ll_usart.h ****   *         Synchronous mode is supported by the USARTx instance.
 706:Drivers/STM32F1xx_HAL_Driver/Inc/stm32f1xx_ll_usart.h ****   * @rmtoll CR2          CPHA          LL_USART_GetClockPhase
 707:Drivers/STM32F1xx_HAL_Driver/Inc/stm32f1xx_ll_usart.h ****   * @param  USARTx USART Instance
 708:Drivers/STM32F1xx_HAL_Driver/Inc/stm32f1xx_ll_usart.h ****   * @retval Returned value can be one of the following values:
 709:Drivers/STM32F1xx_HAL_Driver/Inc/stm32f1xx_ll_usart.h ****   *         @arg @ref LL_USART_PHASE_1EDGE
 710:Drivers/STM32F1xx_HAL_Driver/Inc/stm32f1xx_ll_usart.h ****   *         @arg @ref LL_USART_PHASE_2EDGE
 711:Drivers/STM32F1xx_HAL_Driver/Inc/stm32f1xx_ll_usart.h ****   */
 712:Drivers/STM32F1xx_HAL_Driver/Inc/stm32f1xx_ll_usart.h **** __STATIC_INLINE uint32_t LL_USART_GetClockPhase(USART_TypeDef *USARTx)
 713:Drivers/STM32F1xx_HAL_Driver/Inc/stm32f1xx_ll_usart.h **** {
 714:Drivers/STM32F1xx_HAL_Driver/Inc/stm32f1xx_ll_usart.h ****   return (uint32_t)(READ_BIT(USARTx->CR2, USART_CR2_CPHA));
 715:Drivers/STM32F1xx_HAL_Driver/Inc/stm32f1xx_ll_usart.h **** }
 716:Drivers/STM32F1xx_HAL_Driver/Inc/stm32f1xx_ll_usart.h **** 
 717:Drivers/STM32F1xx_HAL_Driver/Inc/stm32f1xx_ll_usart.h **** /**
 718:Drivers/STM32F1xx_HAL_Driver/Inc/stm32f1xx_ll_usart.h ****   * @brief  Select the polarity of the clock output on the SCLK pin in synchronous mode
 719:Drivers/STM32F1xx_HAL_Driver/Inc/stm32f1xx_ll_usart.h ****   * @note   Macro @ref IS_USART_INSTANCE(USARTx) can be used to check whether or not
 720:Drivers/STM32F1xx_HAL_Driver/Inc/stm32f1xx_ll_usart.h ****   *         Synchronous mode is supported by the USARTx instance.
 721:Drivers/STM32F1xx_HAL_Driver/Inc/stm32f1xx_ll_usart.h ****   * @rmtoll CR2          CPOL          LL_USART_SetClockPolarity
 722:Drivers/STM32F1xx_HAL_Driver/Inc/stm32f1xx_ll_usart.h ****   * @param  USARTx USART Instance
 723:Drivers/STM32F1xx_HAL_Driver/Inc/stm32f1xx_ll_usart.h ****   * @param  ClockPolarity This parameter can be one of the following values:
 724:Drivers/STM32F1xx_HAL_Driver/Inc/stm32f1xx_ll_usart.h ****   *         @arg @ref LL_USART_POLARITY_LOW
 725:Drivers/STM32F1xx_HAL_Driver/Inc/stm32f1xx_ll_usart.h ****   *         @arg @ref LL_USART_POLARITY_HIGH
 726:Drivers/STM32F1xx_HAL_Driver/Inc/stm32f1xx_ll_usart.h ****   * @retval None
ARM GAS  /tmp/ccY3COIh.s 			page 15


 727:Drivers/STM32F1xx_HAL_Driver/Inc/stm32f1xx_ll_usart.h ****   */
 728:Drivers/STM32F1xx_HAL_Driver/Inc/stm32f1xx_ll_usart.h **** __STATIC_INLINE void LL_USART_SetClockPolarity(USART_TypeDef *USARTx, uint32_t ClockPolarity)
 729:Drivers/STM32F1xx_HAL_Driver/Inc/stm32f1xx_ll_usart.h **** {
 730:Drivers/STM32F1xx_HAL_Driver/Inc/stm32f1xx_ll_usart.h ****   MODIFY_REG(USARTx->CR2, USART_CR2_CPOL, ClockPolarity);
 731:Drivers/STM32F1xx_HAL_Driver/Inc/stm32f1xx_ll_usart.h **** }
 732:Drivers/STM32F1xx_HAL_Driver/Inc/stm32f1xx_ll_usart.h **** 
 733:Drivers/STM32F1xx_HAL_Driver/Inc/stm32f1xx_ll_usart.h **** /**
 734:Drivers/STM32F1xx_HAL_Driver/Inc/stm32f1xx_ll_usart.h ****   * @brief  Return polarity of the clock output on the SCLK pin in synchronous mode
 735:Drivers/STM32F1xx_HAL_Driver/Inc/stm32f1xx_ll_usart.h ****   * @note   Macro @ref IS_USART_INSTANCE(USARTx) can be used to check whether or not
 736:Drivers/STM32F1xx_HAL_Driver/Inc/stm32f1xx_ll_usart.h ****   *         Synchronous mode is supported by the USARTx instance.
 737:Drivers/STM32F1xx_HAL_Driver/Inc/stm32f1xx_ll_usart.h ****   * @rmtoll CR2          CPOL          LL_USART_GetClockPolarity
 738:Drivers/STM32F1xx_HAL_Driver/Inc/stm32f1xx_ll_usart.h ****   * @param  USARTx USART Instance
 739:Drivers/STM32F1xx_HAL_Driver/Inc/stm32f1xx_ll_usart.h ****   * @retval Returned value can be one of the following values:
 740:Drivers/STM32F1xx_HAL_Driver/Inc/stm32f1xx_ll_usart.h ****   *         @arg @ref LL_USART_POLARITY_LOW
 741:Drivers/STM32F1xx_HAL_Driver/Inc/stm32f1xx_ll_usart.h ****   *         @arg @ref LL_USART_POLARITY_HIGH
 742:Drivers/STM32F1xx_HAL_Driver/Inc/stm32f1xx_ll_usart.h ****   */
 743:Drivers/STM32F1xx_HAL_Driver/Inc/stm32f1xx_ll_usart.h **** __STATIC_INLINE uint32_t LL_USART_GetClockPolarity(USART_TypeDef *USARTx)
 744:Drivers/STM32F1xx_HAL_Driver/Inc/stm32f1xx_ll_usart.h **** {
 745:Drivers/STM32F1xx_HAL_Driver/Inc/stm32f1xx_ll_usart.h ****   return (uint32_t)(READ_BIT(USARTx->CR2, USART_CR2_CPOL));
 746:Drivers/STM32F1xx_HAL_Driver/Inc/stm32f1xx_ll_usart.h **** }
 747:Drivers/STM32F1xx_HAL_Driver/Inc/stm32f1xx_ll_usart.h **** 
 748:Drivers/STM32F1xx_HAL_Driver/Inc/stm32f1xx_ll_usart.h **** /**
 749:Drivers/STM32F1xx_HAL_Driver/Inc/stm32f1xx_ll_usart.h ****   * @brief  Configure Clock signal format (Phase Polarity and choice about output of last bit clock
 750:Drivers/STM32F1xx_HAL_Driver/Inc/stm32f1xx_ll_usart.h ****   * @note   Macro @ref IS_USART_INSTANCE(USARTx) can be used to check whether or not
 751:Drivers/STM32F1xx_HAL_Driver/Inc/stm32f1xx_ll_usart.h ****   *         Synchronous mode is supported by the USARTx instance.
 752:Drivers/STM32F1xx_HAL_Driver/Inc/stm32f1xx_ll_usart.h ****   * @note   Call of this function is equivalent to following function call sequence :
 753:Drivers/STM32F1xx_HAL_Driver/Inc/stm32f1xx_ll_usart.h ****   *         - Clock Phase configuration using @ref LL_USART_SetClockPhase() function
 754:Drivers/STM32F1xx_HAL_Driver/Inc/stm32f1xx_ll_usart.h ****   *         - Clock Polarity configuration using @ref LL_USART_SetClockPolarity() function
 755:Drivers/STM32F1xx_HAL_Driver/Inc/stm32f1xx_ll_usart.h ****   *         - Output of Last bit Clock pulse configuration using @ref LL_USART_SetLastClkPulseOutpu
 756:Drivers/STM32F1xx_HAL_Driver/Inc/stm32f1xx_ll_usart.h ****   * @rmtoll CR2          CPHA          LL_USART_ConfigClock\n
 757:Drivers/STM32F1xx_HAL_Driver/Inc/stm32f1xx_ll_usart.h ****   *         CR2          CPOL          LL_USART_ConfigClock\n
 758:Drivers/STM32F1xx_HAL_Driver/Inc/stm32f1xx_ll_usart.h ****   *         CR2          LBCL          LL_USART_ConfigClock
 759:Drivers/STM32F1xx_HAL_Driver/Inc/stm32f1xx_ll_usart.h ****   * @param  USARTx USART Instance
 760:Drivers/STM32F1xx_HAL_Driver/Inc/stm32f1xx_ll_usart.h ****   * @param  Phase This parameter can be one of the following values:
 761:Drivers/STM32F1xx_HAL_Driver/Inc/stm32f1xx_ll_usart.h ****   *         @arg @ref LL_USART_PHASE_1EDGE
 762:Drivers/STM32F1xx_HAL_Driver/Inc/stm32f1xx_ll_usart.h ****   *         @arg @ref LL_USART_PHASE_2EDGE
 763:Drivers/STM32F1xx_HAL_Driver/Inc/stm32f1xx_ll_usart.h ****   * @param  Polarity This parameter can be one of the following values:
 764:Drivers/STM32F1xx_HAL_Driver/Inc/stm32f1xx_ll_usart.h ****   *         @arg @ref LL_USART_POLARITY_LOW
 765:Drivers/STM32F1xx_HAL_Driver/Inc/stm32f1xx_ll_usart.h ****   *         @arg @ref LL_USART_POLARITY_HIGH
 766:Drivers/STM32F1xx_HAL_Driver/Inc/stm32f1xx_ll_usart.h ****   * @param  LBCPOutput This parameter can be one of the following values:
 767:Drivers/STM32F1xx_HAL_Driver/Inc/stm32f1xx_ll_usart.h ****   *         @arg @ref LL_USART_LASTCLKPULSE_NO_OUTPUT
 768:Drivers/STM32F1xx_HAL_Driver/Inc/stm32f1xx_ll_usart.h ****   *         @arg @ref LL_USART_LASTCLKPULSE_OUTPUT
 769:Drivers/STM32F1xx_HAL_Driver/Inc/stm32f1xx_ll_usart.h ****   * @retval None
 770:Drivers/STM32F1xx_HAL_Driver/Inc/stm32f1xx_ll_usart.h ****   */
 771:Drivers/STM32F1xx_HAL_Driver/Inc/stm32f1xx_ll_usart.h **** __STATIC_INLINE void LL_USART_ConfigClock(USART_TypeDef *USARTx, uint32_t Phase, uint32_t Polarity,
 772:Drivers/STM32F1xx_HAL_Driver/Inc/stm32f1xx_ll_usart.h **** {
 773:Drivers/STM32F1xx_HAL_Driver/Inc/stm32f1xx_ll_usart.h ****   MODIFY_REG(USARTx->CR2, USART_CR2_CPHA | USART_CR2_CPOL | USART_CR2_LBCL, Phase | Polarity | LBCP
 774:Drivers/STM32F1xx_HAL_Driver/Inc/stm32f1xx_ll_usart.h **** }
 775:Drivers/STM32F1xx_HAL_Driver/Inc/stm32f1xx_ll_usart.h **** 
 776:Drivers/STM32F1xx_HAL_Driver/Inc/stm32f1xx_ll_usart.h **** /**
 777:Drivers/STM32F1xx_HAL_Driver/Inc/stm32f1xx_ll_usart.h ****   * @brief  Enable Clock output on SCLK pin
 778:Drivers/STM32F1xx_HAL_Driver/Inc/stm32f1xx_ll_usart.h ****   * @note   Macro @ref IS_USART_INSTANCE(USARTx) can be used to check whether or not
 779:Drivers/STM32F1xx_HAL_Driver/Inc/stm32f1xx_ll_usart.h ****   *         Synchronous mode is supported by the USARTx instance.
 780:Drivers/STM32F1xx_HAL_Driver/Inc/stm32f1xx_ll_usart.h ****   * @rmtoll CR2          CLKEN         LL_USART_EnableSCLKOutput
 781:Drivers/STM32F1xx_HAL_Driver/Inc/stm32f1xx_ll_usart.h ****   * @param  USARTx USART Instance
 782:Drivers/STM32F1xx_HAL_Driver/Inc/stm32f1xx_ll_usart.h ****   * @retval None
 783:Drivers/STM32F1xx_HAL_Driver/Inc/stm32f1xx_ll_usart.h ****   */
ARM GAS  /tmp/ccY3COIh.s 			page 16


 784:Drivers/STM32F1xx_HAL_Driver/Inc/stm32f1xx_ll_usart.h **** __STATIC_INLINE void LL_USART_EnableSCLKOutput(USART_TypeDef *USARTx)
 785:Drivers/STM32F1xx_HAL_Driver/Inc/stm32f1xx_ll_usart.h **** {
 786:Drivers/STM32F1xx_HAL_Driver/Inc/stm32f1xx_ll_usart.h ****   SET_BIT(USARTx->CR2, USART_CR2_CLKEN);
 787:Drivers/STM32F1xx_HAL_Driver/Inc/stm32f1xx_ll_usart.h **** }
 788:Drivers/STM32F1xx_HAL_Driver/Inc/stm32f1xx_ll_usart.h **** 
 789:Drivers/STM32F1xx_HAL_Driver/Inc/stm32f1xx_ll_usart.h **** /**
 790:Drivers/STM32F1xx_HAL_Driver/Inc/stm32f1xx_ll_usart.h ****   * @brief  Disable Clock output on SCLK pin
 791:Drivers/STM32F1xx_HAL_Driver/Inc/stm32f1xx_ll_usart.h ****   * @note   Macro @ref IS_USART_INSTANCE(USARTx) can be used to check whether or not
 792:Drivers/STM32F1xx_HAL_Driver/Inc/stm32f1xx_ll_usart.h ****   *         Synchronous mode is supported by the USARTx instance.
 793:Drivers/STM32F1xx_HAL_Driver/Inc/stm32f1xx_ll_usart.h ****   * @rmtoll CR2          CLKEN         LL_USART_DisableSCLKOutput
 794:Drivers/STM32F1xx_HAL_Driver/Inc/stm32f1xx_ll_usart.h ****   * @param  USARTx USART Instance
 795:Drivers/STM32F1xx_HAL_Driver/Inc/stm32f1xx_ll_usart.h ****   * @retval None
 796:Drivers/STM32F1xx_HAL_Driver/Inc/stm32f1xx_ll_usart.h ****   */
 797:Drivers/STM32F1xx_HAL_Driver/Inc/stm32f1xx_ll_usart.h **** __STATIC_INLINE void LL_USART_DisableSCLKOutput(USART_TypeDef *USARTx)
 798:Drivers/STM32F1xx_HAL_Driver/Inc/stm32f1xx_ll_usart.h **** {
  76              		.loc 1 798 0
  77              		.cfi_startproc
  78              		@ args = 0, pretend = 0, frame = 8
  79              		@ frame_needed = 1, uses_anonymous_args = 0
  80              		@ link register save eliminated.
  81 0000 80B4     		push	{r7}
  82              	.LCFI6:
  83              		.cfi_def_cfa_offset 4
  84              		.cfi_offset 7, -4
  85 0002 83B0     		sub	sp, sp, #12
  86              	.LCFI7:
  87              		.cfi_def_cfa_offset 16
  88 0004 00AF     		add	r7, sp, #0
  89              	.LCFI8:
  90              		.cfi_def_cfa_register 7
  91 0006 7860     		str	r0, [r7, #4]
 799:Drivers/STM32F1xx_HAL_Driver/Inc/stm32f1xx_ll_usart.h ****   CLEAR_BIT(USARTx->CR2, USART_CR2_CLKEN);
  92              		.loc 1 799 0
  93 0008 7B68     		ldr	r3, [r7, #4]
  94 000a 1B69     		ldr	r3, [r3, #16]
  95 000c 23F40062 		bic	r2, r3, #2048
  96 0010 7B68     		ldr	r3, [r7, #4]
  97 0012 1A61     		str	r2, [r3, #16]
 800:Drivers/STM32F1xx_HAL_Driver/Inc/stm32f1xx_ll_usart.h **** }
  98              		.loc 1 800 0
  99 0014 00BF     		nop
 100 0016 0C37     		adds	r7, r7, #12
 101              	.LCFI9:
 102              		.cfi_def_cfa_offset 4
 103 0018 BD46     		mov	sp, r7
 104              	.LCFI10:
 105              		.cfi_def_cfa_register 13
 106              		@ sp needed
 107 001a 80BC     		pop	{r7}
 108              	.LCFI11:
 109              		.cfi_restore 7
 110              		.cfi_def_cfa_offset 0
 111 001c 7047     		bx	lr
 112              		.cfi_endproc
 113              	.LFE86:
 115              		.section	.text.LL_USART_SetStopBitsLength,"ax",%progbits
 116              		.align	1
ARM GAS  /tmp/ccY3COIh.s 			page 17


 117              		.syntax unified
 118              		.thumb
 119              		.thumb_func
 120              		.fpu softvfp
 122              	LL_USART_SetStopBitsLength:
 123              	.LFB88:
 801:Drivers/STM32F1xx_HAL_Driver/Inc/stm32f1xx_ll_usart.h **** 
 802:Drivers/STM32F1xx_HAL_Driver/Inc/stm32f1xx_ll_usart.h **** /**
 803:Drivers/STM32F1xx_HAL_Driver/Inc/stm32f1xx_ll_usart.h ****   * @brief  Indicate if Clock output on SCLK pin is enabled
 804:Drivers/STM32F1xx_HAL_Driver/Inc/stm32f1xx_ll_usart.h ****   * @note   Macro @ref IS_USART_INSTANCE(USARTx) can be used to check whether or not
 805:Drivers/STM32F1xx_HAL_Driver/Inc/stm32f1xx_ll_usart.h ****   *         Synchronous mode is supported by the USARTx instance.
 806:Drivers/STM32F1xx_HAL_Driver/Inc/stm32f1xx_ll_usart.h ****   * @rmtoll CR2          CLKEN         LL_USART_IsEnabledSCLKOutput
 807:Drivers/STM32F1xx_HAL_Driver/Inc/stm32f1xx_ll_usart.h ****   * @param  USARTx USART Instance
 808:Drivers/STM32F1xx_HAL_Driver/Inc/stm32f1xx_ll_usart.h ****   * @retval State of bit (1 or 0).
 809:Drivers/STM32F1xx_HAL_Driver/Inc/stm32f1xx_ll_usart.h ****   */
 810:Drivers/STM32F1xx_HAL_Driver/Inc/stm32f1xx_ll_usart.h **** __STATIC_INLINE uint32_t LL_USART_IsEnabledSCLKOutput(USART_TypeDef *USARTx)
 811:Drivers/STM32F1xx_HAL_Driver/Inc/stm32f1xx_ll_usart.h **** {
 812:Drivers/STM32F1xx_HAL_Driver/Inc/stm32f1xx_ll_usart.h ****   return (READ_BIT(USARTx->CR2, USART_CR2_CLKEN) == (USART_CR2_CLKEN));
 813:Drivers/STM32F1xx_HAL_Driver/Inc/stm32f1xx_ll_usart.h **** }
 814:Drivers/STM32F1xx_HAL_Driver/Inc/stm32f1xx_ll_usart.h **** 
 815:Drivers/STM32F1xx_HAL_Driver/Inc/stm32f1xx_ll_usart.h **** /**
 816:Drivers/STM32F1xx_HAL_Driver/Inc/stm32f1xx_ll_usart.h ****   * @brief  Set the length of the stop bits
 817:Drivers/STM32F1xx_HAL_Driver/Inc/stm32f1xx_ll_usart.h ****   * @rmtoll CR2          STOP          LL_USART_SetStopBitsLength
 818:Drivers/STM32F1xx_HAL_Driver/Inc/stm32f1xx_ll_usart.h ****   * @param  USARTx USART Instance
 819:Drivers/STM32F1xx_HAL_Driver/Inc/stm32f1xx_ll_usart.h ****   * @param  StopBits This parameter can be one of the following values:
 820:Drivers/STM32F1xx_HAL_Driver/Inc/stm32f1xx_ll_usart.h ****   *         @arg @ref LL_USART_STOPBITS_0_5
 821:Drivers/STM32F1xx_HAL_Driver/Inc/stm32f1xx_ll_usart.h ****   *         @arg @ref LL_USART_STOPBITS_1
 822:Drivers/STM32F1xx_HAL_Driver/Inc/stm32f1xx_ll_usart.h ****   *         @arg @ref LL_USART_STOPBITS_1_5
 823:Drivers/STM32F1xx_HAL_Driver/Inc/stm32f1xx_ll_usart.h ****   *         @arg @ref LL_USART_STOPBITS_2
 824:Drivers/STM32F1xx_HAL_Driver/Inc/stm32f1xx_ll_usart.h ****   * @retval None
 825:Drivers/STM32F1xx_HAL_Driver/Inc/stm32f1xx_ll_usart.h ****   */
 826:Drivers/STM32F1xx_HAL_Driver/Inc/stm32f1xx_ll_usart.h **** __STATIC_INLINE void LL_USART_SetStopBitsLength(USART_TypeDef *USARTx, uint32_t StopBits)
 827:Drivers/STM32F1xx_HAL_Driver/Inc/stm32f1xx_ll_usart.h **** {
 124              		.loc 1 827 0
 125              		.cfi_startproc
 126              		@ args = 0, pretend = 0, frame = 8
 127              		@ frame_needed = 1, uses_anonymous_args = 0
 128              		@ link register save eliminated.
 129 0000 80B4     		push	{r7}
 130              	.LCFI12:
 131              		.cfi_def_cfa_offset 4
 132              		.cfi_offset 7, -4
 133 0002 83B0     		sub	sp, sp, #12
 134              	.LCFI13:
 135              		.cfi_def_cfa_offset 16
 136 0004 00AF     		add	r7, sp, #0
 137              	.LCFI14:
 138              		.cfi_def_cfa_register 7
 139 0006 7860     		str	r0, [r7, #4]
 140 0008 3960     		str	r1, [r7]
 828:Drivers/STM32F1xx_HAL_Driver/Inc/stm32f1xx_ll_usart.h ****   MODIFY_REG(USARTx->CR2, USART_CR2_STOP, StopBits);
 141              		.loc 1 828 0
 142 000a 7B68     		ldr	r3, [r7, #4]
 143 000c 1B69     		ldr	r3, [r3, #16]
 144 000e 23F44052 		bic	r2, r3, #12288
 145 0012 3B68     		ldr	r3, [r7]
 146 0014 1A43     		orrs	r2, r2, r3
ARM GAS  /tmp/ccY3COIh.s 			page 18


 147 0016 7B68     		ldr	r3, [r7, #4]
 148 0018 1A61     		str	r2, [r3, #16]
 829:Drivers/STM32F1xx_HAL_Driver/Inc/stm32f1xx_ll_usart.h **** }
 149              		.loc 1 829 0
 150 001a 00BF     		nop
 151 001c 0C37     		adds	r7, r7, #12
 152              	.LCFI15:
 153              		.cfi_def_cfa_offset 4
 154 001e BD46     		mov	sp, r7
 155              	.LCFI16:
 156              		.cfi_def_cfa_register 13
 157              		@ sp needed
 158 0020 80BC     		pop	{r7}
 159              	.LCFI17:
 160              		.cfi_restore 7
 161              		.cfi_def_cfa_offset 0
 162 0022 7047     		bx	lr
 163              		.cfi_endproc
 164              	.LFE88:
 166              		.section	.text.LL_USART_SetHWFlowCtrl,"ax",%progbits
 167              		.align	1
 168              		.syntax unified
 169              		.thumb
 170              		.thumb_func
 171              		.fpu softvfp
 173              	LL_USART_SetHWFlowCtrl:
 174              	.LFB97:
 830:Drivers/STM32F1xx_HAL_Driver/Inc/stm32f1xx_ll_usart.h **** 
 831:Drivers/STM32F1xx_HAL_Driver/Inc/stm32f1xx_ll_usart.h **** /**
 832:Drivers/STM32F1xx_HAL_Driver/Inc/stm32f1xx_ll_usart.h ****   * @brief  Retrieve the length of the stop bits
 833:Drivers/STM32F1xx_HAL_Driver/Inc/stm32f1xx_ll_usart.h ****   * @rmtoll CR2          STOP          LL_USART_GetStopBitsLength
 834:Drivers/STM32F1xx_HAL_Driver/Inc/stm32f1xx_ll_usart.h ****   * @param  USARTx USART Instance
 835:Drivers/STM32F1xx_HAL_Driver/Inc/stm32f1xx_ll_usart.h ****   * @retval Returned value can be one of the following values:
 836:Drivers/STM32F1xx_HAL_Driver/Inc/stm32f1xx_ll_usart.h ****   *         @arg @ref LL_USART_STOPBITS_0_5
 837:Drivers/STM32F1xx_HAL_Driver/Inc/stm32f1xx_ll_usart.h ****   *         @arg @ref LL_USART_STOPBITS_1
 838:Drivers/STM32F1xx_HAL_Driver/Inc/stm32f1xx_ll_usart.h ****   *         @arg @ref LL_USART_STOPBITS_1_5
 839:Drivers/STM32F1xx_HAL_Driver/Inc/stm32f1xx_ll_usart.h ****   *         @arg @ref LL_USART_STOPBITS_2
 840:Drivers/STM32F1xx_HAL_Driver/Inc/stm32f1xx_ll_usart.h ****   */
 841:Drivers/STM32F1xx_HAL_Driver/Inc/stm32f1xx_ll_usart.h **** __STATIC_INLINE uint32_t LL_USART_GetStopBitsLength(USART_TypeDef *USARTx)
 842:Drivers/STM32F1xx_HAL_Driver/Inc/stm32f1xx_ll_usart.h **** {
 843:Drivers/STM32F1xx_HAL_Driver/Inc/stm32f1xx_ll_usart.h ****   return (uint32_t)(READ_BIT(USARTx->CR2, USART_CR2_STOP));
 844:Drivers/STM32F1xx_HAL_Driver/Inc/stm32f1xx_ll_usart.h **** }
 845:Drivers/STM32F1xx_HAL_Driver/Inc/stm32f1xx_ll_usart.h **** 
 846:Drivers/STM32F1xx_HAL_Driver/Inc/stm32f1xx_ll_usart.h **** /**
 847:Drivers/STM32F1xx_HAL_Driver/Inc/stm32f1xx_ll_usart.h ****   * @brief  Configure Character frame format (Datawidth, Parity control, Stop Bits)
 848:Drivers/STM32F1xx_HAL_Driver/Inc/stm32f1xx_ll_usart.h ****   * @note   Call of this function is equivalent to following function call sequence :
 849:Drivers/STM32F1xx_HAL_Driver/Inc/stm32f1xx_ll_usart.h ****   *         - Data Width configuration using @ref LL_USART_SetDataWidth() function
 850:Drivers/STM32F1xx_HAL_Driver/Inc/stm32f1xx_ll_usart.h ****   *         - Parity Control and mode configuration using @ref LL_USART_SetParity() function
 851:Drivers/STM32F1xx_HAL_Driver/Inc/stm32f1xx_ll_usart.h ****   *         - Stop bits configuration using @ref LL_USART_SetStopBitsLength() function
 852:Drivers/STM32F1xx_HAL_Driver/Inc/stm32f1xx_ll_usart.h ****   * @rmtoll CR1          PS            LL_USART_ConfigCharacter\n
 853:Drivers/STM32F1xx_HAL_Driver/Inc/stm32f1xx_ll_usart.h ****   *         CR1          PCE           LL_USART_ConfigCharacter\n
 854:Drivers/STM32F1xx_HAL_Driver/Inc/stm32f1xx_ll_usart.h ****   *         CR1          M             LL_USART_ConfigCharacter\n
 855:Drivers/STM32F1xx_HAL_Driver/Inc/stm32f1xx_ll_usart.h ****   *         CR2          STOP          LL_USART_ConfigCharacter
 856:Drivers/STM32F1xx_HAL_Driver/Inc/stm32f1xx_ll_usart.h ****   * @param  USARTx USART Instance
 857:Drivers/STM32F1xx_HAL_Driver/Inc/stm32f1xx_ll_usart.h ****   * @param  DataWidth This parameter can be one of the following values:
 858:Drivers/STM32F1xx_HAL_Driver/Inc/stm32f1xx_ll_usart.h ****   *         @arg @ref LL_USART_DATAWIDTH_8B
 859:Drivers/STM32F1xx_HAL_Driver/Inc/stm32f1xx_ll_usart.h ****   *         @arg @ref LL_USART_DATAWIDTH_9B
ARM GAS  /tmp/ccY3COIh.s 			page 19


 860:Drivers/STM32F1xx_HAL_Driver/Inc/stm32f1xx_ll_usart.h ****   * @param  Parity This parameter can be one of the following values:
 861:Drivers/STM32F1xx_HAL_Driver/Inc/stm32f1xx_ll_usart.h ****   *         @arg @ref LL_USART_PARITY_NONE
 862:Drivers/STM32F1xx_HAL_Driver/Inc/stm32f1xx_ll_usart.h ****   *         @arg @ref LL_USART_PARITY_EVEN
 863:Drivers/STM32F1xx_HAL_Driver/Inc/stm32f1xx_ll_usart.h ****   *         @arg @ref LL_USART_PARITY_ODD
 864:Drivers/STM32F1xx_HAL_Driver/Inc/stm32f1xx_ll_usart.h ****   * @param  StopBits This parameter can be one of the following values:
 865:Drivers/STM32F1xx_HAL_Driver/Inc/stm32f1xx_ll_usart.h ****   *         @arg @ref LL_USART_STOPBITS_0_5
 866:Drivers/STM32F1xx_HAL_Driver/Inc/stm32f1xx_ll_usart.h ****   *         @arg @ref LL_USART_STOPBITS_1
 867:Drivers/STM32F1xx_HAL_Driver/Inc/stm32f1xx_ll_usart.h ****   *         @arg @ref LL_USART_STOPBITS_1_5
 868:Drivers/STM32F1xx_HAL_Driver/Inc/stm32f1xx_ll_usart.h ****   *         @arg @ref LL_USART_STOPBITS_2
 869:Drivers/STM32F1xx_HAL_Driver/Inc/stm32f1xx_ll_usart.h ****   * @retval None
 870:Drivers/STM32F1xx_HAL_Driver/Inc/stm32f1xx_ll_usart.h ****   */
 871:Drivers/STM32F1xx_HAL_Driver/Inc/stm32f1xx_ll_usart.h **** __STATIC_INLINE void LL_USART_ConfigCharacter(USART_TypeDef *USARTx, uint32_t DataWidth, uint32_t P
 872:Drivers/STM32F1xx_HAL_Driver/Inc/stm32f1xx_ll_usart.h ****                                               uint32_t StopBits)
 873:Drivers/STM32F1xx_HAL_Driver/Inc/stm32f1xx_ll_usart.h **** {
 874:Drivers/STM32F1xx_HAL_Driver/Inc/stm32f1xx_ll_usart.h ****   MODIFY_REG(USARTx->CR1, USART_CR1_PS | USART_CR1_PCE | USART_CR1_M, Parity | DataWidth);
 875:Drivers/STM32F1xx_HAL_Driver/Inc/stm32f1xx_ll_usart.h ****   MODIFY_REG(USARTx->CR2, USART_CR2_STOP, StopBits);
 876:Drivers/STM32F1xx_HAL_Driver/Inc/stm32f1xx_ll_usart.h **** }
 877:Drivers/STM32F1xx_HAL_Driver/Inc/stm32f1xx_ll_usart.h **** 
 878:Drivers/STM32F1xx_HAL_Driver/Inc/stm32f1xx_ll_usart.h **** /**
 879:Drivers/STM32F1xx_HAL_Driver/Inc/stm32f1xx_ll_usart.h ****   * @brief  Set Address of the USART node.
 880:Drivers/STM32F1xx_HAL_Driver/Inc/stm32f1xx_ll_usart.h ****   * @note   This is used in multiprocessor communication during Mute mode or Stop mode,
 881:Drivers/STM32F1xx_HAL_Driver/Inc/stm32f1xx_ll_usart.h ****   *         for wake up with address mark detection.
 882:Drivers/STM32F1xx_HAL_Driver/Inc/stm32f1xx_ll_usart.h ****   * @rmtoll CR2          ADD           LL_USART_SetNodeAddress
 883:Drivers/STM32F1xx_HAL_Driver/Inc/stm32f1xx_ll_usart.h ****   * @param  USARTx USART Instance
 884:Drivers/STM32F1xx_HAL_Driver/Inc/stm32f1xx_ll_usart.h ****   * @param  NodeAddress 4 bit Address of the USART node.
 885:Drivers/STM32F1xx_HAL_Driver/Inc/stm32f1xx_ll_usart.h ****   * @retval None
 886:Drivers/STM32F1xx_HAL_Driver/Inc/stm32f1xx_ll_usart.h ****   */
 887:Drivers/STM32F1xx_HAL_Driver/Inc/stm32f1xx_ll_usart.h **** __STATIC_INLINE void LL_USART_SetNodeAddress(USART_TypeDef *USARTx, uint32_t NodeAddress)
 888:Drivers/STM32F1xx_HAL_Driver/Inc/stm32f1xx_ll_usart.h **** {
 889:Drivers/STM32F1xx_HAL_Driver/Inc/stm32f1xx_ll_usart.h ****   MODIFY_REG(USARTx->CR2, USART_CR2_ADD, (NodeAddress & USART_CR2_ADD));
 890:Drivers/STM32F1xx_HAL_Driver/Inc/stm32f1xx_ll_usart.h **** }
 891:Drivers/STM32F1xx_HAL_Driver/Inc/stm32f1xx_ll_usart.h **** 
 892:Drivers/STM32F1xx_HAL_Driver/Inc/stm32f1xx_ll_usart.h **** /**
 893:Drivers/STM32F1xx_HAL_Driver/Inc/stm32f1xx_ll_usart.h ****   * @brief  Return 4 bit Address of the USART node as set in ADD field of CR2.
 894:Drivers/STM32F1xx_HAL_Driver/Inc/stm32f1xx_ll_usart.h ****   * @note   only 4bits (b3-b0) of returned value are relevant (b31-b4 are not relevant)
 895:Drivers/STM32F1xx_HAL_Driver/Inc/stm32f1xx_ll_usart.h ****   * @rmtoll CR2          ADD           LL_USART_GetNodeAddress
 896:Drivers/STM32F1xx_HAL_Driver/Inc/stm32f1xx_ll_usart.h ****   * @param  USARTx USART Instance
 897:Drivers/STM32F1xx_HAL_Driver/Inc/stm32f1xx_ll_usart.h ****   * @retval Address of the USART node (Value between Min_Data=0 and Max_Data=255)
 898:Drivers/STM32F1xx_HAL_Driver/Inc/stm32f1xx_ll_usart.h ****   */
 899:Drivers/STM32F1xx_HAL_Driver/Inc/stm32f1xx_ll_usart.h **** __STATIC_INLINE uint32_t LL_USART_GetNodeAddress(USART_TypeDef *USARTx)
 900:Drivers/STM32F1xx_HAL_Driver/Inc/stm32f1xx_ll_usart.h **** {
 901:Drivers/STM32F1xx_HAL_Driver/Inc/stm32f1xx_ll_usart.h ****   return (uint32_t)(READ_BIT(USARTx->CR2, USART_CR2_ADD));
 902:Drivers/STM32F1xx_HAL_Driver/Inc/stm32f1xx_ll_usart.h **** }
 903:Drivers/STM32F1xx_HAL_Driver/Inc/stm32f1xx_ll_usart.h **** 
 904:Drivers/STM32F1xx_HAL_Driver/Inc/stm32f1xx_ll_usart.h **** /**
 905:Drivers/STM32F1xx_HAL_Driver/Inc/stm32f1xx_ll_usart.h ****   * @brief  Enable RTS HW Flow Control
 906:Drivers/STM32F1xx_HAL_Driver/Inc/stm32f1xx_ll_usart.h ****   * @note   Macro @ref IS_UART_HWFLOW_INSTANCE(USARTx) can be used to check whether or not
 907:Drivers/STM32F1xx_HAL_Driver/Inc/stm32f1xx_ll_usart.h ****   *         Hardware Flow control feature is supported by the USARTx instance.
 908:Drivers/STM32F1xx_HAL_Driver/Inc/stm32f1xx_ll_usart.h ****   * @rmtoll CR3          RTSE          LL_USART_EnableRTSHWFlowCtrl
 909:Drivers/STM32F1xx_HAL_Driver/Inc/stm32f1xx_ll_usart.h ****   * @param  USARTx USART Instance
 910:Drivers/STM32F1xx_HAL_Driver/Inc/stm32f1xx_ll_usart.h ****   * @retval None
 911:Drivers/STM32F1xx_HAL_Driver/Inc/stm32f1xx_ll_usart.h ****   */
 912:Drivers/STM32F1xx_HAL_Driver/Inc/stm32f1xx_ll_usart.h **** __STATIC_INLINE void LL_USART_EnableRTSHWFlowCtrl(USART_TypeDef *USARTx)
 913:Drivers/STM32F1xx_HAL_Driver/Inc/stm32f1xx_ll_usart.h **** {
 914:Drivers/STM32F1xx_HAL_Driver/Inc/stm32f1xx_ll_usart.h ****   SET_BIT(USARTx->CR3, USART_CR3_RTSE);
 915:Drivers/STM32F1xx_HAL_Driver/Inc/stm32f1xx_ll_usart.h **** }
 916:Drivers/STM32F1xx_HAL_Driver/Inc/stm32f1xx_ll_usart.h **** 
ARM GAS  /tmp/ccY3COIh.s 			page 20


 917:Drivers/STM32F1xx_HAL_Driver/Inc/stm32f1xx_ll_usart.h **** /**
 918:Drivers/STM32F1xx_HAL_Driver/Inc/stm32f1xx_ll_usart.h ****   * @brief  Disable RTS HW Flow Control
 919:Drivers/STM32F1xx_HAL_Driver/Inc/stm32f1xx_ll_usart.h ****   * @note   Macro @ref IS_UART_HWFLOW_INSTANCE(USARTx) can be used to check whether or not
 920:Drivers/STM32F1xx_HAL_Driver/Inc/stm32f1xx_ll_usart.h ****   *         Hardware Flow control feature is supported by the USARTx instance.
 921:Drivers/STM32F1xx_HAL_Driver/Inc/stm32f1xx_ll_usart.h ****   * @rmtoll CR3          RTSE          LL_USART_DisableRTSHWFlowCtrl
 922:Drivers/STM32F1xx_HAL_Driver/Inc/stm32f1xx_ll_usart.h ****   * @param  USARTx USART Instance
 923:Drivers/STM32F1xx_HAL_Driver/Inc/stm32f1xx_ll_usart.h ****   * @retval None
 924:Drivers/STM32F1xx_HAL_Driver/Inc/stm32f1xx_ll_usart.h ****   */
 925:Drivers/STM32F1xx_HAL_Driver/Inc/stm32f1xx_ll_usart.h **** __STATIC_INLINE void LL_USART_DisableRTSHWFlowCtrl(USART_TypeDef *USARTx)
 926:Drivers/STM32F1xx_HAL_Driver/Inc/stm32f1xx_ll_usart.h **** {
 927:Drivers/STM32F1xx_HAL_Driver/Inc/stm32f1xx_ll_usart.h ****   CLEAR_BIT(USARTx->CR3, USART_CR3_RTSE);
 928:Drivers/STM32F1xx_HAL_Driver/Inc/stm32f1xx_ll_usart.h **** }
 929:Drivers/STM32F1xx_HAL_Driver/Inc/stm32f1xx_ll_usart.h **** 
 930:Drivers/STM32F1xx_HAL_Driver/Inc/stm32f1xx_ll_usart.h **** /**
 931:Drivers/STM32F1xx_HAL_Driver/Inc/stm32f1xx_ll_usart.h ****   * @brief  Enable CTS HW Flow Control
 932:Drivers/STM32F1xx_HAL_Driver/Inc/stm32f1xx_ll_usart.h ****   * @note   Macro @ref IS_UART_HWFLOW_INSTANCE(USARTx) can be used to check whether or not
 933:Drivers/STM32F1xx_HAL_Driver/Inc/stm32f1xx_ll_usart.h ****   *         Hardware Flow control feature is supported by the USARTx instance.
 934:Drivers/STM32F1xx_HAL_Driver/Inc/stm32f1xx_ll_usart.h ****   * @rmtoll CR3          CTSE          LL_USART_EnableCTSHWFlowCtrl
 935:Drivers/STM32F1xx_HAL_Driver/Inc/stm32f1xx_ll_usart.h ****   * @param  USARTx USART Instance
 936:Drivers/STM32F1xx_HAL_Driver/Inc/stm32f1xx_ll_usart.h ****   * @retval None
 937:Drivers/STM32F1xx_HAL_Driver/Inc/stm32f1xx_ll_usart.h ****   */
 938:Drivers/STM32F1xx_HAL_Driver/Inc/stm32f1xx_ll_usart.h **** __STATIC_INLINE void LL_USART_EnableCTSHWFlowCtrl(USART_TypeDef *USARTx)
 939:Drivers/STM32F1xx_HAL_Driver/Inc/stm32f1xx_ll_usart.h **** {
 940:Drivers/STM32F1xx_HAL_Driver/Inc/stm32f1xx_ll_usart.h ****   SET_BIT(USARTx->CR3, USART_CR3_CTSE);
 941:Drivers/STM32F1xx_HAL_Driver/Inc/stm32f1xx_ll_usart.h **** }
 942:Drivers/STM32F1xx_HAL_Driver/Inc/stm32f1xx_ll_usart.h **** 
 943:Drivers/STM32F1xx_HAL_Driver/Inc/stm32f1xx_ll_usart.h **** /**
 944:Drivers/STM32F1xx_HAL_Driver/Inc/stm32f1xx_ll_usart.h ****   * @brief  Disable CTS HW Flow Control
 945:Drivers/STM32F1xx_HAL_Driver/Inc/stm32f1xx_ll_usart.h ****   * @note   Macro @ref IS_UART_HWFLOW_INSTANCE(USARTx) can be used to check whether or not
 946:Drivers/STM32F1xx_HAL_Driver/Inc/stm32f1xx_ll_usart.h ****   *         Hardware Flow control feature is supported by the USARTx instance.
 947:Drivers/STM32F1xx_HAL_Driver/Inc/stm32f1xx_ll_usart.h ****   * @rmtoll CR3          CTSE          LL_USART_DisableCTSHWFlowCtrl
 948:Drivers/STM32F1xx_HAL_Driver/Inc/stm32f1xx_ll_usart.h ****   * @param  USARTx USART Instance
 949:Drivers/STM32F1xx_HAL_Driver/Inc/stm32f1xx_ll_usart.h ****   * @retval None
 950:Drivers/STM32F1xx_HAL_Driver/Inc/stm32f1xx_ll_usart.h ****   */
 951:Drivers/STM32F1xx_HAL_Driver/Inc/stm32f1xx_ll_usart.h **** __STATIC_INLINE void LL_USART_DisableCTSHWFlowCtrl(USART_TypeDef *USARTx)
 952:Drivers/STM32F1xx_HAL_Driver/Inc/stm32f1xx_ll_usart.h **** {
 953:Drivers/STM32F1xx_HAL_Driver/Inc/stm32f1xx_ll_usart.h ****   CLEAR_BIT(USARTx->CR3, USART_CR3_CTSE);
 954:Drivers/STM32F1xx_HAL_Driver/Inc/stm32f1xx_ll_usart.h **** }
 955:Drivers/STM32F1xx_HAL_Driver/Inc/stm32f1xx_ll_usart.h **** 
 956:Drivers/STM32F1xx_HAL_Driver/Inc/stm32f1xx_ll_usart.h **** /**
 957:Drivers/STM32F1xx_HAL_Driver/Inc/stm32f1xx_ll_usart.h ****   * @brief  Configure HW Flow Control mode (both CTS and RTS)
 958:Drivers/STM32F1xx_HAL_Driver/Inc/stm32f1xx_ll_usart.h ****   * @note   Macro @ref IS_UART_HWFLOW_INSTANCE(USARTx) can be used to check whether or not
 959:Drivers/STM32F1xx_HAL_Driver/Inc/stm32f1xx_ll_usart.h ****   *         Hardware Flow control feature is supported by the USARTx instance.
 960:Drivers/STM32F1xx_HAL_Driver/Inc/stm32f1xx_ll_usart.h ****   * @rmtoll CR3          RTSE          LL_USART_SetHWFlowCtrl\n
 961:Drivers/STM32F1xx_HAL_Driver/Inc/stm32f1xx_ll_usart.h ****   *         CR3          CTSE          LL_USART_SetHWFlowCtrl
 962:Drivers/STM32F1xx_HAL_Driver/Inc/stm32f1xx_ll_usart.h ****   * @param  USARTx USART Instance
 963:Drivers/STM32F1xx_HAL_Driver/Inc/stm32f1xx_ll_usart.h ****   * @param  HardwareFlowControl This parameter can be one of the following values:
 964:Drivers/STM32F1xx_HAL_Driver/Inc/stm32f1xx_ll_usart.h ****   *         @arg @ref LL_USART_HWCONTROL_NONE
 965:Drivers/STM32F1xx_HAL_Driver/Inc/stm32f1xx_ll_usart.h ****   *         @arg @ref LL_USART_HWCONTROL_RTS
 966:Drivers/STM32F1xx_HAL_Driver/Inc/stm32f1xx_ll_usart.h ****   *         @arg @ref LL_USART_HWCONTROL_CTS
 967:Drivers/STM32F1xx_HAL_Driver/Inc/stm32f1xx_ll_usart.h ****   *         @arg @ref LL_USART_HWCONTROL_RTS_CTS
 968:Drivers/STM32F1xx_HAL_Driver/Inc/stm32f1xx_ll_usart.h ****   * @retval None
 969:Drivers/STM32F1xx_HAL_Driver/Inc/stm32f1xx_ll_usart.h ****   */
 970:Drivers/STM32F1xx_HAL_Driver/Inc/stm32f1xx_ll_usart.h **** __STATIC_INLINE void LL_USART_SetHWFlowCtrl(USART_TypeDef *USARTx, uint32_t HardwareFlowControl)
 971:Drivers/STM32F1xx_HAL_Driver/Inc/stm32f1xx_ll_usart.h **** {
 175              		.loc 1 971 0
 176              		.cfi_startproc
ARM GAS  /tmp/ccY3COIh.s 			page 21


 177              		@ args = 0, pretend = 0, frame = 8
 178              		@ frame_needed = 1, uses_anonymous_args = 0
 179              		@ link register save eliminated.
 180 0000 80B4     		push	{r7}
 181              	.LCFI18:
 182              		.cfi_def_cfa_offset 4
 183              		.cfi_offset 7, -4
 184 0002 83B0     		sub	sp, sp, #12
 185              	.LCFI19:
 186              		.cfi_def_cfa_offset 16
 187 0004 00AF     		add	r7, sp, #0
 188              	.LCFI20:
 189              		.cfi_def_cfa_register 7
 190 0006 7860     		str	r0, [r7, #4]
 191 0008 3960     		str	r1, [r7]
 972:Drivers/STM32F1xx_HAL_Driver/Inc/stm32f1xx_ll_usart.h ****   MODIFY_REG(USARTx->CR3, USART_CR3_RTSE | USART_CR3_CTSE, HardwareFlowControl);
 192              		.loc 1 972 0
 193 000a 7B68     		ldr	r3, [r7, #4]
 194 000c 5B69     		ldr	r3, [r3, #20]
 195 000e 23F44072 		bic	r2, r3, #768
 196 0012 3B68     		ldr	r3, [r7]
 197 0014 1A43     		orrs	r2, r2, r3
 198 0016 7B68     		ldr	r3, [r7, #4]
 199 0018 5A61     		str	r2, [r3, #20]
 973:Drivers/STM32F1xx_HAL_Driver/Inc/stm32f1xx_ll_usart.h **** }
 200              		.loc 1 973 0
 201 001a 00BF     		nop
 202 001c 0C37     		adds	r7, r7, #12
 203              	.LCFI21:
 204              		.cfi_def_cfa_offset 4
 205 001e BD46     		mov	sp, r7
 206              	.LCFI22:
 207              		.cfi_def_cfa_register 13
 208              		@ sp needed
 209 0020 80BC     		pop	{r7}
 210              	.LCFI23:
 211              		.cfi_restore 7
 212              		.cfi_def_cfa_offset 0
 213 0022 7047     		bx	lr
 214              		.cfi_endproc
 215              	.LFE97:
 217              		.section	.text.LL_USART_SetBaudRate,"ax",%progbits
 218              		.align	1
 219              		.syntax unified
 220              		.thumb
 221              		.thumb_func
 222              		.fpu softvfp
 224              	LL_USART_SetBaudRate:
 225              	.LFB99:
 974:Drivers/STM32F1xx_HAL_Driver/Inc/stm32f1xx_ll_usart.h **** 
 975:Drivers/STM32F1xx_HAL_Driver/Inc/stm32f1xx_ll_usart.h **** /**
 976:Drivers/STM32F1xx_HAL_Driver/Inc/stm32f1xx_ll_usart.h ****   * @brief  Return HW Flow Control configuration (both CTS and RTS)
 977:Drivers/STM32F1xx_HAL_Driver/Inc/stm32f1xx_ll_usart.h ****   * @note   Macro @ref IS_UART_HWFLOW_INSTANCE(USARTx) can be used to check whether or not
 978:Drivers/STM32F1xx_HAL_Driver/Inc/stm32f1xx_ll_usart.h ****   *         Hardware Flow control feature is supported by the USARTx instance.
 979:Drivers/STM32F1xx_HAL_Driver/Inc/stm32f1xx_ll_usart.h ****   * @rmtoll CR3          RTSE          LL_USART_GetHWFlowCtrl\n
 980:Drivers/STM32F1xx_HAL_Driver/Inc/stm32f1xx_ll_usart.h ****   *         CR3          CTSE          LL_USART_GetHWFlowCtrl
 981:Drivers/STM32F1xx_HAL_Driver/Inc/stm32f1xx_ll_usart.h ****   * @param  USARTx USART Instance
ARM GAS  /tmp/ccY3COIh.s 			page 22


 982:Drivers/STM32F1xx_HAL_Driver/Inc/stm32f1xx_ll_usart.h ****   * @retval Returned value can be one of the following values:
 983:Drivers/STM32F1xx_HAL_Driver/Inc/stm32f1xx_ll_usart.h ****   *         @arg @ref LL_USART_HWCONTROL_NONE
 984:Drivers/STM32F1xx_HAL_Driver/Inc/stm32f1xx_ll_usart.h ****   *         @arg @ref LL_USART_HWCONTROL_RTS
 985:Drivers/STM32F1xx_HAL_Driver/Inc/stm32f1xx_ll_usart.h ****   *         @arg @ref LL_USART_HWCONTROL_CTS
 986:Drivers/STM32F1xx_HAL_Driver/Inc/stm32f1xx_ll_usart.h ****   *         @arg @ref LL_USART_HWCONTROL_RTS_CTS
 987:Drivers/STM32F1xx_HAL_Driver/Inc/stm32f1xx_ll_usart.h ****   */
 988:Drivers/STM32F1xx_HAL_Driver/Inc/stm32f1xx_ll_usart.h **** __STATIC_INLINE uint32_t LL_USART_GetHWFlowCtrl(USART_TypeDef *USARTx)
 989:Drivers/STM32F1xx_HAL_Driver/Inc/stm32f1xx_ll_usart.h **** {
 990:Drivers/STM32F1xx_HAL_Driver/Inc/stm32f1xx_ll_usart.h ****   return (uint32_t)(READ_BIT(USARTx->CR3, USART_CR3_RTSE | USART_CR3_CTSE));
 991:Drivers/STM32F1xx_HAL_Driver/Inc/stm32f1xx_ll_usart.h **** }
 992:Drivers/STM32F1xx_HAL_Driver/Inc/stm32f1xx_ll_usart.h **** 
 993:Drivers/STM32F1xx_HAL_Driver/Inc/stm32f1xx_ll_usart.h **** #if defined(USART_CR3_ONEBIT)
 994:Drivers/STM32F1xx_HAL_Driver/Inc/stm32f1xx_ll_usart.h **** /**
 995:Drivers/STM32F1xx_HAL_Driver/Inc/stm32f1xx_ll_usart.h ****   * @brief  Enable One bit sampling method
 996:Drivers/STM32F1xx_HAL_Driver/Inc/stm32f1xx_ll_usart.h ****   * @rmtoll CR3          ONEBIT        LL_USART_EnableOneBitSamp
 997:Drivers/STM32F1xx_HAL_Driver/Inc/stm32f1xx_ll_usart.h ****   * @param  USARTx USART Instance
 998:Drivers/STM32F1xx_HAL_Driver/Inc/stm32f1xx_ll_usart.h ****   * @retval None
 999:Drivers/STM32F1xx_HAL_Driver/Inc/stm32f1xx_ll_usart.h ****   */
1000:Drivers/STM32F1xx_HAL_Driver/Inc/stm32f1xx_ll_usart.h **** __STATIC_INLINE void LL_USART_EnableOneBitSamp(USART_TypeDef *USARTx)
1001:Drivers/STM32F1xx_HAL_Driver/Inc/stm32f1xx_ll_usart.h **** {
1002:Drivers/STM32F1xx_HAL_Driver/Inc/stm32f1xx_ll_usart.h ****   SET_BIT(USARTx->CR3, USART_CR3_ONEBIT);
1003:Drivers/STM32F1xx_HAL_Driver/Inc/stm32f1xx_ll_usart.h **** }
1004:Drivers/STM32F1xx_HAL_Driver/Inc/stm32f1xx_ll_usart.h **** 
1005:Drivers/STM32F1xx_HAL_Driver/Inc/stm32f1xx_ll_usart.h **** /**
1006:Drivers/STM32F1xx_HAL_Driver/Inc/stm32f1xx_ll_usart.h ****   * @brief  Disable One bit sampling method
1007:Drivers/STM32F1xx_HAL_Driver/Inc/stm32f1xx_ll_usart.h ****   * @rmtoll CR3          ONEBIT        LL_USART_DisableOneBitSamp
1008:Drivers/STM32F1xx_HAL_Driver/Inc/stm32f1xx_ll_usart.h ****   * @param  USARTx USART Instance
1009:Drivers/STM32F1xx_HAL_Driver/Inc/stm32f1xx_ll_usart.h ****   * @retval None
1010:Drivers/STM32F1xx_HAL_Driver/Inc/stm32f1xx_ll_usart.h ****   */
1011:Drivers/STM32F1xx_HAL_Driver/Inc/stm32f1xx_ll_usart.h **** __STATIC_INLINE void LL_USART_DisableOneBitSamp(USART_TypeDef *USARTx)
1012:Drivers/STM32F1xx_HAL_Driver/Inc/stm32f1xx_ll_usart.h **** {
1013:Drivers/STM32F1xx_HAL_Driver/Inc/stm32f1xx_ll_usart.h ****   CLEAR_BIT(USARTx->CR3, USART_CR3_ONEBIT);
1014:Drivers/STM32F1xx_HAL_Driver/Inc/stm32f1xx_ll_usart.h **** }
1015:Drivers/STM32F1xx_HAL_Driver/Inc/stm32f1xx_ll_usart.h **** 
1016:Drivers/STM32F1xx_HAL_Driver/Inc/stm32f1xx_ll_usart.h **** /**
1017:Drivers/STM32F1xx_HAL_Driver/Inc/stm32f1xx_ll_usart.h ****   * @brief  Indicate if One bit sampling method is enabled
1018:Drivers/STM32F1xx_HAL_Driver/Inc/stm32f1xx_ll_usart.h ****   * @rmtoll CR3          ONEBIT        LL_USART_IsEnabledOneBitSamp
1019:Drivers/STM32F1xx_HAL_Driver/Inc/stm32f1xx_ll_usart.h ****   * @param  USARTx USART Instance
1020:Drivers/STM32F1xx_HAL_Driver/Inc/stm32f1xx_ll_usart.h ****   * @retval State of bit (1 or 0).
1021:Drivers/STM32F1xx_HAL_Driver/Inc/stm32f1xx_ll_usart.h ****   */
1022:Drivers/STM32F1xx_HAL_Driver/Inc/stm32f1xx_ll_usart.h **** __STATIC_INLINE uint32_t LL_USART_IsEnabledOneBitSamp(USART_TypeDef *USARTx)
1023:Drivers/STM32F1xx_HAL_Driver/Inc/stm32f1xx_ll_usart.h **** {
1024:Drivers/STM32F1xx_HAL_Driver/Inc/stm32f1xx_ll_usart.h ****   return (READ_BIT(USARTx->CR3, USART_CR3_ONEBIT) == (USART_CR3_ONEBIT));
1025:Drivers/STM32F1xx_HAL_Driver/Inc/stm32f1xx_ll_usart.h **** }
1026:Drivers/STM32F1xx_HAL_Driver/Inc/stm32f1xx_ll_usart.h **** #endif /* USART_OneBitSampling_Feature */
1027:Drivers/STM32F1xx_HAL_Driver/Inc/stm32f1xx_ll_usart.h **** 
1028:Drivers/STM32F1xx_HAL_Driver/Inc/stm32f1xx_ll_usart.h **** #if defined(USART_CR1_OVER8)
1029:Drivers/STM32F1xx_HAL_Driver/Inc/stm32f1xx_ll_usart.h **** /**
1030:Drivers/STM32F1xx_HAL_Driver/Inc/stm32f1xx_ll_usart.h ****   * @brief  Configure USART BRR register for achieving expected Baud Rate value.
1031:Drivers/STM32F1xx_HAL_Driver/Inc/stm32f1xx_ll_usart.h ****   * @note   Compute and set USARTDIV value in BRR Register (full BRR content)
1032:Drivers/STM32F1xx_HAL_Driver/Inc/stm32f1xx_ll_usart.h ****   *         according to used Peripheral Clock, Oversampling mode, and expected Baud Rate values
1033:Drivers/STM32F1xx_HAL_Driver/Inc/stm32f1xx_ll_usart.h ****   * @note   Peripheral clock and Baud rate values provided as function parameters should be valid
1034:Drivers/STM32F1xx_HAL_Driver/Inc/stm32f1xx_ll_usart.h ****   *         (Baud rate value != 0)
1035:Drivers/STM32F1xx_HAL_Driver/Inc/stm32f1xx_ll_usart.h ****   * @rmtoll BRR          BRR           LL_USART_SetBaudRate
1036:Drivers/STM32F1xx_HAL_Driver/Inc/stm32f1xx_ll_usart.h ****   * @param  USARTx USART Instance
1037:Drivers/STM32F1xx_HAL_Driver/Inc/stm32f1xx_ll_usart.h ****   * @param  PeriphClk Peripheral Clock
1038:Drivers/STM32F1xx_HAL_Driver/Inc/stm32f1xx_ll_usart.h ****   * @param  OverSampling This parameter can be one of the following values:
ARM GAS  /tmp/ccY3COIh.s 			page 23


1039:Drivers/STM32F1xx_HAL_Driver/Inc/stm32f1xx_ll_usart.h ****   *         @arg @ref LL_USART_OVERSAMPLING_16
1040:Drivers/STM32F1xx_HAL_Driver/Inc/stm32f1xx_ll_usart.h ****   *         @arg @ref LL_USART_OVERSAMPLING_8
1041:Drivers/STM32F1xx_HAL_Driver/Inc/stm32f1xx_ll_usart.h ****   * @param  BaudRate Baud Rate
1042:Drivers/STM32F1xx_HAL_Driver/Inc/stm32f1xx_ll_usart.h ****   * @retval None
1043:Drivers/STM32F1xx_HAL_Driver/Inc/stm32f1xx_ll_usart.h ****   */
1044:Drivers/STM32F1xx_HAL_Driver/Inc/stm32f1xx_ll_usart.h **** __STATIC_INLINE void LL_USART_SetBaudRate(USART_TypeDef *USARTx, uint32_t PeriphClk, uint32_t OverS
1045:Drivers/STM32F1xx_HAL_Driver/Inc/stm32f1xx_ll_usart.h ****                                           uint32_t BaudRate)
1046:Drivers/STM32F1xx_HAL_Driver/Inc/stm32f1xx_ll_usart.h **** {
1047:Drivers/STM32F1xx_HAL_Driver/Inc/stm32f1xx_ll_usart.h ****   if (OverSampling == LL_USART_OVERSAMPLING_8)
1048:Drivers/STM32F1xx_HAL_Driver/Inc/stm32f1xx_ll_usart.h ****   {
1049:Drivers/STM32F1xx_HAL_Driver/Inc/stm32f1xx_ll_usart.h ****     USARTx->BRR = (uint16_t)(__LL_USART_DIV_SAMPLING8(PeriphClk, BaudRate));
1050:Drivers/STM32F1xx_HAL_Driver/Inc/stm32f1xx_ll_usart.h ****   }
1051:Drivers/STM32F1xx_HAL_Driver/Inc/stm32f1xx_ll_usart.h ****   else
1052:Drivers/STM32F1xx_HAL_Driver/Inc/stm32f1xx_ll_usart.h ****   {
1053:Drivers/STM32F1xx_HAL_Driver/Inc/stm32f1xx_ll_usart.h ****     USARTx->BRR = (uint16_t)(__LL_USART_DIV_SAMPLING16(PeriphClk, BaudRate));
1054:Drivers/STM32F1xx_HAL_Driver/Inc/stm32f1xx_ll_usart.h ****   }
1055:Drivers/STM32F1xx_HAL_Driver/Inc/stm32f1xx_ll_usart.h **** }
1056:Drivers/STM32F1xx_HAL_Driver/Inc/stm32f1xx_ll_usart.h **** 
1057:Drivers/STM32F1xx_HAL_Driver/Inc/stm32f1xx_ll_usart.h **** /**
1058:Drivers/STM32F1xx_HAL_Driver/Inc/stm32f1xx_ll_usart.h ****   * @brief  Return current Baud Rate value, according to USARTDIV present in BRR register
1059:Drivers/STM32F1xx_HAL_Driver/Inc/stm32f1xx_ll_usart.h ****   *         (full BRR content), and to used Peripheral Clock and Oversampling mode values
1060:Drivers/STM32F1xx_HAL_Driver/Inc/stm32f1xx_ll_usart.h ****   * @note   In case of non-initialized or invalid value stored in BRR register, value 0 will be ret
1061:Drivers/STM32F1xx_HAL_Driver/Inc/stm32f1xx_ll_usart.h ****   * @rmtoll BRR          BRR           LL_USART_GetBaudRate
1062:Drivers/STM32F1xx_HAL_Driver/Inc/stm32f1xx_ll_usart.h ****   * @param  USARTx USART Instance
1063:Drivers/STM32F1xx_HAL_Driver/Inc/stm32f1xx_ll_usart.h ****   * @param  PeriphClk Peripheral Clock
1064:Drivers/STM32F1xx_HAL_Driver/Inc/stm32f1xx_ll_usart.h ****   * @param  OverSampling This parameter can be one of the following values:
1065:Drivers/STM32F1xx_HAL_Driver/Inc/stm32f1xx_ll_usart.h ****   *         @arg @ref LL_USART_OVERSAMPLING_16
1066:Drivers/STM32F1xx_HAL_Driver/Inc/stm32f1xx_ll_usart.h ****   *         @arg @ref LL_USART_OVERSAMPLING_8
1067:Drivers/STM32F1xx_HAL_Driver/Inc/stm32f1xx_ll_usart.h ****   * @retval Baud Rate
1068:Drivers/STM32F1xx_HAL_Driver/Inc/stm32f1xx_ll_usart.h ****   */
1069:Drivers/STM32F1xx_HAL_Driver/Inc/stm32f1xx_ll_usart.h **** __STATIC_INLINE uint32_t LL_USART_GetBaudRate(USART_TypeDef *USARTx, uint32_t PeriphClk, uint32_t O
1070:Drivers/STM32F1xx_HAL_Driver/Inc/stm32f1xx_ll_usart.h **** {
1071:Drivers/STM32F1xx_HAL_Driver/Inc/stm32f1xx_ll_usart.h ****   register uint32_t usartdiv = 0x0U;
1072:Drivers/STM32F1xx_HAL_Driver/Inc/stm32f1xx_ll_usart.h ****   register uint32_t brrresult = 0x0U;
1073:Drivers/STM32F1xx_HAL_Driver/Inc/stm32f1xx_ll_usart.h **** 
1074:Drivers/STM32F1xx_HAL_Driver/Inc/stm32f1xx_ll_usart.h ****   usartdiv = USARTx->BRR;
1075:Drivers/STM32F1xx_HAL_Driver/Inc/stm32f1xx_ll_usart.h **** 
1076:Drivers/STM32F1xx_HAL_Driver/Inc/stm32f1xx_ll_usart.h ****   if (OverSampling == LL_USART_OVERSAMPLING_8)
1077:Drivers/STM32F1xx_HAL_Driver/Inc/stm32f1xx_ll_usart.h ****   {
1078:Drivers/STM32F1xx_HAL_Driver/Inc/stm32f1xx_ll_usart.h ****     if ((usartdiv & 0xFFF7U) != 0U)
1079:Drivers/STM32F1xx_HAL_Driver/Inc/stm32f1xx_ll_usart.h ****     {
1080:Drivers/STM32F1xx_HAL_Driver/Inc/stm32f1xx_ll_usart.h ****       usartdiv = (uint16_t)((usartdiv & 0xFFF0U) | ((usartdiv & 0x0007U) << 1U)) ;
1081:Drivers/STM32F1xx_HAL_Driver/Inc/stm32f1xx_ll_usart.h ****       brrresult = (PeriphClk * 2U) / usartdiv;
1082:Drivers/STM32F1xx_HAL_Driver/Inc/stm32f1xx_ll_usart.h ****     }
1083:Drivers/STM32F1xx_HAL_Driver/Inc/stm32f1xx_ll_usart.h ****   }
1084:Drivers/STM32F1xx_HAL_Driver/Inc/stm32f1xx_ll_usart.h ****   else
1085:Drivers/STM32F1xx_HAL_Driver/Inc/stm32f1xx_ll_usart.h ****   {
1086:Drivers/STM32F1xx_HAL_Driver/Inc/stm32f1xx_ll_usart.h ****     if ((usartdiv & 0xFFFFU) != 0U)
1087:Drivers/STM32F1xx_HAL_Driver/Inc/stm32f1xx_ll_usart.h ****     {
1088:Drivers/STM32F1xx_HAL_Driver/Inc/stm32f1xx_ll_usart.h ****       brrresult = PeriphClk / usartdiv;
1089:Drivers/STM32F1xx_HAL_Driver/Inc/stm32f1xx_ll_usart.h ****     }
1090:Drivers/STM32F1xx_HAL_Driver/Inc/stm32f1xx_ll_usart.h ****   }
1091:Drivers/STM32F1xx_HAL_Driver/Inc/stm32f1xx_ll_usart.h ****   return (brrresult);
1092:Drivers/STM32F1xx_HAL_Driver/Inc/stm32f1xx_ll_usart.h **** }
1093:Drivers/STM32F1xx_HAL_Driver/Inc/stm32f1xx_ll_usart.h **** #else
1094:Drivers/STM32F1xx_HAL_Driver/Inc/stm32f1xx_ll_usart.h **** /**
1095:Drivers/STM32F1xx_HAL_Driver/Inc/stm32f1xx_ll_usart.h ****   * @brief  Configure USART BRR register for achieving expected Baud Rate value.
ARM GAS  /tmp/ccY3COIh.s 			page 24


1096:Drivers/STM32F1xx_HAL_Driver/Inc/stm32f1xx_ll_usart.h ****   * @note   Compute and set USARTDIV value in BRR Register (full BRR content)
1097:Drivers/STM32F1xx_HAL_Driver/Inc/stm32f1xx_ll_usart.h ****   *         according to used Peripheral Clock, Oversampling mode, and expected Baud Rate values
1098:Drivers/STM32F1xx_HAL_Driver/Inc/stm32f1xx_ll_usart.h ****   * @note   Peripheral clock and Baud rate values provided as function parameters should be valid
1099:Drivers/STM32F1xx_HAL_Driver/Inc/stm32f1xx_ll_usart.h ****   *         (Baud rate value != 0)
1100:Drivers/STM32F1xx_HAL_Driver/Inc/stm32f1xx_ll_usart.h ****   * @rmtoll BRR          BRR           LL_USART_SetBaudRate
1101:Drivers/STM32F1xx_HAL_Driver/Inc/stm32f1xx_ll_usart.h ****   * @param  USARTx USART Instance
1102:Drivers/STM32F1xx_HAL_Driver/Inc/stm32f1xx_ll_usart.h ****   * @param  PeriphClk Peripheral Clock
1103:Drivers/STM32F1xx_HAL_Driver/Inc/stm32f1xx_ll_usart.h ****   * @param  BaudRate Baud Rate
1104:Drivers/STM32F1xx_HAL_Driver/Inc/stm32f1xx_ll_usart.h ****   * @retval None
1105:Drivers/STM32F1xx_HAL_Driver/Inc/stm32f1xx_ll_usart.h ****   */
1106:Drivers/STM32F1xx_HAL_Driver/Inc/stm32f1xx_ll_usart.h **** __STATIC_INLINE void LL_USART_SetBaudRate(USART_TypeDef *USARTx, uint32_t PeriphClk, uint32_t BaudR
1107:Drivers/STM32F1xx_HAL_Driver/Inc/stm32f1xx_ll_usart.h **** {
 226              		.loc 1 1107 0
 227              		.cfi_startproc
 228              		@ args = 0, pretend = 0, frame = 16
 229              		@ frame_needed = 1, uses_anonymous_args = 0
 230              		@ link register save eliminated.
 231 0000 80B4     		push	{r7}
 232              	.LCFI24:
 233              		.cfi_def_cfa_offset 4
 234              		.cfi_offset 7, -4
 235 0002 85B0     		sub	sp, sp, #20
 236              	.LCFI25:
 237              		.cfi_def_cfa_offset 24
 238 0004 00AF     		add	r7, sp, #0
 239              	.LCFI26:
 240              		.cfi_def_cfa_register 7
 241 0006 F860     		str	r0, [r7, #12]
 242 0008 B960     		str	r1, [r7, #8]
 243 000a 7A60     		str	r2, [r7, #4]
1108:Drivers/STM32F1xx_HAL_Driver/Inc/stm32f1xx_ll_usart.h ****     USARTx->BRR = (uint16_t)(__LL_USART_DIV_SAMPLING16(PeriphClk, BaudRate));
 244              		.loc 1 1108 0
 245 000c BA68     		ldr	r2, [r7, #8]
 246 000e 1346     		mov	r3, r2
 247 0010 9B00     		lsls	r3, r3, #2
 248 0012 1344     		add	r3, r3, r2
 249 0014 9A00     		lsls	r2, r3, #2
 250 0016 1A44     		add	r2, r2, r3
 251 0018 7B68     		ldr	r3, [r7, #4]
 252 001a 9B00     		lsls	r3, r3, #2
 253 001c B2FBF3F3 		udiv	r3, r2, r3
 254 0020 254A     		ldr	r2, .L7
 255 0022 A2FB0323 		umull	r2, r3, r2, r3
 256 0026 5B09     		lsrs	r3, r3, #5
 257 0028 9BB2     		uxth	r3, r3
 258 002a 1B01     		lsls	r3, r3, #4
 259 002c 99B2     		uxth	r1, r3
 260 002e BA68     		ldr	r2, [r7, #8]
 261 0030 1346     		mov	r3, r2
 262 0032 9B00     		lsls	r3, r3, #2
 263 0034 1344     		add	r3, r3, r2
 264 0036 9A00     		lsls	r2, r3, #2
 265 0038 1A44     		add	r2, r2, r3
 266 003a 7B68     		ldr	r3, [r7, #4]
 267 003c 9B00     		lsls	r3, r3, #2
 268 003e B2FBF3F2 		udiv	r2, r2, r3
 269 0042 1D4B     		ldr	r3, .L7
ARM GAS  /tmp/ccY3COIh.s 			page 25


 270 0044 A3FB0203 		umull	r0, r3, r3, r2
 271 0048 5B09     		lsrs	r3, r3, #5
 272 004a 6420     		movs	r0, #100
 273 004c 00FB03F3 		mul	r3, r0, r3
 274 0050 D31A     		subs	r3, r2, r3
 275 0052 1B01     		lsls	r3, r3, #4
 276 0054 3233     		adds	r3, r3, #50
 277 0056 184A     		ldr	r2, .L7
 278 0058 A2FB0323 		umull	r2, r3, r2, r3
 279 005c 5B09     		lsrs	r3, r3, #5
 280 005e 9BB2     		uxth	r3, r3
 281 0060 03F0F003 		and	r3, r3, #240
 282 0064 9BB2     		uxth	r3, r3
 283 0066 0B44     		add	r3, r3, r1
 284 0068 99B2     		uxth	r1, r3
 285 006a BA68     		ldr	r2, [r7, #8]
 286 006c 1346     		mov	r3, r2
 287 006e 9B00     		lsls	r3, r3, #2
 288 0070 1344     		add	r3, r3, r2
 289 0072 9A00     		lsls	r2, r3, #2
 290 0074 1A44     		add	r2, r2, r3
 291 0076 7B68     		ldr	r3, [r7, #4]
 292 0078 9B00     		lsls	r3, r3, #2
 293 007a B2FBF3F2 		udiv	r2, r2, r3
 294 007e 0E4B     		ldr	r3, .L7
 295 0080 A3FB0203 		umull	r0, r3, r3, r2
 296 0084 5B09     		lsrs	r3, r3, #5
 297 0086 6420     		movs	r0, #100
 298 0088 00FB03F3 		mul	r3, r0, r3
 299 008c D31A     		subs	r3, r2, r3
 300 008e 1B01     		lsls	r3, r3, #4
 301 0090 3233     		adds	r3, r3, #50
 302 0092 094A     		ldr	r2, .L7
 303 0094 A2FB0323 		umull	r2, r3, r2, r3
 304 0098 5B09     		lsrs	r3, r3, #5
 305 009a 9BB2     		uxth	r3, r3
 306 009c 03F00F03 		and	r3, r3, #15
 307 00a0 9BB2     		uxth	r3, r3
 308 00a2 0B44     		add	r3, r3, r1
 309 00a4 9BB2     		uxth	r3, r3
 310 00a6 1A46     		mov	r2, r3
 311 00a8 FB68     		ldr	r3, [r7, #12]
 312 00aa 9A60     		str	r2, [r3, #8]
1109:Drivers/STM32F1xx_HAL_Driver/Inc/stm32f1xx_ll_usart.h **** }
 313              		.loc 1 1109 0
 314 00ac 00BF     		nop
 315 00ae 1437     		adds	r7, r7, #20
 316              	.LCFI27:
 317              		.cfi_def_cfa_offset 4
 318 00b0 BD46     		mov	sp, r7
 319              	.LCFI28:
 320              		.cfi_def_cfa_register 13
 321              		@ sp needed
 322 00b2 80BC     		pop	{r7}
 323              	.LCFI29:
 324              		.cfi_restore 7
 325              		.cfi_def_cfa_offset 0
ARM GAS  /tmp/ccY3COIh.s 			page 26


 326 00b4 7047     		bx	lr
 327              	.L8:
 328 00b6 00BF     		.align	2
 329              	.L7:
 330 00b8 1F85EB51 		.word	1374389535
 331              		.cfi_endproc
 332              	.LFE99:
 334              		.section	.text.LL_APB1_GRP1_ForceReset,"ax",%progbits
 335              		.align	1
 336              		.syntax unified
 337              		.thumb
 338              		.thumb_func
 339              		.fpu softvfp
 341              	LL_APB1_GRP1_ForceReset:
 342              	.LFB280:
 343              		.file 2 "Drivers/STM32F1xx_HAL_Driver/Inc/stm32f1xx_ll_bus.h"
   1:Drivers/STM32F1xx_HAL_Driver/Inc/stm32f1xx_ll_bus.h **** /**
   2:Drivers/STM32F1xx_HAL_Driver/Inc/stm32f1xx_ll_bus.h ****   ******************************************************************************
   3:Drivers/STM32F1xx_HAL_Driver/Inc/stm32f1xx_ll_bus.h ****   * @file    stm32f1xx_ll_bus.h
   4:Drivers/STM32F1xx_HAL_Driver/Inc/stm32f1xx_ll_bus.h ****   * @author  MCD Application Team
   5:Drivers/STM32F1xx_HAL_Driver/Inc/stm32f1xx_ll_bus.h ****   * @brief   Header file of BUS LL module.
   6:Drivers/STM32F1xx_HAL_Driver/Inc/stm32f1xx_ll_bus.h **** 
   7:Drivers/STM32F1xx_HAL_Driver/Inc/stm32f1xx_ll_bus.h ****   @verbatim                
   8:Drivers/STM32F1xx_HAL_Driver/Inc/stm32f1xx_ll_bus.h ****                       ##### RCC Limitations #####
   9:Drivers/STM32F1xx_HAL_Driver/Inc/stm32f1xx_ll_bus.h ****   ==============================================================================
  10:Drivers/STM32F1xx_HAL_Driver/Inc/stm32f1xx_ll_bus.h ****     [..]  
  11:Drivers/STM32F1xx_HAL_Driver/Inc/stm32f1xx_ll_bus.h ****       A delay between an RCC peripheral clock enable and the effective peripheral 
  12:Drivers/STM32F1xx_HAL_Driver/Inc/stm32f1xx_ll_bus.h ****       enabling should be taken into account in order to manage the peripheral read/write 
  13:Drivers/STM32F1xx_HAL_Driver/Inc/stm32f1xx_ll_bus.h ****       from/to registers.
  14:Drivers/STM32F1xx_HAL_Driver/Inc/stm32f1xx_ll_bus.h ****       (+) This delay depends on the peripheral mapping.
  15:Drivers/STM32F1xx_HAL_Driver/Inc/stm32f1xx_ll_bus.h ****         (++) AHB & APB peripherals, 1 dummy read is necessary
  16:Drivers/STM32F1xx_HAL_Driver/Inc/stm32f1xx_ll_bus.h **** 
  17:Drivers/STM32F1xx_HAL_Driver/Inc/stm32f1xx_ll_bus.h ****     [..]  
  18:Drivers/STM32F1xx_HAL_Driver/Inc/stm32f1xx_ll_bus.h ****       Workarounds:
  19:Drivers/STM32F1xx_HAL_Driver/Inc/stm32f1xx_ll_bus.h ****       (#) For AHB & APB peripherals, a dummy read to the peripheral register has been
  20:Drivers/STM32F1xx_HAL_Driver/Inc/stm32f1xx_ll_bus.h ****           inserted in each LL_{BUS}_GRP{x}_EnableClock() function.
  21:Drivers/STM32F1xx_HAL_Driver/Inc/stm32f1xx_ll_bus.h **** 
  22:Drivers/STM32F1xx_HAL_Driver/Inc/stm32f1xx_ll_bus.h ****   @endverbatim
  23:Drivers/STM32F1xx_HAL_Driver/Inc/stm32f1xx_ll_bus.h ****   ******************************************************************************
  24:Drivers/STM32F1xx_HAL_Driver/Inc/stm32f1xx_ll_bus.h ****   * @attention
  25:Drivers/STM32F1xx_HAL_Driver/Inc/stm32f1xx_ll_bus.h ****   *
  26:Drivers/STM32F1xx_HAL_Driver/Inc/stm32f1xx_ll_bus.h ****   * <h2><center>&copy; COPYRIGHT(c) 2016 STMicroelectronics</center></h2>
  27:Drivers/STM32F1xx_HAL_Driver/Inc/stm32f1xx_ll_bus.h ****   *
  28:Drivers/STM32F1xx_HAL_Driver/Inc/stm32f1xx_ll_bus.h ****   * Redistribution and use in source and binary forms, with or without modification,
  29:Drivers/STM32F1xx_HAL_Driver/Inc/stm32f1xx_ll_bus.h ****   * are permitted provided that the following conditions are met:
  30:Drivers/STM32F1xx_HAL_Driver/Inc/stm32f1xx_ll_bus.h ****   *   1. Redistributions of source code must retain the above copyright notice,
  31:Drivers/STM32F1xx_HAL_Driver/Inc/stm32f1xx_ll_bus.h ****   *      this list of conditions and the following disclaimer.
  32:Drivers/STM32F1xx_HAL_Driver/Inc/stm32f1xx_ll_bus.h ****   *   2. Redistributions in binary form must reproduce the above copyright notice,
  33:Drivers/STM32F1xx_HAL_Driver/Inc/stm32f1xx_ll_bus.h ****   *      this list of conditions and the following disclaimer in the documentation
  34:Drivers/STM32F1xx_HAL_Driver/Inc/stm32f1xx_ll_bus.h ****   *      and/or other materials provided with the distribution.
  35:Drivers/STM32F1xx_HAL_Driver/Inc/stm32f1xx_ll_bus.h ****   *   3. Neither the name of STMicroelectronics nor the names of its contributors
  36:Drivers/STM32F1xx_HAL_Driver/Inc/stm32f1xx_ll_bus.h ****   *      may be used to endorse or promote products derived from this software
  37:Drivers/STM32F1xx_HAL_Driver/Inc/stm32f1xx_ll_bus.h ****   *      without specific prior written permission.
  38:Drivers/STM32F1xx_HAL_Driver/Inc/stm32f1xx_ll_bus.h ****   *
  39:Drivers/STM32F1xx_HAL_Driver/Inc/stm32f1xx_ll_bus.h ****   * THIS SOFTWARE IS PROVIDED BY THE COPYRIGHT HOLDERS AND CONTRIBUTORS "AS IS"
  40:Drivers/STM32F1xx_HAL_Driver/Inc/stm32f1xx_ll_bus.h ****   * AND ANY EXPRESS OR IMPLIED WARRANTIES, INCLUDING, BUT NOT LIMITED TO, THE
  41:Drivers/STM32F1xx_HAL_Driver/Inc/stm32f1xx_ll_bus.h ****   * IMPLIED WARRANTIES OF MERCHANTABILITY AND FITNESS FOR A PARTICULAR PURPOSE ARE
ARM GAS  /tmp/ccY3COIh.s 			page 27


  42:Drivers/STM32F1xx_HAL_Driver/Inc/stm32f1xx_ll_bus.h ****   * DISCLAIMED. IN NO EVENT SHALL THE COPYRIGHT HOLDER OR CONTRIBUTORS BE LIABLE
  43:Drivers/STM32F1xx_HAL_Driver/Inc/stm32f1xx_ll_bus.h ****   * FOR ANY DIRECT, INDIRECT, INCIDENTAL, SPECIAL, EXEMPLARY, OR CONSEQUENTIAL
  44:Drivers/STM32F1xx_HAL_Driver/Inc/stm32f1xx_ll_bus.h ****   * DAMAGES (INCLUDING, BUT NOT LIMITED TO, PROCUREMENT OF SUBSTITUTE GOODS OR
  45:Drivers/STM32F1xx_HAL_Driver/Inc/stm32f1xx_ll_bus.h ****   * SERVICES; LOSS OF USE, DATA, OR PROFITS; OR BUSINESS INTERRUPTION) HOWEVER
  46:Drivers/STM32F1xx_HAL_Driver/Inc/stm32f1xx_ll_bus.h ****   * CAUSED AND ON ANY THEORY OF LIABILITY, WHETHER IN CONTRACT, STRICT LIABILITY,
  47:Drivers/STM32F1xx_HAL_Driver/Inc/stm32f1xx_ll_bus.h ****   * OR TORT (INCLUDING NEGLIGENCE OR OTHERWISE) ARISING IN ANY WAY OUT OF THE USE
  48:Drivers/STM32F1xx_HAL_Driver/Inc/stm32f1xx_ll_bus.h ****   * OF THIS SOFTWARE, EVEN IF ADVISED OF THE POSSIBILITY OF SUCH DAMAGE.
  49:Drivers/STM32F1xx_HAL_Driver/Inc/stm32f1xx_ll_bus.h ****   *
  50:Drivers/STM32F1xx_HAL_Driver/Inc/stm32f1xx_ll_bus.h ****   ******************************************************************************
  51:Drivers/STM32F1xx_HAL_Driver/Inc/stm32f1xx_ll_bus.h ****   */
  52:Drivers/STM32F1xx_HAL_Driver/Inc/stm32f1xx_ll_bus.h **** 
  53:Drivers/STM32F1xx_HAL_Driver/Inc/stm32f1xx_ll_bus.h **** /* Define to prevent recursive inclusion -------------------------------------*/
  54:Drivers/STM32F1xx_HAL_Driver/Inc/stm32f1xx_ll_bus.h **** #ifndef __STM32F1xx_LL_BUS_H
  55:Drivers/STM32F1xx_HAL_Driver/Inc/stm32f1xx_ll_bus.h **** #define __STM32F1xx_LL_BUS_H
  56:Drivers/STM32F1xx_HAL_Driver/Inc/stm32f1xx_ll_bus.h **** 
  57:Drivers/STM32F1xx_HAL_Driver/Inc/stm32f1xx_ll_bus.h **** #ifdef __cplusplus
  58:Drivers/STM32F1xx_HAL_Driver/Inc/stm32f1xx_ll_bus.h **** extern "C" {
  59:Drivers/STM32F1xx_HAL_Driver/Inc/stm32f1xx_ll_bus.h **** #endif
  60:Drivers/STM32F1xx_HAL_Driver/Inc/stm32f1xx_ll_bus.h **** 
  61:Drivers/STM32F1xx_HAL_Driver/Inc/stm32f1xx_ll_bus.h **** /* Includes ------------------------------------------------------------------*/
  62:Drivers/STM32F1xx_HAL_Driver/Inc/stm32f1xx_ll_bus.h **** #include "stm32f1xx.h"
  63:Drivers/STM32F1xx_HAL_Driver/Inc/stm32f1xx_ll_bus.h **** 
  64:Drivers/STM32F1xx_HAL_Driver/Inc/stm32f1xx_ll_bus.h **** /** @addtogroup STM32F1xx_LL_Driver
  65:Drivers/STM32F1xx_HAL_Driver/Inc/stm32f1xx_ll_bus.h ****   * @{
  66:Drivers/STM32F1xx_HAL_Driver/Inc/stm32f1xx_ll_bus.h ****   */
  67:Drivers/STM32F1xx_HAL_Driver/Inc/stm32f1xx_ll_bus.h **** 
  68:Drivers/STM32F1xx_HAL_Driver/Inc/stm32f1xx_ll_bus.h **** #if defined(RCC)
  69:Drivers/STM32F1xx_HAL_Driver/Inc/stm32f1xx_ll_bus.h **** 
  70:Drivers/STM32F1xx_HAL_Driver/Inc/stm32f1xx_ll_bus.h **** /** @defgroup BUS_LL BUS
  71:Drivers/STM32F1xx_HAL_Driver/Inc/stm32f1xx_ll_bus.h ****   * @{
  72:Drivers/STM32F1xx_HAL_Driver/Inc/stm32f1xx_ll_bus.h ****   */
  73:Drivers/STM32F1xx_HAL_Driver/Inc/stm32f1xx_ll_bus.h **** 
  74:Drivers/STM32F1xx_HAL_Driver/Inc/stm32f1xx_ll_bus.h **** /* Private types -------------------------------------------------------------*/
  75:Drivers/STM32F1xx_HAL_Driver/Inc/stm32f1xx_ll_bus.h **** /* Private variables ---------------------------------------------------------*/
  76:Drivers/STM32F1xx_HAL_Driver/Inc/stm32f1xx_ll_bus.h **** 
  77:Drivers/STM32F1xx_HAL_Driver/Inc/stm32f1xx_ll_bus.h **** /* Private constants ---------------------------------------------------------*/
  78:Drivers/STM32F1xx_HAL_Driver/Inc/stm32f1xx_ll_bus.h **** #if defined(RCC_AHBRSTR_OTGFSRST) || defined(RCC_AHBRSTR_ETHMACRST)
  79:Drivers/STM32F1xx_HAL_Driver/Inc/stm32f1xx_ll_bus.h **** #define RCC_AHBRSTR_SUPPORT
  80:Drivers/STM32F1xx_HAL_Driver/Inc/stm32f1xx_ll_bus.h **** #endif /* RCC_AHBRSTR_OTGFSRST || RCC_AHBRSTR_ETHMACRST */
  81:Drivers/STM32F1xx_HAL_Driver/Inc/stm32f1xx_ll_bus.h **** 
  82:Drivers/STM32F1xx_HAL_Driver/Inc/stm32f1xx_ll_bus.h **** /* Private macros ------------------------------------------------------------*/
  83:Drivers/STM32F1xx_HAL_Driver/Inc/stm32f1xx_ll_bus.h **** 
  84:Drivers/STM32F1xx_HAL_Driver/Inc/stm32f1xx_ll_bus.h **** /* Exported types ------------------------------------------------------------*/
  85:Drivers/STM32F1xx_HAL_Driver/Inc/stm32f1xx_ll_bus.h **** /* Exported constants --------------------------------------------------------*/
  86:Drivers/STM32F1xx_HAL_Driver/Inc/stm32f1xx_ll_bus.h **** /** @defgroup BUS_LL_Exported_Constants BUS Exported Constants
  87:Drivers/STM32F1xx_HAL_Driver/Inc/stm32f1xx_ll_bus.h ****   * @{
  88:Drivers/STM32F1xx_HAL_Driver/Inc/stm32f1xx_ll_bus.h ****   */
  89:Drivers/STM32F1xx_HAL_Driver/Inc/stm32f1xx_ll_bus.h **** 
  90:Drivers/STM32F1xx_HAL_Driver/Inc/stm32f1xx_ll_bus.h **** /** @defgroup BUS_LL_EC_AHB1_GRP1_PERIPH  AHB1 GRP1 PERIPH
  91:Drivers/STM32F1xx_HAL_Driver/Inc/stm32f1xx_ll_bus.h ****   * @{
  92:Drivers/STM32F1xx_HAL_Driver/Inc/stm32f1xx_ll_bus.h ****   */
  93:Drivers/STM32F1xx_HAL_Driver/Inc/stm32f1xx_ll_bus.h **** #define LL_AHB1_GRP1_PERIPH_ALL            (uint32_t)0xFFFFFFFFU
  94:Drivers/STM32F1xx_HAL_Driver/Inc/stm32f1xx_ll_bus.h **** #define LL_AHB1_GRP1_PERIPH_CRC            RCC_AHBENR_CRCEN
  95:Drivers/STM32F1xx_HAL_Driver/Inc/stm32f1xx_ll_bus.h **** #define LL_AHB1_GRP1_PERIPH_DMA1           RCC_AHBENR_DMA1EN
  96:Drivers/STM32F1xx_HAL_Driver/Inc/stm32f1xx_ll_bus.h **** #if defined(DMA2)
  97:Drivers/STM32F1xx_HAL_Driver/Inc/stm32f1xx_ll_bus.h **** #define LL_AHB1_GRP1_PERIPH_DMA2           RCC_AHBENR_DMA2EN
  98:Drivers/STM32F1xx_HAL_Driver/Inc/stm32f1xx_ll_bus.h **** #endif /*DMA2*/
ARM GAS  /tmp/ccY3COIh.s 			page 28


  99:Drivers/STM32F1xx_HAL_Driver/Inc/stm32f1xx_ll_bus.h **** #if defined(ETH)
 100:Drivers/STM32F1xx_HAL_Driver/Inc/stm32f1xx_ll_bus.h **** #define LL_AHB1_GRP1_PERIPH_ETHMAC         RCC_AHBENR_ETHMACEN
 101:Drivers/STM32F1xx_HAL_Driver/Inc/stm32f1xx_ll_bus.h **** #define LL_AHB1_GRP1_PERIPH_ETHMACRX       RCC_AHBENR_ETHMACRXEN
 102:Drivers/STM32F1xx_HAL_Driver/Inc/stm32f1xx_ll_bus.h **** #define LL_AHB1_GRP1_PERIPH_ETHMACTX       RCC_AHBENR_ETHMACTXEN
 103:Drivers/STM32F1xx_HAL_Driver/Inc/stm32f1xx_ll_bus.h **** #endif /*ETH*/
 104:Drivers/STM32F1xx_HAL_Driver/Inc/stm32f1xx_ll_bus.h **** #define LL_AHB1_GRP1_PERIPH_FLASH          RCC_AHBENR_FLITFEN
 105:Drivers/STM32F1xx_HAL_Driver/Inc/stm32f1xx_ll_bus.h **** #if defined(FSMC_Bank1)
 106:Drivers/STM32F1xx_HAL_Driver/Inc/stm32f1xx_ll_bus.h **** #define LL_AHB1_GRP1_PERIPH_FSMC           RCC_AHBENR_FSMCEN
 107:Drivers/STM32F1xx_HAL_Driver/Inc/stm32f1xx_ll_bus.h **** #endif /*FSMC_Bank1*/
 108:Drivers/STM32F1xx_HAL_Driver/Inc/stm32f1xx_ll_bus.h **** #if defined(USB_OTG_FS)
 109:Drivers/STM32F1xx_HAL_Driver/Inc/stm32f1xx_ll_bus.h **** #define LL_AHB1_GRP1_PERIPH_OTGFS          RCC_AHBENR_OTGFSEN
 110:Drivers/STM32F1xx_HAL_Driver/Inc/stm32f1xx_ll_bus.h **** #endif /*USB_OTG_FS*/
 111:Drivers/STM32F1xx_HAL_Driver/Inc/stm32f1xx_ll_bus.h **** #if defined(SDIO)
 112:Drivers/STM32F1xx_HAL_Driver/Inc/stm32f1xx_ll_bus.h **** #define LL_AHB1_GRP1_PERIPH_SDIO           RCC_AHBENR_SDIOEN
 113:Drivers/STM32F1xx_HAL_Driver/Inc/stm32f1xx_ll_bus.h **** #endif /*SDIO*/
 114:Drivers/STM32F1xx_HAL_Driver/Inc/stm32f1xx_ll_bus.h **** #define LL_AHB1_GRP1_PERIPH_SRAM           RCC_AHBENR_SRAMEN
 115:Drivers/STM32F1xx_HAL_Driver/Inc/stm32f1xx_ll_bus.h **** /**
 116:Drivers/STM32F1xx_HAL_Driver/Inc/stm32f1xx_ll_bus.h ****   * @}
 117:Drivers/STM32F1xx_HAL_Driver/Inc/stm32f1xx_ll_bus.h ****   */
 118:Drivers/STM32F1xx_HAL_Driver/Inc/stm32f1xx_ll_bus.h **** 
 119:Drivers/STM32F1xx_HAL_Driver/Inc/stm32f1xx_ll_bus.h **** /** @defgroup BUS_LL_EC_APB1_GRP1_PERIPH  APB1 GRP1 PERIPH
 120:Drivers/STM32F1xx_HAL_Driver/Inc/stm32f1xx_ll_bus.h ****   * @{
 121:Drivers/STM32F1xx_HAL_Driver/Inc/stm32f1xx_ll_bus.h ****   */
 122:Drivers/STM32F1xx_HAL_Driver/Inc/stm32f1xx_ll_bus.h **** #define LL_APB1_GRP1_PERIPH_ALL            (uint32_t)0xFFFFFFFFU
 123:Drivers/STM32F1xx_HAL_Driver/Inc/stm32f1xx_ll_bus.h **** #define LL_APB1_GRP1_PERIPH_BKP            RCC_APB1ENR_BKPEN
 124:Drivers/STM32F1xx_HAL_Driver/Inc/stm32f1xx_ll_bus.h **** #if defined(CAN1)
 125:Drivers/STM32F1xx_HAL_Driver/Inc/stm32f1xx_ll_bus.h **** #define LL_APB1_GRP1_PERIPH_CAN1           RCC_APB1ENR_CAN1EN
 126:Drivers/STM32F1xx_HAL_Driver/Inc/stm32f1xx_ll_bus.h **** #endif /*CAN1*/
 127:Drivers/STM32F1xx_HAL_Driver/Inc/stm32f1xx_ll_bus.h **** #if defined(CAN2)
 128:Drivers/STM32F1xx_HAL_Driver/Inc/stm32f1xx_ll_bus.h **** #define LL_APB1_GRP1_PERIPH_CAN2           RCC_APB1ENR_CAN2EN
 129:Drivers/STM32F1xx_HAL_Driver/Inc/stm32f1xx_ll_bus.h **** #endif /*CAN2*/
 130:Drivers/STM32F1xx_HAL_Driver/Inc/stm32f1xx_ll_bus.h **** #if defined(CEC)
 131:Drivers/STM32F1xx_HAL_Driver/Inc/stm32f1xx_ll_bus.h **** #define LL_APB1_GRP1_PERIPH_CEC            RCC_APB1ENR_CECEN
 132:Drivers/STM32F1xx_HAL_Driver/Inc/stm32f1xx_ll_bus.h **** #endif /*CEC*/
 133:Drivers/STM32F1xx_HAL_Driver/Inc/stm32f1xx_ll_bus.h **** #if defined(DAC)
 134:Drivers/STM32F1xx_HAL_Driver/Inc/stm32f1xx_ll_bus.h **** #define LL_APB1_GRP1_PERIPH_DAC1           RCC_APB1ENR_DACEN
 135:Drivers/STM32F1xx_HAL_Driver/Inc/stm32f1xx_ll_bus.h **** #endif /*DAC*/
 136:Drivers/STM32F1xx_HAL_Driver/Inc/stm32f1xx_ll_bus.h **** #define LL_APB1_GRP1_PERIPH_I2C1           RCC_APB1ENR_I2C1EN
 137:Drivers/STM32F1xx_HAL_Driver/Inc/stm32f1xx_ll_bus.h **** #if defined(I2C2)
 138:Drivers/STM32F1xx_HAL_Driver/Inc/stm32f1xx_ll_bus.h **** #define LL_APB1_GRP1_PERIPH_I2C2           RCC_APB1ENR_I2C2EN
 139:Drivers/STM32F1xx_HAL_Driver/Inc/stm32f1xx_ll_bus.h **** #endif /*I2C2*/
 140:Drivers/STM32F1xx_HAL_Driver/Inc/stm32f1xx_ll_bus.h **** #define LL_APB1_GRP1_PERIPH_PWR            RCC_APB1ENR_PWREN
 141:Drivers/STM32F1xx_HAL_Driver/Inc/stm32f1xx_ll_bus.h **** #if defined(SPI2)
 142:Drivers/STM32F1xx_HAL_Driver/Inc/stm32f1xx_ll_bus.h **** #define LL_APB1_GRP1_PERIPH_SPI2           RCC_APB1ENR_SPI2EN
 143:Drivers/STM32F1xx_HAL_Driver/Inc/stm32f1xx_ll_bus.h **** #endif /*SPI2*/
 144:Drivers/STM32F1xx_HAL_Driver/Inc/stm32f1xx_ll_bus.h **** #if defined(SPI3)
 145:Drivers/STM32F1xx_HAL_Driver/Inc/stm32f1xx_ll_bus.h **** #define LL_APB1_GRP1_PERIPH_SPI3           RCC_APB1ENR_SPI3EN
 146:Drivers/STM32F1xx_HAL_Driver/Inc/stm32f1xx_ll_bus.h **** #endif /*SPI3*/
 147:Drivers/STM32F1xx_HAL_Driver/Inc/stm32f1xx_ll_bus.h **** #if defined(TIM12)
 148:Drivers/STM32F1xx_HAL_Driver/Inc/stm32f1xx_ll_bus.h **** #define LL_APB1_GRP1_PERIPH_TIM12          RCC_APB1ENR_TIM12EN
 149:Drivers/STM32F1xx_HAL_Driver/Inc/stm32f1xx_ll_bus.h **** #endif /*TIM12*/
 150:Drivers/STM32F1xx_HAL_Driver/Inc/stm32f1xx_ll_bus.h **** #if defined(TIM13)
 151:Drivers/STM32F1xx_HAL_Driver/Inc/stm32f1xx_ll_bus.h **** #define LL_APB1_GRP1_PERIPH_TIM13          RCC_APB1ENR_TIM13EN
 152:Drivers/STM32F1xx_HAL_Driver/Inc/stm32f1xx_ll_bus.h **** #endif /*TIM13*/
 153:Drivers/STM32F1xx_HAL_Driver/Inc/stm32f1xx_ll_bus.h **** #if defined(TIM14)
 154:Drivers/STM32F1xx_HAL_Driver/Inc/stm32f1xx_ll_bus.h **** #define LL_APB1_GRP1_PERIPH_TIM14          RCC_APB1ENR_TIM14EN
 155:Drivers/STM32F1xx_HAL_Driver/Inc/stm32f1xx_ll_bus.h **** #endif /*TIM14*/
ARM GAS  /tmp/ccY3COIh.s 			page 29


 156:Drivers/STM32F1xx_HAL_Driver/Inc/stm32f1xx_ll_bus.h **** #define LL_APB1_GRP1_PERIPH_TIM2           RCC_APB1ENR_TIM2EN
 157:Drivers/STM32F1xx_HAL_Driver/Inc/stm32f1xx_ll_bus.h **** #define LL_APB1_GRP1_PERIPH_TIM3           RCC_APB1ENR_TIM3EN
 158:Drivers/STM32F1xx_HAL_Driver/Inc/stm32f1xx_ll_bus.h **** #if defined(TIM4)
 159:Drivers/STM32F1xx_HAL_Driver/Inc/stm32f1xx_ll_bus.h **** #define LL_APB1_GRP1_PERIPH_TIM4           RCC_APB1ENR_TIM4EN
 160:Drivers/STM32F1xx_HAL_Driver/Inc/stm32f1xx_ll_bus.h **** #endif /*TIM4*/
 161:Drivers/STM32F1xx_HAL_Driver/Inc/stm32f1xx_ll_bus.h **** #if defined(TIM5)
 162:Drivers/STM32F1xx_HAL_Driver/Inc/stm32f1xx_ll_bus.h **** #define LL_APB1_GRP1_PERIPH_TIM5           RCC_APB1ENR_TIM5EN
 163:Drivers/STM32F1xx_HAL_Driver/Inc/stm32f1xx_ll_bus.h **** #endif /*TIM5*/
 164:Drivers/STM32F1xx_HAL_Driver/Inc/stm32f1xx_ll_bus.h **** #if defined(TIM6)
 165:Drivers/STM32F1xx_HAL_Driver/Inc/stm32f1xx_ll_bus.h **** #define LL_APB1_GRP1_PERIPH_TIM6           RCC_APB1ENR_TIM6EN
 166:Drivers/STM32F1xx_HAL_Driver/Inc/stm32f1xx_ll_bus.h **** #endif /*TIM6*/
 167:Drivers/STM32F1xx_HAL_Driver/Inc/stm32f1xx_ll_bus.h **** #if defined(TIM7)
 168:Drivers/STM32F1xx_HAL_Driver/Inc/stm32f1xx_ll_bus.h **** #define LL_APB1_GRP1_PERIPH_TIM7           RCC_APB1ENR_TIM7EN
 169:Drivers/STM32F1xx_HAL_Driver/Inc/stm32f1xx_ll_bus.h **** #endif /*TIM7*/
 170:Drivers/STM32F1xx_HAL_Driver/Inc/stm32f1xx_ll_bus.h **** #if defined(UART4)
 171:Drivers/STM32F1xx_HAL_Driver/Inc/stm32f1xx_ll_bus.h **** #define LL_APB1_GRP1_PERIPH_UART4          RCC_APB1ENR_UART4EN
 172:Drivers/STM32F1xx_HAL_Driver/Inc/stm32f1xx_ll_bus.h **** #endif /*UART4*/
 173:Drivers/STM32F1xx_HAL_Driver/Inc/stm32f1xx_ll_bus.h **** #if defined(UART5)
 174:Drivers/STM32F1xx_HAL_Driver/Inc/stm32f1xx_ll_bus.h **** #define LL_APB1_GRP1_PERIPH_UART5          RCC_APB1ENR_UART5EN
 175:Drivers/STM32F1xx_HAL_Driver/Inc/stm32f1xx_ll_bus.h **** #endif /*UART5*/
 176:Drivers/STM32F1xx_HAL_Driver/Inc/stm32f1xx_ll_bus.h **** #define LL_APB1_GRP1_PERIPH_USART2         RCC_APB1ENR_USART2EN
 177:Drivers/STM32F1xx_HAL_Driver/Inc/stm32f1xx_ll_bus.h **** #if defined(USART3)
 178:Drivers/STM32F1xx_HAL_Driver/Inc/stm32f1xx_ll_bus.h **** #define LL_APB1_GRP1_PERIPH_USART3         RCC_APB1ENR_USART3EN
 179:Drivers/STM32F1xx_HAL_Driver/Inc/stm32f1xx_ll_bus.h **** #endif /*USART3*/
 180:Drivers/STM32F1xx_HAL_Driver/Inc/stm32f1xx_ll_bus.h **** #if defined(USB)
 181:Drivers/STM32F1xx_HAL_Driver/Inc/stm32f1xx_ll_bus.h **** #define LL_APB1_GRP1_PERIPH_USB            RCC_APB1ENR_USBEN
 182:Drivers/STM32F1xx_HAL_Driver/Inc/stm32f1xx_ll_bus.h **** #endif /*USB*/
 183:Drivers/STM32F1xx_HAL_Driver/Inc/stm32f1xx_ll_bus.h **** #define LL_APB1_GRP1_PERIPH_WWDG           RCC_APB1ENR_WWDGEN
 184:Drivers/STM32F1xx_HAL_Driver/Inc/stm32f1xx_ll_bus.h **** /**
 185:Drivers/STM32F1xx_HAL_Driver/Inc/stm32f1xx_ll_bus.h ****   * @}
 186:Drivers/STM32F1xx_HAL_Driver/Inc/stm32f1xx_ll_bus.h ****   */
 187:Drivers/STM32F1xx_HAL_Driver/Inc/stm32f1xx_ll_bus.h **** 
 188:Drivers/STM32F1xx_HAL_Driver/Inc/stm32f1xx_ll_bus.h **** /** @defgroup BUS_LL_EC_APB2_GRP1_PERIPH  APB2 GRP1 PERIPH
 189:Drivers/STM32F1xx_HAL_Driver/Inc/stm32f1xx_ll_bus.h ****   * @{
 190:Drivers/STM32F1xx_HAL_Driver/Inc/stm32f1xx_ll_bus.h ****   */
 191:Drivers/STM32F1xx_HAL_Driver/Inc/stm32f1xx_ll_bus.h **** #define LL_APB2_GRP1_PERIPH_ALL            (uint32_t)0xFFFFFFFFU
 192:Drivers/STM32F1xx_HAL_Driver/Inc/stm32f1xx_ll_bus.h **** #define LL_APB2_GRP1_PERIPH_ADC1           RCC_APB2ENR_ADC1EN
 193:Drivers/STM32F1xx_HAL_Driver/Inc/stm32f1xx_ll_bus.h **** #if defined(ADC2)
 194:Drivers/STM32F1xx_HAL_Driver/Inc/stm32f1xx_ll_bus.h **** #define LL_APB2_GRP1_PERIPH_ADC2           RCC_APB2ENR_ADC2EN
 195:Drivers/STM32F1xx_HAL_Driver/Inc/stm32f1xx_ll_bus.h **** #endif /*ADC2*/
 196:Drivers/STM32F1xx_HAL_Driver/Inc/stm32f1xx_ll_bus.h **** #if defined(ADC3)
 197:Drivers/STM32F1xx_HAL_Driver/Inc/stm32f1xx_ll_bus.h **** #define LL_APB2_GRP1_PERIPH_ADC3           RCC_APB2ENR_ADC3EN
 198:Drivers/STM32F1xx_HAL_Driver/Inc/stm32f1xx_ll_bus.h **** #endif /*ADC3*/
 199:Drivers/STM32F1xx_HAL_Driver/Inc/stm32f1xx_ll_bus.h **** #define LL_APB2_GRP1_PERIPH_AFIO           RCC_APB2ENR_AFIOEN
 200:Drivers/STM32F1xx_HAL_Driver/Inc/stm32f1xx_ll_bus.h **** #define LL_APB2_GRP1_PERIPH_GPIOA          RCC_APB2ENR_IOPAEN
 201:Drivers/STM32F1xx_HAL_Driver/Inc/stm32f1xx_ll_bus.h **** #define LL_APB2_GRP1_PERIPH_GPIOB          RCC_APB2ENR_IOPBEN
 202:Drivers/STM32F1xx_HAL_Driver/Inc/stm32f1xx_ll_bus.h **** #define LL_APB2_GRP1_PERIPH_GPIOC          RCC_APB2ENR_IOPCEN
 203:Drivers/STM32F1xx_HAL_Driver/Inc/stm32f1xx_ll_bus.h **** #define LL_APB2_GRP1_PERIPH_GPIOD          RCC_APB2ENR_IOPDEN
 204:Drivers/STM32F1xx_HAL_Driver/Inc/stm32f1xx_ll_bus.h **** #if defined(GPIOE)
 205:Drivers/STM32F1xx_HAL_Driver/Inc/stm32f1xx_ll_bus.h **** #define LL_APB2_GRP1_PERIPH_GPIOE          RCC_APB2ENR_IOPEEN
 206:Drivers/STM32F1xx_HAL_Driver/Inc/stm32f1xx_ll_bus.h **** #endif /*GPIOE*/
 207:Drivers/STM32F1xx_HAL_Driver/Inc/stm32f1xx_ll_bus.h **** #if defined(GPIOF)
 208:Drivers/STM32F1xx_HAL_Driver/Inc/stm32f1xx_ll_bus.h **** #define LL_APB2_GRP1_PERIPH_GPIOF          RCC_APB2ENR_IOPFEN
 209:Drivers/STM32F1xx_HAL_Driver/Inc/stm32f1xx_ll_bus.h **** #endif /*GPIOF*/
 210:Drivers/STM32F1xx_HAL_Driver/Inc/stm32f1xx_ll_bus.h **** #if defined(GPIOG)
 211:Drivers/STM32F1xx_HAL_Driver/Inc/stm32f1xx_ll_bus.h **** #define LL_APB2_GRP1_PERIPH_GPIOG          RCC_APB2ENR_IOPGEN
 212:Drivers/STM32F1xx_HAL_Driver/Inc/stm32f1xx_ll_bus.h **** #endif /*GPIOG*/
ARM GAS  /tmp/ccY3COIh.s 			page 30


 213:Drivers/STM32F1xx_HAL_Driver/Inc/stm32f1xx_ll_bus.h **** #define LL_APB2_GRP1_PERIPH_SPI1           RCC_APB2ENR_SPI1EN
 214:Drivers/STM32F1xx_HAL_Driver/Inc/stm32f1xx_ll_bus.h **** #if defined(TIM10)
 215:Drivers/STM32F1xx_HAL_Driver/Inc/stm32f1xx_ll_bus.h **** #define LL_APB2_GRP1_PERIPH_TIM10          RCC_APB2ENR_TIM10EN
 216:Drivers/STM32F1xx_HAL_Driver/Inc/stm32f1xx_ll_bus.h **** #endif /*TIM10*/
 217:Drivers/STM32F1xx_HAL_Driver/Inc/stm32f1xx_ll_bus.h **** #if defined(TIM11)
 218:Drivers/STM32F1xx_HAL_Driver/Inc/stm32f1xx_ll_bus.h **** #define LL_APB2_GRP1_PERIPH_TIM11          RCC_APB2ENR_TIM11EN
 219:Drivers/STM32F1xx_HAL_Driver/Inc/stm32f1xx_ll_bus.h **** #endif /*TIM11*/
 220:Drivers/STM32F1xx_HAL_Driver/Inc/stm32f1xx_ll_bus.h **** #if defined(TIM15)
 221:Drivers/STM32F1xx_HAL_Driver/Inc/stm32f1xx_ll_bus.h **** #define LL_APB2_GRP1_PERIPH_TIM15          RCC_APB2ENR_TIM15EN
 222:Drivers/STM32F1xx_HAL_Driver/Inc/stm32f1xx_ll_bus.h **** #endif /*TIM15*/
 223:Drivers/STM32F1xx_HAL_Driver/Inc/stm32f1xx_ll_bus.h **** #if defined(TIM16)
 224:Drivers/STM32F1xx_HAL_Driver/Inc/stm32f1xx_ll_bus.h **** #define LL_APB2_GRP1_PERIPH_TIM16          RCC_APB2ENR_TIM16EN
 225:Drivers/STM32F1xx_HAL_Driver/Inc/stm32f1xx_ll_bus.h **** #endif /*TIM16*/
 226:Drivers/STM32F1xx_HAL_Driver/Inc/stm32f1xx_ll_bus.h **** #if defined(TIM17)
 227:Drivers/STM32F1xx_HAL_Driver/Inc/stm32f1xx_ll_bus.h **** #define LL_APB2_GRP1_PERIPH_TIM17          RCC_APB2ENR_TIM17EN
 228:Drivers/STM32F1xx_HAL_Driver/Inc/stm32f1xx_ll_bus.h **** #endif /*TIM17*/
 229:Drivers/STM32F1xx_HAL_Driver/Inc/stm32f1xx_ll_bus.h **** #define LL_APB2_GRP1_PERIPH_TIM1           RCC_APB2ENR_TIM1EN
 230:Drivers/STM32F1xx_HAL_Driver/Inc/stm32f1xx_ll_bus.h **** #if defined(TIM8)
 231:Drivers/STM32F1xx_HAL_Driver/Inc/stm32f1xx_ll_bus.h **** #define LL_APB2_GRP1_PERIPH_TIM8           RCC_APB2ENR_TIM8EN
 232:Drivers/STM32F1xx_HAL_Driver/Inc/stm32f1xx_ll_bus.h **** #endif /*TIM8*/
 233:Drivers/STM32F1xx_HAL_Driver/Inc/stm32f1xx_ll_bus.h **** #if defined(TIM9)
 234:Drivers/STM32F1xx_HAL_Driver/Inc/stm32f1xx_ll_bus.h **** #define LL_APB2_GRP1_PERIPH_TIM9           RCC_APB2ENR_TIM9EN
 235:Drivers/STM32F1xx_HAL_Driver/Inc/stm32f1xx_ll_bus.h **** #endif /*TIM9*/
 236:Drivers/STM32F1xx_HAL_Driver/Inc/stm32f1xx_ll_bus.h **** #define LL_APB2_GRP1_PERIPH_USART1         RCC_APB2ENR_USART1EN
 237:Drivers/STM32F1xx_HAL_Driver/Inc/stm32f1xx_ll_bus.h **** /**
 238:Drivers/STM32F1xx_HAL_Driver/Inc/stm32f1xx_ll_bus.h ****   * @}
 239:Drivers/STM32F1xx_HAL_Driver/Inc/stm32f1xx_ll_bus.h ****   */
 240:Drivers/STM32F1xx_HAL_Driver/Inc/stm32f1xx_ll_bus.h **** 
 241:Drivers/STM32F1xx_HAL_Driver/Inc/stm32f1xx_ll_bus.h **** /**
 242:Drivers/STM32F1xx_HAL_Driver/Inc/stm32f1xx_ll_bus.h ****   * @}
 243:Drivers/STM32F1xx_HAL_Driver/Inc/stm32f1xx_ll_bus.h ****   */
 244:Drivers/STM32F1xx_HAL_Driver/Inc/stm32f1xx_ll_bus.h **** 
 245:Drivers/STM32F1xx_HAL_Driver/Inc/stm32f1xx_ll_bus.h **** /* Exported macro ------------------------------------------------------------*/
 246:Drivers/STM32F1xx_HAL_Driver/Inc/stm32f1xx_ll_bus.h **** 
 247:Drivers/STM32F1xx_HAL_Driver/Inc/stm32f1xx_ll_bus.h **** /* Exported functions --------------------------------------------------------*/
 248:Drivers/STM32F1xx_HAL_Driver/Inc/stm32f1xx_ll_bus.h **** /** @defgroup BUS_LL_Exported_Functions BUS Exported Functions
 249:Drivers/STM32F1xx_HAL_Driver/Inc/stm32f1xx_ll_bus.h ****   * @{
 250:Drivers/STM32F1xx_HAL_Driver/Inc/stm32f1xx_ll_bus.h ****   */
 251:Drivers/STM32F1xx_HAL_Driver/Inc/stm32f1xx_ll_bus.h **** 
 252:Drivers/STM32F1xx_HAL_Driver/Inc/stm32f1xx_ll_bus.h **** /** @defgroup BUS_LL_EF_AHB1 AHB1
 253:Drivers/STM32F1xx_HAL_Driver/Inc/stm32f1xx_ll_bus.h ****   * @{
 254:Drivers/STM32F1xx_HAL_Driver/Inc/stm32f1xx_ll_bus.h ****   */
 255:Drivers/STM32F1xx_HAL_Driver/Inc/stm32f1xx_ll_bus.h **** 
 256:Drivers/STM32F1xx_HAL_Driver/Inc/stm32f1xx_ll_bus.h **** /**
 257:Drivers/STM32F1xx_HAL_Driver/Inc/stm32f1xx_ll_bus.h ****   * @brief  Enable AHB1 peripherals clock.
 258:Drivers/STM32F1xx_HAL_Driver/Inc/stm32f1xx_ll_bus.h ****   * @rmtoll AHBENR       CRCEN         LL_AHB1_GRP1_EnableClock\n
 259:Drivers/STM32F1xx_HAL_Driver/Inc/stm32f1xx_ll_bus.h ****   *         AHBENR       DMA1EN        LL_AHB1_GRP1_EnableClock\n
 260:Drivers/STM32F1xx_HAL_Driver/Inc/stm32f1xx_ll_bus.h ****   *         AHBENR       DMA2EN        LL_AHB1_GRP1_EnableClock\n
 261:Drivers/STM32F1xx_HAL_Driver/Inc/stm32f1xx_ll_bus.h ****   *         AHBENR       ETHMACEN      LL_AHB1_GRP1_EnableClock\n
 262:Drivers/STM32F1xx_HAL_Driver/Inc/stm32f1xx_ll_bus.h ****   *         AHBENR       ETHMACRXEN    LL_AHB1_GRP1_EnableClock\n
 263:Drivers/STM32F1xx_HAL_Driver/Inc/stm32f1xx_ll_bus.h ****   *         AHBENR       ETHMACTXEN    LL_AHB1_GRP1_EnableClock\n
 264:Drivers/STM32F1xx_HAL_Driver/Inc/stm32f1xx_ll_bus.h ****   *         AHBENR       FLITFEN       LL_AHB1_GRP1_EnableClock\n
 265:Drivers/STM32F1xx_HAL_Driver/Inc/stm32f1xx_ll_bus.h ****   *         AHBENR       FSMCEN        LL_AHB1_GRP1_EnableClock\n
 266:Drivers/STM32F1xx_HAL_Driver/Inc/stm32f1xx_ll_bus.h ****   *         AHBENR       OTGFSEN       LL_AHB1_GRP1_EnableClock\n
 267:Drivers/STM32F1xx_HAL_Driver/Inc/stm32f1xx_ll_bus.h ****   *         AHBENR       SDIOEN        LL_AHB1_GRP1_EnableClock\n
 268:Drivers/STM32F1xx_HAL_Driver/Inc/stm32f1xx_ll_bus.h ****   *         AHBENR       SRAMEN        LL_AHB1_GRP1_EnableClock
 269:Drivers/STM32F1xx_HAL_Driver/Inc/stm32f1xx_ll_bus.h ****   * @param  Periphs This parameter can be a combination of the following values:
ARM GAS  /tmp/ccY3COIh.s 			page 31


 270:Drivers/STM32F1xx_HAL_Driver/Inc/stm32f1xx_ll_bus.h ****   *         @arg @ref LL_AHB1_GRP1_PERIPH_CRC
 271:Drivers/STM32F1xx_HAL_Driver/Inc/stm32f1xx_ll_bus.h ****   *         @arg @ref LL_AHB1_GRP1_PERIPH_DMA1
 272:Drivers/STM32F1xx_HAL_Driver/Inc/stm32f1xx_ll_bus.h ****   *         @arg @ref LL_AHB1_GRP1_PERIPH_DMA2 (*)
 273:Drivers/STM32F1xx_HAL_Driver/Inc/stm32f1xx_ll_bus.h ****   *         @arg @ref LL_AHB1_GRP1_PERIPH_ETHMAC (*)
 274:Drivers/STM32F1xx_HAL_Driver/Inc/stm32f1xx_ll_bus.h ****   *         @arg @ref LL_AHB1_GRP1_PERIPH_ETHMACRX (*)
 275:Drivers/STM32F1xx_HAL_Driver/Inc/stm32f1xx_ll_bus.h ****   *         @arg @ref LL_AHB1_GRP1_PERIPH_ETHMACTX (*)
 276:Drivers/STM32F1xx_HAL_Driver/Inc/stm32f1xx_ll_bus.h ****   *         @arg @ref LL_AHB1_GRP1_PERIPH_FLASH
 277:Drivers/STM32F1xx_HAL_Driver/Inc/stm32f1xx_ll_bus.h ****   *         @arg @ref LL_AHB1_GRP1_PERIPH_FSMC (*)
 278:Drivers/STM32F1xx_HAL_Driver/Inc/stm32f1xx_ll_bus.h ****   *         @arg @ref LL_AHB1_GRP1_PERIPH_OTGFS (*)
 279:Drivers/STM32F1xx_HAL_Driver/Inc/stm32f1xx_ll_bus.h ****   *         @arg @ref LL_AHB1_GRP1_PERIPH_SDIO (*)
 280:Drivers/STM32F1xx_HAL_Driver/Inc/stm32f1xx_ll_bus.h ****   *         @arg @ref LL_AHB1_GRP1_PERIPH_SRAM
 281:Drivers/STM32F1xx_HAL_Driver/Inc/stm32f1xx_ll_bus.h ****   *
 282:Drivers/STM32F1xx_HAL_Driver/Inc/stm32f1xx_ll_bus.h ****   *         (*) value not defined in all devices.
 283:Drivers/STM32F1xx_HAL_Driver/Inc/stm32f1xx_ll_bus.h ****   * @retval None
 284:Drivers/STM32F1xx_HAL_Driver/Inc/stm32f1xx_ll_bus.h **** */
 285:Drivers/STM32F1xx_HAL_Driver/Inc/stm32f1xx_ll_bus.h **** __STATIC_INLINE void LL_AHB1_GRP1_EnableClock(uint32_t Periphs)
 286:Drivers/STM32F1xx_HAL_Driver/Inc/stm32f1xx_ll_bus.h **** {
 287:Drivers/STM32F1xx_HAL_Driver/Inc/stm32f1xx_ll_bus.h ****   __IO uint32_t tmpreg;
 288:Drivers/STM32F1xx_HAL_Driver/Inc/stm32f1xx_ll_bus.h ****   SET_BIT(RCC->AHBENR, Periphs);
 289:Drivers/STM32F1xx_HAL_Driver/Inc/stm32f1xx_ll_bus.h ****   /* Delay after an RCC peripheral clock enabling */
 290:Drivers/STM32F1xx_HAL_Driver/Inc/stm32f1xx_ll_bus.h ****   tmpreg = READ_BIT(RCC->AHBENR, Periphs);
 291:Drivers/STM32F1xx_HAL_Driver/Inc/stm32f1xx_ll_bus.h ****   (void)tmpreg;
 292:Drivers/STM32F1xx_HAL_Driver/Inc/stm32f1xx_ll_bus.h **** }
 293:Drivers/STM32F1xx_HAL_Driver/Inc/stm32f1xx_ll_bus.h **** 
 294:Drivers/STM32F1xx_HAL_Driver/Inc/stm32f1xx_ll_bus.h **** /**
 295:Drivers/STM32F1xx_HAL_Driver/Inc/stm32f1xx_ll_bus.h ****   * @brief  Check if AHB1 peripheral clock is enabled or not
 296:Drivers/STM32F1xx_HAL_Driver/Inc/stm32f1xx_ll_bus.h ****   * @rmtoll AHBENR       CRCEN         LL_AHB1_GRP1_IsEnabledClock\n
 297:Drivers/STM32F1xx_HAL_Driver/Inc/stm32f1xx_ll_bus.h ****   *         AHBENR       DMA1EN        LL_AHB1_GRP1_IsEnabledClock\n
 298:Drivers/STM32F1xx_HAL_Driver/Inc/stm32f1xx_ll_bus.h ****   *         AHBENR       DMA2EN        LL_AHB1_GRP1_IsEnabledClock\n
 299:Drivers/STM32F1xx_HAL_Driver/Inc/stm32f1xx_ll_bus.h ****   *         AHBENR       ETHMACEN      LL_AHB1_GRP1_IsEnabledClock\n
 300:Drivers/STM32F1xx_HAL_Driver/Inc/stm32f1xx_ll_bus.h ****   *         AHBENR       ETHMACRXEN    LL_AHB1_GRP1_IsEnabledClock\n
 301:Drivers/STM32F1xx_HAL_Driver/Inc/stm32f1xx_ll_bus.h ****   *         AHBENR       ETHMACTXEN    LL_AHB1_GRP1_IsEnabledClock\n
 302:Drivers/STM32F1xx_HAL_Driver/Inc/stm32f1xx_ll_bus.h ****   *         AHBENR       FLITFEN       LL_AHB1_GRP1_IsEnabledClock\n
 303:Drivers/STM32F1xx_HAL_Driver/Inc/stm32f1xx_ll_bus.h ****   *         AHBENR       FSMCEN        LL_AHB1_GRP1_IsEnabledClock\n
 304:Drivers/STM32F1xx_HAL_Driver/Inc/stm32f1xx_ll_bus.h ****   *         AHBENR       OTGFSEN       LL_AHB1_GRP1_IsEnabledClock\n
 305:Drivers/STM32F1xx_HAL_Driver/Inc/stm32f1xx_ll_bus.h ****   *         AHBENR       SDIOEN        LL_AHB1_GRP1_IsEnabledClock\n
 306:Drivers/STM32F1xx_HAL_Driver/Inc/stm32f1xx_ll_bus.h ****   *         AHBENR       SRAMEN        LL_AHB1_GRP1_IsEnabledClock
 307:Drivers/STM32F1xx_HAL_Driver/Inc/stm32f1xx_ll_bus.h ****   * @param  Periphs This parameter can be a combination of the following values:
 308:Drivers/STM32F1xx_HAL_Driver/Inc/stm32f1xx_ll_bus.h ****   *         @arg @ref LL_AHB1_GRP1_PERIPH_CRC
 309:Drivers/STM32F1xx_HAL_Driver/Inc/stm32f1xx_ll_bus.h ****   *         @arg @ref LL_AHB1_GRP1_PERIPH_DMA1
 310:Drivers/STM32F1xx_HAL_Driver/Inc/stm32f1xx_ll_bus.h ****   *         @arg @ref LL_AHB1_GRP1_PERIPH_DMA2 (*)
 311:Drivers/STM32F1xx_HAL_Driver/Inc/stm32f1xx_ll_bus.h ****   *         @arg @ref LL_AHB1_GRP1_PERIPH_ETHMAC (*)
 312:Drivers/STM32F1xx_HAL_Driver/Inc/stm32f1xx_ll_bus.h ****   *         @arg @ref LL_AHB1_GRP1_PERIPH_ETHMACRX (*)
 313:Drivers/STM32F1xx_HAL_Driver/Inc/stm32f1xx_ll_bus.h ****   *         @arg @ref LL_AHB1_GRP1_PERIPH_ETHMACTX (*)
 314:Drivers/STM32F1xx_HAL_Driver/Inc/stm32f1xx_ll_bus.h ****   *         @arg @ref LL_AHB1_GRP1_PERIPH_FLASH
 315:Drivers/STM32F1xx_HAL_Driver/Inc/stm32f1xx_ll_bus.h ****   *         @arg @ref LL_AHB1_GRP1_PERIPH_FSMC (*)
 316:Drivers/STM32F1xx_HAL_Driver/Inc/stm32f1xx_ll_bus.h ****   *         @arg @ref LL_AHB1_GRP1_PERIPH_OTGFS (*)
 317:Drivers/STM32F1xx_HAL_Driver/Inc/stm32f1xx_ll_bus.h ****   *         @arg @ref LL_AHB1_GRP1_PERIPH_SDIO (*)
 318:Drivers/STM32F1xx_HAL_Driver/Inc/stm32f1xx_ll_bus.h ****   *         @arg @ref LL_AHB1_GRP1_PERIPH_SRAM
 319:Drivers/STM32F1xx_HAL_Driver/Inc/stm32f1xx_ll_bus.h ****   *
 320:Drivers/STM32F1xx_HAL_Driver/Inc/stm32f1xx_ll_bus.h ****   *         (*) value not defined in all devices.
 321:Drivers/STM32F1xx_HAL_Driver/Inc/stm32f1xx_ll_bus.h ****   * @retval State of Periphs (1 or 0).
 322:Drivers/STM32F1xx_HAL_Driver/Inc/stm32f1xx_ll_bus.h **** */
 323:Drivers/STM32F1xx_HAL_Driver/Inc/stm32f1xx_ll_bus.h **** __STATIC_INLINE uint32_t LL_AHB1_GRP1_IsEnabledClock(uint32_t Periphs)
 324:Drivers/STM32F1xx_HAL_Driver/Inc/stm32f1xx_ll_bus.h **** {
 325:Drivers/STM32F1xx_HAL_Driver/Inc/stm32f1xx_ll_bus.h ****   return (READ_BIT(RCC->AHBENR, Periphs) == Periphs);
 326:Drivers/STM32F1xx_HAL_Driver/Inc/stm32f1xx_ll_bus.h **** }
ARM GAS  /tmp/ccY3COIh.s 			page 32


 327:Drivers/STM32F1xx_HAL_Driver/Inc/stm32f1xx_ll_bus.h **** 
 328:Drivers/STM32F1xx_HAL_Driver/Inc/stm32f1xx_ll_bus.h **** /**
 329:Drivers/STM32F1xx_HAL_Driver/Inc/stm32f1xx_ll_bus.h ****   * @brief  Disable AHB1 peripherals clock.
 330:Drivers/STM32F1xx_HAL_Driver/Inc/stm32f1xx_ll_bus.h ****   * @rmtoll AHBENR       CRCEN         LL_AHB1_GRP1_DisableClock\n
 331:Drivers/STM32F1xx_HAL_Driver/Inc/stm32f1xx_ll_bus.h ****   *         AHBENR       DMA1EN        LL_AHB1_GRP1_DisableClock\n
 332:Drivers/STM32F1xx_HAL_Driver/Inc/stm32f1xx_ll_bus.h ****   *         AHBENR       DMA2EN        LL_AHB1_GRP1_DisableClock\n
 333:Drivers/STM32F1xx_HAL_Driver/Inc/stm32f1xx_ll_bus.h ****   *         AHBENR       ETHMACEN      LL_AHB1_GRP1_DisableClock\n
 334:Drivers/STM32F1xx_HAL_Driver/Inc/stm32f1xx_ll_bus.h ****   *         AHBENR       ETHMACRXEN    LL_AHB1_GRP1_DisableClock\n
 335:Drivers/STM32F1xx_HAL_Driver/Inc/stm32f1xx_ll_bus.h ****   *         AHBENR       ETHMACTXEN    LL_AHB1_GRP1_DisableClock\n
 336:Drivers/STM32F1xx_HAL_Driver/Inc/stm32f1xx_ll_bus.h ****   *         AHBENR       FLITFEN       LL_AHB1_GRP1_DisableClock\n
 337:Drivers/STM32F1xx_HAL_Driver/Inc/stm32f1xx_ll_bus.h ****   *         AHBENR       FSMCEN        LL_AHB1_GRP1_DisableClock\n
 338:Drivers/STM32F1xx_HAL_Driver/Inc/stm32f1xx_ll_bus.h ****   *         AHBENR       OTGFSEN       LL_AHB1_GRP1_DisableClock\n
 339:Drivers/STM32F1xx_HAL_Driver/Inc/stm32f1xx_ll_bus.h ****   *         AHBENR       SDIOEN        LL_AHB1_GRP1_DisableClock\n
 340:Drivers/STM32F1xx_HAL_Driver/Inc/stm32f1xx_ll_bus.h ****   *         AHBENR       SRAMEN        LL_AHB1_GRP1_DisableClock
 341:Drivers/STM32F1xx_HAL_Driver/Inc/stm32f1xx_ll_bus.h ****   * @param  Periphs This parameter can be a combination of the following values:
 342:Drivers/STM32F1xx_HAL_Driver/Inc/stm32f1xx_ll_bus.h ****   *         @arg @ref LL_AHB1_GRP1_PERIPH_CRC
 343:Drivers/STM32F1xx_HAL_Driver/Inc/stm32f1xx_ll_bus.h ****   *         @arg @ref LL_AHB1_GRP1_PERIPH_DMA1
 344:Drivers/STM32F1xx_HAL_Driver/Inc/stm32f1xx_ll_bus.h ****   *         @arg @ref LL_AHB1_GRP1_PERIPH_DMA2 (*)
 345:Drivers/STM32F1xx_HAL_Driver/Inc/stm32f1xx_ll_bus.h ****   *         @arg @ref LL_AHB1_GRP1_PERIPH_ETHMAC (*)
 346:Drivers/STM32F1xx_HAL_Driver/Inc/stm32f1xx_ll_bus.h ****   *         @arg @ref LL_AHB1_GRP1_PERIPH_ETHMACRX (*)
 347:Drivers/STM32F1xx_HAL_Driver/Inc/stm32f1xx_ll_bus.h ****   *         @arg @ref LL_AHB1_GRP1_PERIPH_ETHMACTX (*)
 348:Drivers/STM32F1xx_HAL_Driver/Inc/stm32f1xx_ll_bus.h ****   *         @arg @ref LL_AHB1_GRP1_PERIPH_FLASH
 349:Drivers/STM32F1xx_HAL_Driver/Inc/stm32f1xx_ll_bus.h ****   *         @arg @ref LL_AHB1_GRP1_PERIPH_FSMC (*)
 350:Drivers/STM32F1xx_HAL_Driver/Inc/stm32f1xx_ll_bus.h ****   *         @arg @ref LL_AHB1_GRP1_PERIPH_OTGFS (*)
 351:Drivers/STM32F1xx_HAL_Driver/Inc/stm32f1xx_ll_bus.h ****   *         @arg @ref LL_AHB1_GRP1_PERIPH_SDIO (*)
 352:Drivers/STM32F1xx_HAL_Driver/Inc/stm32f1xx_ll_bus.h ****   *         @arg @ref LL_AHB1_GRP1_PERIPH_SRAM
 353:Drivers/STM32F1xx_HAL_Driver/Inc/stm32f1xx_ll_bus.h ****   *
 354:Drivers/STM32F1xx_HAL_Driver/Inc/stm32f1xx_ll_bus.h ****   *         (*) value not defined in all devices.
 355:Drivers/STM32F1xx_HAL_Driver/Inc/stm32f1xx_ll_bus.h ****   * @retval None
 356:Drivers/STM32F1xx_HAL_Driver/Inc/stm32f1xx_ll_bus.h **** */
 357:Drivers/STM32F1xx_HAL_Driver/Inc/stm32f1xx_ll_bus.h **** __STATIC_INLINE void LL_AHB1_GRP1_DisableClock(uint32_t Periphs)
 358:Drivers/STM32F1xx_HAL_Driver/Inc/stm32f1xx_ll_bus.h **** {
 359:Drivers/STM32F1xx_HAL_Driver/Inc/stm32f1xx_ll_bus.h ****   CLEAR_BIT(RCC->AHBENR, Periphs);
 360:Drivers/STM32F1xx_HAL_Driver/Inc/stm32f1xx_ll_bus.h **** }
 361:Drivers/STM32F1xx_HAL_Driver/Inc/stm32f1xx_ll_bus.h **** 
 362:Drivers/STM32F1xx_HAL_Driver/Inc/stm32f1xx_ll_bus.h **** #if defined(RCC_AHBRSTR_SUPPORT)
 363:Drivers/STM32F1xx_HAL_Driver/Inc/stm32f1xx_ll_bus.h **** /**
 364:Drivers/STM32F1xx_HAL_Driver/Inc/stm32f1xx_ll_bus.h ****   * @brief  Force AHB1 peripherals reset.
 365:Drivers/STM32F1xx_HAL_Driver/Inc/stm32f1xx_ll_bus.h ****   * @rmtoll AHBRSTR      ETHMACRST     LL_AHB1_GRP1_ForceReset\n
 366:Drivers/STM32F1xx_HAL_Driver/Inc/stm32f1xx_ll_bus.h ****   *         AHBRSTR      OTGFSRST      LL_AHB1_GRP1_ForceReset
 367:Drivers/STM32F1xx_HAL_Driver/Inc/stm32f1xx_ll_bus.h ****   * @param  Periphs This parameter can be a combination of the following values:
 368:Drivers/STM32F1xx_HAL_Driver/Inc/stm32f1xx_ll_bus.h ****   *         @arg @ref LL_AHB1_GRP1_PERIPH_ALL
 369:Drivers/STM32F1xx_HAL_Driver/Inc/stm32f1xx_ll_bus.h ****   *         @arg @ref LL_AHB1_GRP1_PERIPH_ETHMAC (*)
 370:Drivers/STM32F1xx_HAL_Driver/Inc/stm32f1xx_ll_bus.h ****   *         @arg @ref LL_AHB1_GRP1_PERIPH_OTGFS (*)
 371:Drivers/STM32F1xx_HAL_Driver/Inc/stm32f1xx_ll_bus.h ****   *
 372:Drivers/STM32F1xx_HAL_Driver/Inc/stm32f1xx_ll_bus.h ****   *         (*) value not defined in all devices.
 373:Drivers/STM32F1xx_HAL_Driver/Inc/stm32f1xx_ll_bus.h ****   * @retval None
 374:Drivers/STM32F1xx_HAL_Driver/Inc/stm32f1xx_ll_bus.h **** */
 375:Drivers/STM32F1xx_HAL_Driver/Inc/stm32f1xx_ll_bus.h **** __STATIC_INLINE void LL_AHB1_GRP1_ForceReset(uint32_t Periphs)
 376:Drivers/STM32F1xx_HAL_Driver/Inc/stm32f1xx_ll_bus.h **** {
 377:Drivers/STM32F1xx_HAL_Driver/Inc/stm32f1xx_ll_bus.h ****   SET_BIT(RCC->AHBRSTR, Periphs);
 378:Drivers/STM32F1xx_HAL_Driver/Inc/stm32f1xx_ll_bus.h **** }
 379:Drivers/STM32F1xx_HAL_Driver/Inc/stm32f1xx_ll_bus.h **** 
 380:Drivers/STM32F1xx_HAL_Driver/Inc/stm32f1xx_ll_bus.h **** /**
 381:Drivers/STM32F1xx_HAL_Driver/Inc/stm32f1xx_ll_bus.h ****   * @brief  Release AHB1 peripherals reset.
 382:Drivers/STM32F1xx_HAL_Driver/Inc/stm32f1xx_ll_bus.h ****   * @rmtoll AHBRSTR      ETHMACRST     LL_AHB1_GRP1_ReleaseReset\n
 383:Drivers/STM32F1xx_HAL_Driver/Inc/stm32f1xx_ll_bus.h ****   *         AHBRSTR      OTGFSRST      LL_AHB1_GRP1_ReleaseReset
ARM GAS  /tmp/ccY3COIh.s 			page 33


 384:Drivers/STM32F1xx_HAL_Driver/Inc/stm32f1xx_ll_bus.h ****   * @param  Periphs This parameter can be a combination of the following values:
 385:Drivers/STM32F1xx_HAL_Driver/Inc/stm32f1xx_ll_bus.h ****   *         @arg @ref LL_AHB1_GRP1_PERIPH_ALL
 386:Drivers/STM32F1xx_HAL_Driver/Inc/stm32f1xx_ll_bus.h ****   *         @arg @ref LL_AHB1_GRP1_PERIPH_ETHMAC (*)
 387:Drivers/STM32F1xx_HAL_Driver/Inc/stm32f1xx_ll_bus.h ****   *         @arg @ref LL_AHB1_GRP1_PERIPH_OTGFS (*)
 388:Drivers/STM32F1xx_HAL_Driver/Inc/stm32f1xx_ll_bus.h ****   *
 389:Drivers/STM32F1xx_HAL_Driver/Inc/stm32f1xx_ll_bus.h ****   *         (*) value not defined in all devices.
 390:Drivers/STM32F1xx_HAL_Driver/Inc/stm32f1xx_ll_bus.h ****   * @retval None
 391:Drivers/STM32F1xx_HAL_Driver/Inc/stm32f1xx_ll_bus.h **** */
 392:Drivers/STM32F1xx_HAL_Driver/Inc/stm32f1xx_ll_bus.h **** __STATIC_INLINE void LL_AHB1_GRP1_ReleaseReset(uint32_t Periphs)
 393:Drivers/STM32F1xx_HAL_Driver/Inc/stm32f1xx_ll_bus.h **** {
 394:Drivers/STM32F1xx_HAL_Driver/Inc/stm32f1xx_ll_bus.h ****   CLEAR_BIT(RCC->AHBRSTR, Periphs);
 395:Drivers/STM32F1xx_HAL_Driver/Inc/stm32f1xx_ll_bus.h **** }
 396:Drivers/STM32F1xx_HAL_Driver/Inc/stm32f1xx_ll_bus.h **** #endif /* RCC_AHBRSTR_SUPPORT */
 397:Drivers/STM32F1xx_HAL_Driver/Inc/stm32f1xx_ll_bus.h **** 
 398:Drivers/STM32F1xx_HAL_Driver/Inc/stm32f1xx_ll_bus.h **** /**
 399:Drivers/STM32F1xx_HAL_Driver/Inc/stm32f1xx_ll_bus.h ****   * @}
 400:Drivers/STM32F1xx_HAL_Driver/Inc/stm32f1xx_ll_bus.h ****   */
 401:Drivers/STM32F1xx_HAL_Driver/Inc/stm32f1xx_ll_bus.h **** 
 402:Drivers/STM32F1xx_HAL_Driver/Inc/stm32f1xx_ll_bus.h **** /** @defgroup BUS_LL_EF_APB1 APB1
 403:Drivers/STM32F1xx_HAL_Driver/Inc/stm32f1xx_ll_bus.h ****   * @{
 404:Drivers/STM32F1xx_HAL_Driver/Inc/stm32f1xx_ll_bus.h ****   */
 405:Drivers/STM32F1xx_HAL_Driver/Inc/stm32f1xx_ll_bus.h **** 
 406:Drivers/STM32F1xx_HAL_Driver/Inc/stm32f1xx_ll_bus.h **** /**
 407:Drivers/STM32F1xx_HAL_Driver/Inc/stm32f1xx_ll_bus.h ****   * @brief  Enable APB1 peripherals clock.
 408:Drivers/STM32F1xx_HAL_Driver/Inc/stm32f1xx_ll_bus.h ****   * @rmtoll APB1ENR      BKPEN         LL_APB1_GRP1_EnableClock\n
 409:Drivers/STM32F1xx_HAL_Driver/Inc/stm32f1xx_ll_bus.h ****   *         APB1ENR      CAN1EN        LL_APB1_GRP1_EnableClock\n
 410:Drivers/STM32F1xx_HAL_Driver/Inc/stm32f1xx_ll_bus.h ****   *         APB1ENR      CAN2EN        LL_APB1_GRP1_EnableClock\n
 411:Drivers/STM32F1xx_HAL_Driver/Inc/stm32f1xx_ll_bus.h ****   *         APB1ENR      CECEN         LL_APB1_GRP1_EnableClock\n
 412:Drivers/STM32F1xx_HAL_Driver/Inc/stm32f1xx_ll_bus.h ****   *         APB1ENR      DACEN         LL_APB1_GRP1_EnableClock\n
 413:Drivers/STM32F1xx_HAL_Driver/Inc/stm32f1xx_ll_bus.h ****   *         APB1ENR      I2C1EN        LL_APB1_GRP1_EnableClock\n
 414:Drivers/STM32F1xx_HAL_Driver/Inc/stm32f1xx_ll_bus.h ****   *         APB1ENR      I2C2EN        LL_APB1_GRP1_EnableClock\n
 415:Drivers/STM32F1xx_HAL_Driver/Inc/stm32f1xx_ll_bus.h ****   *         APB1ENR      PWREN         LL_APB1_GRP1_EnableClock\n
 416:Drivers/STM32F1xx_HAL_Driver/Inc/stm32f1xx_ll_bus.h ****   *         APB1ENR      SPI2EN        LL_APB1_GRP1_EnableClock\n
 417:Drivers/STM32F1xx_HAL_Driver/Inc/stm32f1xx_ll_bus.h ****   *         APB1ENR      SPI3EN        LL_APB1_GRP1_EnableClock\n
 418:Drivers/STM32F1xx_HAL_Driver/Inc/stm32f1xx_ll_bus.h ****   *         APB1ENR      TIM12EN       LL_APB1_GRP1_EnableClock\n
 419:Drivers/STM32F1xx_HAL_Driver/Inc/stm32f1xx_ll_bus.h ****   *         APB1ENR      TIM13EN       LL_APB1_GRP1_EnableClock\n
 420:Drivers/STM32F1xx_HAL_Driver/Inc/stm32f1xx_ll_bus.h ****   *         APB1ENR      TIM14EN       LL_APB1_GRP1_EnableClock\n
 421:Drivers/STM32F1xx_HAL_Driver/Inc/stm32f1xx_ll_bus.h ****   *         APB1ENR      TIM2EN        LL_APB1_GRP1_EnableClock\n
 422:Drivers/STM32F1xx_HAL_Driver/Inc/stm32f1xx_ll_bus.h ****   *         APB1ENR      TIM3EN        LL_APB1_GRP1_EnableClock\n
 423:Drivers/STM32F1xx_HAL_Driver/Inc/stm32f1xx_ll_bus.h ****   *         APB1ENR      TIM4EN        LL_APB1_GRP1_EnableClock\n
 424:Drivers/STM32F1xx_HAL_Driver/Inc/stm32f1xx_ll_bus.h ****   *         APB1ENR      TIM5EN        LL_APB1_GRP1_EnableClock\n
 425:Drivers/STM32F1xx_HAL_Driver/Inc/stm32f1xx_ll_bus.h ****   *         APB1ENR      TIM6EN        LL_APB1_GRP1_EnableClock\n
 426:Drivers/STM32F1xx_HAL_Driver/Inc/stm32f1xx_ll_bus.h ****   *         APB1ENR      TIM7EN        LL_APB1_GRP1_EnableClock\n
 427:Drivers/STM32F1xx_HAL_Driver/Inc/stm32f1xx_ll_bus.h ****   *         APB1ENR      UART4EN       LL_APB1_GRP1_EnableClock\n
 428:Drivers/STM32F1xx_HAL_Driver/Inc/stm32f1xx_ll_bus.h ****   *         APB1ENR      UART5EN       LL_APB1_GRP1_EnableClock\n
 429:Drivers/STM32F1xx_HAL_Driver/Inc/stm32f1xx_ll_bus.h ****   *         APB1ENR      USART2EN      LL_APB1_GRP1_EnableClock\n
 430:Drivers/STM32F1xx_HAL_Driver/Inc/stm32f1xx_ll_bus.h ****   *         APB1ENR      USART3EN      LL_APB1_GRP1_EnableClock\n
 431:Drivers/STM32F1xx_HAL_Driver/Inc/stm32f1xx_ll_bus.h ****   *         APB1ENR      USBEN         LL_APB1_GRP1_EnableClock\n
 432:Drivers/STM32F1xx_HAL_Driver/Inc/stm32f1xx_ll_bus.h ****   *         APB1ENR      WWDGEN        LL_APB1_GRP1_EnableClock
 433:Drivers/STM32F1xx_HAL_Driver/Inc/stm32f1xx_ll_bus.h ****   * @param  Periphs This parameter can be a combination of the following values:
 434:Drivers/STM32F1xx_HAL_Driver/Inc/stm32f1xx_ll_bus.h ****   *         @arg @ref LL_APB1_GRP1_PERIPH_BKP
 435:Drivers/STM32F1xx_HAL_Driver/Inc/stm32f1xx_ll_bus.h ****   *         @arg @ref LL_APB1_GRP1_PERIPH_CAN1 (*)
 436:Drivers/STM32F1xx_HAL_Driver/Inc/stm32f1xx_ll_bus.h ****   *         @arg @ref LL_APB1_GRP1_PERIPH_CAN2 (*)
 437:Drivers/STM32F1xx_HAL_Driver/Inc/stm32f1xx_ll_bus.h ****   *         @arg @ref LL_APB1_GRP1_PERIPH_CEC (*)
 438:Drivers/STM32F1xx_HAL_Driver/Inc/stm32f1xx_ll_bus.h ****   *         @arg @ref LL_APB1_GRP1_PERIPH_DAC1 (*)
 439:Drivers/STM32F1xx_HAL_Driver/Inc/stm32f1xx_ll_bus.h ****   *         @arg @ref LL_APB1_GRP1_PERIPH_I2C1
 440:Drivers/STM32F1xx_HAL_Driver/Inc/stm32f1xx_ll_bus.h ****   *         @arg @ref LL_APB1_GRP1_PERIPH_I2C2 (*)
ARM GAS  /tmp/ccY3COIh.s 			page 34


 441:Drivers/STM32F1xx_HAL_Driver/Inc/stm32f1xx_ll_bus.h ****   *         @arg @ref LL_APB1_GRP1_PERIPH_PWR
 442:Drivers/STM32F1xx_HAL_Driver/Inc/stm32f1xx_ll_bus.h ****   *         @arg @ref LL_APB1_GRP1_PERIPH_SPI2 (*)
 443:Drivers/STM32F1xx_HAL_Driver/Inc/stm32f1xx_ll_bus.h ****   *         @arg @ref LL_APB1_GRP1_PERIPH_SPI3 (*)
 444:Drivers/STM32F1xx_HAL_Driver/Inc/stm32f1xx_ll_bus.h ****   *         @arg @ref LL_APB1_GRP1_PERIPH_TIM12 (*)
 445:Drivers/STM32F1xx_HAL_Driver/Inc/stm32f1xx_ll_bus.h ****   *         @arg @ref LL_APB1_GRP1_PERIPH_TIM13 (*)
 446:Drivers/STM32F1xx_HAL_Driver/Inc/stm32f1xx_ll_bus.h ****   *         @arg @ref LL_APB1_GRP1_PERIPH_TIM14 (*)
 447:Drivers/STM32F1xx_HAL_Driver/Inc/stm32f1xx_ll_bus.h ****   *         @arg @ref LL_APB1_GRP1_PERIPH_TIM2
 448:Drivers/STM32F1xx_HAL_Driver/Inc/stm32f1xx_ll_bus.h ****   *         @arg @ref LL_APB1_GRP1_PERIPH_TIM3
 449:Drivers/STM32F1xx_HAL_Driver/Inc/stm32f1xx_ll_bus.h ****   *         @arg @ref LL_APB1_GRP1_PERIPH_TIM4 (*)
 450:Drivers/STM32F1xx_HAL_Driver/Inc/stm32f1xx_ll_bus.h ****   *         @arg @ref LL_APB1_GRP1_PERIPH_TIM5 (*)
 451:Drivers/STM32F1xx_HAL_Driver/Inc/stm32f1xx_ll_bus.h ****   *         @arg @ref LL_APB1_GRP1_PERIPH_TIM6 (*)
 452:Drivers/STM32F1xx_HAL_Driver/Inc/stm32f1xx_ll_bus.h ****   *         @arg @ref LL_APB1_GRP1_PERIPH_TIM7 (*)
 453:Drivers/STM32F1xx_HAL_Driver/Inc/stm32f1xx_ll_bus.h ****   *         @arg @ref LL_APB1_GRP1_PERIPH_UART4 (*)
 454:Drivers/STM32F1xx_HAL_Driver/Inc/stm32f1xx_ll_bus.h ****   *         @arg @ref LL_APB1_GRP1_PERIPH_UART5 (*)
 455:Drivers/STM32F1xx_HAL_Driver/Inc/stm32f1xx_ll_bus.h ****   *         @arg @ref LL_APB1_GRP1_PERIPH_USART2
 456:Drivers/STM32F1xx_HAL_Driver/Inc/stm32f1xx_ll_bus.h ****   *         @arg @ref LL_APB1_GRP1_PERIPH_USART3 (*)
 457:Drivers/STM32F1xx_HAL_Driver/Inc/stm32f1xx_ll_bus.h ****   *         @arg @ref LL_APB1_GRP1_PERIPH_USB (*)
 458:Drivers/STM32F1xx_HAL_Driver/Inc/stm32f1xx_ll_bus.h ****   *         @arg @ref LL_APB1_GRP1_PERIPH_WWDG
 459:Drivers/STM32F1xx_HAL_Driver/Inc/stm32f1xx_ll_bus.h ****   *
 460:Drivers/STM32F1xx_HAL_Driver/Inc/stm32f1xx_ll_bus.h ****   *         (*) value not defined in all devices.
 461:Drivers/STM32F1xx_HAL_Driver/Inc/stm32f1xx_ll_bus.h ****   * @retval None
 462:Drivers/STM32F1xx_HAL_Driver/Inc/stm32f1xx_ll_bus.h **** */
 463:Drivers/STM32F1xx_HAL_Driver/Inc/stm32f1xx_ll_bus.h **** __STATIC_INLINE void LL_APB1_GRP1_EnableClock(uint32_t Periphs)
 464:Drivers/STM32F1xx_HAL_Driver/Inc/stm32f1xx_ll_bus.h **** {
 465:Drivers/STM32F1xx_HAL_Driver/Inc/stm32f1xx_ll_bus.h ****   __IO uint32_t tmpreg;
 466:Drivers/STM32F1xx_HAL_Driver/Inc/stm32f1xx_ll_bus.h ****   SET_BIT(RCC->APB1ENR, Periphs);
 467:Drivers/STM32F1xx_HAL_Driver/Inc/stm32f1xx_ll_bus.h ****   /* Delay after an RCC peripheral clock enabling */
 468:Drivers/STM32F1xx_HAL_Driver/Inc/stm32f1xx_ll_bus.h ****   tmpreg = READ_BIT(RCC->APB1ENR, Periphs);
 469:Drivers/STM32F1xx_HAL_Driver/Inc/stm32f1xx_ll_bus.h ****   (void)tmpreg;
 470:Drivers/STM32F1xx_HAL_Driver/Inc/stm32f1xx_ll_bus.h **** }
 471:Drivers/STM32F1xx_HAL_Driver/Inc/stm32f1xx_ll_bus.h **** 
 472:Drivers/STM32F1xx_HAL_Driver/Inc/stm32f1xx_ll_bus.h **** /**
 473:Drivers/STM32F1xx_HAL_Driver/Inc/stm32f1xx_ll_bus.h ****   * @brief  Check if APB1 peripheral clock is enabled or not
 474:Drivers/STM32F1xx_HAL_Driver/Inc/stm32f1xx_ll_bus.h ****   * @rmtoll APB1ENR      BKPEN         LL_APB1_GRP1_IsEnabledClock\n
 475:Drivers/STM32F1xx_HAL_Driver/Inc/stm32f1xx_ll_bus.h ****   *         APB1ENR      CAN1EN        LL_APB1_GRP1_IsEnabledClock\n
 476:Drivers/STM32F1xx_HAL_Driver/Inc/stm32f1xx_ll_bus.h ****   *         APB1ENR      CAN2EN        LL_APB1_GRP1_IsEnabledClock\n
 477:Drivers/STM32F1xx_HAL_Driver/Inc/stm32f1xx_ll_bus.h ****   *         APB1ENR      CECEN         LL_APB1_GRP1_IsEnabledClock\n
 478:Drivers/STM32F1xx_HAL_Driver/Inc/stm32f1xx_ll_bus.h ****   *         APB1ENR      DACEN         LL_APB1_GRP1_IsEnabledClock\n
 479:Drivers/STM32F1xx_HAL_Driver/Inc/stm32f1xx_ll_bus.h ****   *         APB1ENR      I2C1EN        LL_APB1_GRP1_IsEnabledClock\n
 480:Drivers/STM32F1xx_HAL_Driver/Inc/stm32f1xx_ll_bus.h ****   *         APB1ENR      I2C2EN        LL_APB1_GRP1_IsEnabledClock\n
 481:Drivers/STM32F1xx_HAL_Driver/Inc/stm32f1xx_ll_bus.h ****   *         APB1ENR      PWREN         LL_APB1_GRP1_IsEnabledClock\n
 482:Drivers/STM32F1xx_HAL_Driver/Inc/stm32f1xx_ll_bus.h ****   *         APB1ENR      SPI2EN        LL_APB1_GRP1_IsEnabledClock\n
 483:Drivers/STM32F1xx_HAL_Driver/Inc/stm32f1xx_ll_bus.h ****   *         APB1ENR      SPI3EN        LL_APB1_GRP1_IsEnabledClock\n
 484:Drivers/STM32F1xx_HAL_Driver/Inc/stm32f1xx_ll_bus.h ****   *         APB1ENR      TIM12EN       LL_APB1_GRP1_IsEnabledClock\n
 485:Drivers/STM32F1xx_HAL_Driver/Inc/stm32f1xx_ll_bus.h ****   *         APB1ENR      TIM13EN       LL_APB1_GRP1_IsEnabledClock\n
 486:Drivers/STM32F1xx_HAL_Driver/Inc/stm32f1xx_ll_bus.h ****   *         APB1ENR      TIM14EN       LL_APB1_GRP1_IsEnabledClock\n
 487:Drivers/STM32F1xx_HAL_Driver/Inc/stm32f1xx_ll_bus.h ****   *         APB1ENR      TIM2EN        LL_APB1_GRP1_IsEnabledClock\n
 488:Drivers/STM32F1xx_HAL_Driver/Inc/stm32f1xx_ll_bus.h ****   *         APB1ENR      TIM3EN        LL_APB1_GRP1_IsEnabledClock\n
 489:Drivers/STM32F1xx_HAL_Driver/Inc/stm32f1xx_ll_bus.h ****   *         APB1ENR      TIM4EN        LL_APB1_GRP1_IsEnabledClock\n
 490:Drivers/STM32F1xx_HAL_Driver/Inc/stm32f1xx_ll_bus.h ****   *         APB1ENR      TIM5EN        LL_APB1_GRP1_IsEnabledClock\n
 491:Drivers/STM32F1xx_HAL_Driver/Inc/stm32f1xx_ll_bus.h ****   *         APB1ENR      TIM6EN        LL_APB1_GRP1_IsEnabledClock\n
 492:Drivers/STM32F1xx_HAL_Driver/Inc/stm32f1xx_ll_bus.h ****   *         APB1ENR      TIM7EN        LL_APB1_GRP1_IsEnabledClock\n
 493:Drivers/STM32F1xx_HAL_Driver/Inc/stm32f1xx_ll_bus.h ****   *         APB1ENR      UART4EN       LL_APB1_GRP1_IsEnabledClock\n
 494:Drivers/STM32F1xx_HAL_Driver/Inc/stm32f1xx_ll_bus.h ****   *         APB1ENR      UART5EN       LL_APB1_GRP1_IsEnabledClock\n
 495:Drivers/STM32F1xx_HAL_Driver/Inc/stm32f1xx_ll_bus.h ****   *         APB1ENR      USART2EN      LL_APB1_GRP1_IsEnabledClock\n
 496:Drivers/STM32F1xx_HAL_Driver/Inc/stm32f1xx_ll_bus.h ****   *         APB1ENR      USART3EN      LL_APB1_GRP1_IsEnabledClock\n
 497:Drivers/STM32F1xx_HAL_Driver/Inc/stm32f1xx_ll_bus.h ****   *         APB1ENR      USBEN         LL_APB1_GRP1_IsEnabledClock\n
ARM GAS  /tmp/ccY3COIh.s 			page 35


 498:Drivers/STM32F1xx_HAL_Driver/Inc/stm32f1xx_ll_bus.h ****   *         APB1ENR      WWDGEN        LL_APB1_GRP1_IsEnabledClock
 499:Drivers/STM32F1xx_HAL_Driver/Inc/stm32f1xx_ll_bus.h ****   * @param  Periphs This parameter can be a combination of the following values:
 500:Drivers/STM32F1xx_HAL_Driver/Inc/stm32f1xx_ll_bus.h ****   *         @arg @ref LL_APB1_GRP1_PERIPH_BKP
 501:Drivers/STM32F1xx_HAL_Driver/Inc/stm32f1xx_ll_bus.h ****   *         @arg @ref LL_APB1_GRP1_PERIPH_CAN1 (*)
 502:Drivers/STM32F1xx_HAL_Driver/Inc/stm32f1xx_ll_bus.h ****   *         @arg @ref LL_APB1_GRP1_PERIPH_CAN2 (*)
 503:Drivers/STM32F1xx_HAL_Driver/Inc/stm32f1xx_ll_bus.h ****   *         @arg @ref LL_APB1_GRP1_PERIPH_CEC (*)
 504:Drivers/STM32F1xx_HAL_Driver/Inc/stm32f1xx_ll_bus.h ****   *         @arg @ref LL_APB1_GRP1_PERIPH_DAC1 (*)
 505:Drivers/STM32F1xx_HAL_Driver/Inc/stm32f1xx_ll_bus.h ****   *         @arg @ref LL_APB1_GRP1_PERIPH_I2C1
 506:Drivers/STM32F1xx_HAL_Driver/Inc/stm32f1xx_ll_bus.h ****   *         @arg @ref LL_APB1_GRP1_PERIPH_I2C2 (*)
 507:Drivers/STM32F1xx_HAL_Driver/Inc/stm32f1xx_ll_bus.h ****   *         @arg @ref LL_APB1_GRP1_PERIPH_PWR
 508:Drivers/STM32F1xx_HAL_Driver/Inc/stm32f1xx_ll_bus.h ****   *         @arg @ref LL_APB1_GRP1_PERIPH_SPI2 (*)
 509:Drivers/STM32F1xx_HAL_Driver/Inc/stm32f1xx_ll_bus.h ****   *         @arg @ref LL_APB1_GRP1_PERIPH_SPI3 (*)
 510:Drivers/STM32F1xx_HAL_Driver/Inc/stm32f1xx_ll_bus.h ****   *         @arg @ref LL_APB1_GRP1_PERIPH_TIM12 (*)
 511:Drivers/STM32F1xx_HAL_Driver/Inc/stm32f1xx_ll_bus.h ****   *         @arg @ref LL_APB1_GRP1_PERIPH_TIM13 (*)
 512:Drivers/STM32F1xx_HAL_Driver/Inc/stm32f1xx_ll_bus.h ****   *         @arg @ref LL_APB1_GRP1_PERIPH_TIM14 (*)
 513:Drivers/STM32F1xx_HAL_Driver/Inc/stm32f1xx_ll_bus.h ****   *         @arg @ref LL_APB1_GRP1_PERIPH_TIM2
 514:Drivers/STM32F1xx_HAL_Driver/Inc/stm32f1xx_ll_bus.h ****   *         @arg @ref LL_APB1_GRP1_PERIPH_TIM3
 515:Drivers/STM32F1xx_HAL_Driver/Inc/stm32f1xx_ll_bus.h ****   *         @arg @ref LL_APB1_GRP1_PERIPH_TIM4 (*)
 516:Drivers/STM32F1xx_HAL_Driver/Inc/stm32f1xx_ll_bus.h ****   *         @arg @ref LL_APB1_GRP1_PERIPH_TIM5 (*)
 517:Drivers/STM32F1xx_HAL_Driver/Inc/stm32f1xx_ll_bus.h ****   *         @arg @ref LL_APB1_GRP1_PERIPH_TIM6 (*)
 518:Drivers/STM32F1xx_HAL_Driver/Inc/stm32f1xx_ll_bus.h ****   *         @arg @ref LL_APB1_GRP1_PERIPH_TIM7 (*)
 519:Drivers/STM32F1xx_HAL_Driver/Inc/stm32f1xx_ll_bus.h ****   *         @arg @ref LL_APB1_GRP1_PERIPH_UART4 (*)
 520:Drivers/STM32F1xx_HAL_Driver/Inc/stm32f1xx_ll_bus.h ****   *         @arg @ref LL_APB1_GRP1_PERIPH_UART5 (*)
 521:Drivers/STM32F1xx_HAL_Driver/Inc/stm32f1xx_ll_bus.h ****   *         @arg @ref LL_APB1_GRP1_PERIPH_USART2
 522:Drivers/STM32F1xx_HAL_Driver/Inc/stm32f1xx_ll_bus.h ****   *         @arg @ref LL_APB1_GRP1_PERIPH_USART3 (*)
 523:Drivers/STM32F1xx_HAL_Driver/Inc/stm32f1xx_ll_bus.h ****   *         @arg @ref LL_APB1_GRP1_PERIPH_USB (*)
 524:Drivers/STM32F1xx_HAL_Driver/Inc/stm32f1xx_ll_bus.h ****   *         @arg @ref LL_APB1_GRP1_PERIPH_WWDG
 525:Drivers/STM32F1xx_HAL_Driver/Inc/stm32f1xx_ll_bus.h ****   *
 526:Drivers/STM32F1xx_HAL_Driver/Inc/stm32f1xx_ll_bus.h ****   *         (*) value not defined in all devices.
 527:Drivers/STM32F1xx_HAL_Driver/Inc/stm32f1xx_ll_bus.h ****   * @retval State of Periphs (1 or 0).
 528:Drivers/STM32F1xx_HAL_Driver/Inc/stm32f1xx_ll_bus.h **** */
 529:Drivers/STM32F1xx_HAL_Driver/Inc/stm32f1xx_ll_bus.h **** __STATIC_INLINE uint32_t LL_APB1_GRP1_IsEnabledClock(uint32_t Periphs)
 530:Drivers/STM32F1xx_HAL_Driver/Inc/stm32f1xx_ll_bus.h **** {
 531:Drivers/STM32F1xx_HAL_Driver/Inc/stm32f1xx_ll_bus.h ****   return (READ_BIT(RCC->APB1ENR, Periphs) == Periphs);
 532:Drivers/STM32F1xx_HAL_Driver/Inc/stm32f1xx_ll_bus.h **** }
 533:Drivers/STM32F1xx_HAL_Driver/Inc/stm32f1xx_ll_bus.h **** 
 534:Drivers/STM32F1xx_HAL_Driver/Inc/stm32f1xx_ll_bus.h **** /**
 535:Drivers/STM32F1xx_HAL_Driver/Inc/stm32f1xx_ll_bus.h ****   * @brief  Disable APB1 peripherals clock.
 536:Drivers/STM32F1xx_HAL_Driver/Inc/stm32f1xx_ll_bus.h ****   * @rmtoll APB1ENR      BKPEN         LL_APB1_GRP1_DisableClock\n
 537:Drivers/STM32F1xx_HAL_Driver/Inc/stm32f1xx_ll_bus.h ****   *         APB1ENR      CAN1EN        LL_APB1_GRP1_DisableClock\n
 538:Drivers/STM32F1xx_HAL_Driver/Inc/stm32f1xx_ll_bus.h ****   *         APB1ENR      CAN2EN        LL_APB1_GRP1_DisableClock\n
 539:Drivers/STM32F1xx_HAL_Driver/Inc/stm32f1xx_ll_bus.h ****   *         APB1ENR      CECEN         LL_APB1_GRP1_DisableClock\n
 540:Drivers/STM32F1xx_HAL_Driver/Inc/stm32f1xx_ll_bus.h ****   *         APB1ENR      DACEN         LL_APB1_GRP1_DisableClock\n
 541:Drivers/STM32F1xx_HAL_Driver/Inc/stm32f1xx_ll_bus.h ****   *         APB1ENR      I2C1EN        LL_APB1_GRP1_DisableClock\n
 542:Drivers/STM32F1xx_HAL_Driver/Inc/stm32f1xx_ll_bus.h ****   *         APB1ENR      I2C2EN        LL_APB1_GRP1_DisableClock\n
 543:Drivers/STM32F1xx_HAL_Driver/Inc/stm32f1xx_ll_bus.h ****   *         APB1ENR      PWREN         LL_APB1_GRP1_DisableClock\n
 544:Drivers/STM32F1xx_HAL_Driver/Inc/stm32f1xx_ll_bus.h ****   *         APB1ENR      SPI2EN        LL_APB1_GRP1_DisableClock\n
 545:Drivers/STM32F1xx_HAL_Driver/Inc/stm32f1xx_ll_bus.h ****   *         APB1ENR      SPI3EN        LL_APB1_GRP1_DisableClock\n
 546:Drivers/STM32F1xx_HAL_Driver/Inc/stm32f1xx_ll_bus.h ****   *         APB1ENR      TIM12EN       LL_APB1_GRP1_DisableClock\n
 547:Drivers/STM32F1xx_HAL_Driver/Inc/stm32f1xx_ll_bus.h ****   *         APB1ENR      TIM13EN       LL_APB1_GRP1_DisableClock\n
 548:Drivers/STM32F1xx_HAL_Driver/Inc/stm32f1xx_ll_bus.h ****   *         APB1ENR      TIM14EN       LL_APB1_GRP1_DisableClock\n
 549:Drivers/STM32F1xx_HAL_Driver/Inc/stm32f1xx_ll_bus.h ****   *         APB1ENR      TIM2EN        LL_APB1_GRP1_DisableClock\n
 550:Drivers/STM32F1xx_HAL_Driver/Inc/stm32f1xx_ll_bus.h ****   *         APB1ENR      TIM3EN        LL_APB1_GRP1_DisableClock\n
 551:Drivers/STM32F1xx_HAL_Driver/Inc/stm32f1xx_ll_bus.h ****   *         APB1ENR      TIM4EN        LL_APB1_GRP1_DisableClock\n
 552:Drivers/STM32F1xx_HAL_Driver/Inc/stm32f1xx_ll_bus.h ****   *         APB1ENR      TIM5EN        LL_APB1_GRP1_DisableClock\n
 553:Drivers/STM32F1xx_HAL_Driver/Inc/stm32f1xx_ll_bus.h ****   *         APB1ENR      TIM6EN        LL_APB1_GRP1_DisableClock\n
 554:Drivers/STM32F1xx_HAL_Driver/Inc/stm32f1xx_ll_bus.h ****   *         APB1ENR      TIM7EN        LL_APB1_GRP1_DisableClock\n
ARM GAS  /tmp/ccY3COIh.s 			page 36


 555:Drivers/STM32F1xx_HAL_Driver/Inc/stm32f1xx_ll_bus.h ****   *         APB1ENR      UART4EN       LL_APB1_GRP1_DisableClock\n
 556:Drivers/STM32F1xx_HAL_Driver/Inc/stm32f1xx_ll_bus.h ****   *         APB1ENR      UART5EN       LL_APB1_GRP1_DisableClock\n
 557:Drivers/STM32F1xx_HAL_Driver/Inc/stm32f1xx_ll_bus.h ****   *         APB1ENR      USART2EN      LL_APB1_GRP1_DisableClock\n
 558:Drivers/STM32F1xx_HAL_Driver/Inc/stm32f1xx_ll_bus.h ****   *         APB1ENR      USART3EN      LL_APB1_GRP1_DisableClock\n
 559:Drivers/STM32F1xx_HAL_Driver/Inc/stm32f1xx_ll_bus.h ****   *         APB1ENR      USBEN         LL_APB1_GRP1_DisableClock\n
 560:Drivers/STM32F1xx_HAL_Driver/Inc/stm32f1xx_ll_bus.h ****   *         APB1ENR      WWDGEN        LL_APB1_GRP1_DisableClock
 561:Drivers/STM32F1xx_HAL_Driver/Inc/stm32f1xx_ll_bus.h ****   * @param  Periphs This parameter can be a combination of the following values:
 562:Drivers/STM32F1xx_HAL_Driver/Inc/stm32f1xx_ll_bus.h ****   *         @arg @ref LL_APB1_GRP1_PERIPH_BKP
 563:Drivers/STM32F1xx_HAL_Driver/Inc/stm32f1xx_ll_bus.h ****   *         @arg @ref LL_APB1_GRP1_PERIPH_CAN1 (*)
 564:Drivers/STM32F1xx_HAL_Driver/Inc/stm32f1xx_ll_bus.h ****   *         @arg @ref LL_APB1_GRP1_PERIPH_CAN2 (*)
 565:Drivers/STM32F1xx_HAL_Driver/Inc/stm32f1xx_ll_bus.h ****   *         @arg @ref LL_APB1_GRP1_PERIPH_CEC (*)
 566:Drivers/STM32F1xx_HAL_Driver/Inc/stm32f1xx_ll_bus.h ****   *         @arg @ref LL_APB1_GRP1_PERIPH_DAC1 (*)
 567:Drivers/STM32F1xx_HAL_Driver/Inc/stm32f1xx_ll_bus.h ****   *         @arg @ref LL_APB1_GRP1_PERIPH_I2C1
 568:Drivers/STM32F1xx_HAL_Driver/Inc/stm32f1xx_ll_bus.h ****   *         @arg @ref LL_APB1_GRP1_PERIPH_I2C2 (*)
 569:Drivers/STM32F1xx_HAL_Driver/Inc/stm32f1xx_ll_bus.h ****   *         @arg @ref LL_APB1_GRP1_PERIPH_PWR
 570:Drivers/STM32F1xx_HAL_Driver/Inc/stm32f1xx_ll_bus.h ****   *         @arg @ref LL_APB1_GRP1_PERIPH_SPI2 (*)
 571:Drivers/STM32F1xx_HAL_Driver/Inc/stm32f1xx_ll_bus.h ****   *         @arg @ref LL_APB1_GRP1_PERIPH_SPI3 (*)
 572:Drivers/STM32F1xx_HAL_Driver/Inc/stm32f1xx_ll_bus.h ****   *         @arg @ref LL_APB1_GRP1_PERIPH_TIM12 (*)
 573:Drivers/STM32F1xx_HAL_Driver/Inc/stm32f1xx_ll_bus.h ****   *         @arg @ref LL_APB1_GRP1_PERIPH_TIM13 (*)
 574:Drivers/STM32F1xx_HAL_Driver/Inc/stm32f1xx_ll_bus.h ****   *         @arg @ref LL_APB1_GRP1_PERIPH_TIM14 (*)
 575:Drivers/STM32F1xx_HAL_Driver/Inc/stm32f1xx_ll_bus.h ****   *         @arg @ref LL_APB1_GRP1_PERIPH_TIM2
 576:Drivers/STM32F1xx_HAL_Driver/Inc/stm32f1xx_ll_bus.h ****   *         @arg @ref LL_APB1_GRP1_PERIPH_TIM3
 577:Drivers/STM32F1xx_HAL_Driver/Inc/stm32f1xx_ll_bus.h ****   *         @arg @ref LL_APB1_GRP1_PERIPH_TIM4 (*)
 578:Drivers/STM32F1xx_HAL_Driver/Inc/stm32f1xx_ll_bus.h ****   *         @arg @ref LL_APB1_GRP1_PERIPH_TIM5 (*)
 579:Drivers/STM32F1xx_HAL_Driver/Inc/stm32f1xx_ll_bus.h ****   *         @arg @ref LL_APB1_GRP1_PERIPH_TIM6 (*)
 580:Drivers/STM32F1xx_HAL_Driver/Inc/stm32f1xx_ll_bus.h ****   *         @arg @ref LL_APB1_GRP1_PERIPH_TIM7 (*)
 581:Drivers/STM32F1xx_HAL_Driver/Inc/stm32f1xx_ll_bus.h ****   *         @arg @ref LL_APB1_GRP1_PERIPH_UART4 (*)
 582:Drivers/STM32F1xx_HAL_Driver/Inc/stm32f1xx_ll_bus.h ****   *         @arg @ref LL_APB1_GRP1_PERIPH_UART5 (*)
 583:Drivers/STM32F1xx_HAL_Driver/Inc/stm32f1xx_ll_bus.h ****   *         @arg @ref LL_APB1_GRP1_PERIPH_USART2
 584:Drivers/STM32F1xx_HAL_Driver/Inc/stm32f1xx_ll_bus.h ****   *         @arg @ref LL_APB1_GRP1_PERIPH_USART3 (*)
 585:Drivers/STM32F1xx_HAL_Driver/Inc/stm32f1xx_ll_bus.h ****   *         @arg @ref LL_APB1_GRP1_PERIPH_USB (*)
 586:Drivers/STM32F1xx_HAL_Driver/Inc/stm32f1xx_ll_bus.h ****   *         @arg @ref LL_APB1_GRP1_PERIPH_WWDG
 587:Drivers/STM32F1xx_HAL_Driver/Inc/stm32f1xx_ll_bus.h ****   *
 588:Drivers/STM32F1xx_HAL_Driver/Inc/stm32f1xx_ll_bus.h ****   *         (*) value not defined in all devices.
 589:Drivers/STM32F1xx_HAL_Driver/Inc/stm32f1xx_ll_bus.h ****   * @retval None
 590:Drivers/STM32F1xx_HAL_Driver/Inc/stm32f1xx_ll_bus.h **** */
 591:Drivers/STM32F1xx_HAL_Driver/Inc/stm32f1xx_ll_bus.h **** __STATIC_INLINE void LL_APB1_GRP1_DisableClock(uint32_t Periphs)
 592:Drivers/STM32F1xx_HAL_Driver/Inc/stm32f1xx_ll_bus.h **** {
 593:Drivers/STM32F1xx_HAL_Driver/Inc/stm32f1xx_ll_bus.h ****   CLEAR_BIT(RCC->APB1ENR, Periphs);
 594:Drivers/STM32F1xx_HAL_Driver/Inc/stm32f1xx_ll_bus.h **** }
 595:Drivers/STM32F1xx_HAL_Driver/Inc/stm32f1xx_ll_bus.h **** 
 596:Drivers/STM32F1xx_HAL_Driver/Inc/stm32f1xx_ll_bus.h **** /**
 597:Drivers/STM32F1xx_HAL_Driver/Inc/stm32f1xx_ll_bus.h ****   * @brief  Force APB1 peripherals reset.
 598:Drivers/STM32F1xx_HAL_Driver/Inc/stm32f1xx_ll_bus.h ****   * @rmtoll APB1RSTR     BKPRST        LL_APB1_GRP1_ForceReset\n
 599:Drivers/STM32F1xx_HAL_Driver/Inc/stm32f1xx_ll_bus.h ****   *         APB1RSTR     CAN1RST       LL_APB1_GRP1_ForceReset\n
 600:Drivers/STM32F1xx_HAL_Driver/Inc/stm32f1xx_ll_bus.h ****   *         APB1RSTR     CAN2RST       LL_APB1_GRP1_ForceReset\n
 601:Drivers/STM32F1xx_HAL_Driver/Inc/stm32f1xx_ll_bus.h ****   *         APB1RSTR     CECRST        LL_APB1_GRP1_ForceReset\n
 602:Drivers/STM32F1xx_HAL_Driver/Inc/stm32f1xx_ll_bus.h ****   *         APB1RSTR     DACRST        LL_APB1_GRP1_ForceReset\n
 603:Drivers/STM32F1xx_HAL_Driver/Inc/stm32f1xx_ll_bus.h ****   *         APB1RSTR     I2C1RST       LL_APB1_GRP1_ForceReset\n
 604:Drivers/STM32F1xx_HAL_Driver/Inc/stm32f1xx_ll_bus.h ****   *         APB1RSTR     I2C2RST       LL_APB1_GRP1_ForceReset\n
 605:Drivers/STM32F1xx_HAL_Driver/Inc/stm32f1xx_ll_bus.h ****   *         APB1RSTR     PWRRST        LL_APB1_GRP1_ForceReset\n
 606:Drivers/STM32F1xx_HAL_Driver/Inc/stm32f1xx_ll_bus.h ****   *         APB1RSTR     SPI2RST       LL_APB1_GRP1_ForceReset\n
 607:Drivers/STM32F1xx_HAL_Driver/Inc/stm32f1xx_ll_bus.h ****   *         APB1RSTR     SPI3RST       LL_APB1_GRP1_ForceReset\n
 608:Drivers/STM32F1xx_HAL_Driver/Inc/stm32f1xx_ll_bus.h ****   *         APB1RSTR     TIM12RST      LL_APB1_GRP1_ForceReset\n
 609:Drivers/STM32F1xx_HAL_Driver/Inc/stm32f1xx_ll_bus.h ****   *         APB1RSTR     TIM13RST      LL_APB1_GRP1_ForceReset\n
 610:Drivers/STM32F1xx_HAL_Driver/Inc/stm32f1xx_ll_bus.h ****   *         APB1RSTR     TIM14RST      LL_APB1_GRP1_ForceReset\n
 611:Drivers/STM32F1xx_HAL_Driver/Inc/stm32f1xx_ll_bus.h ****   *         APB1RSTR     TIM2RST       LL_APB1_GRP1_ForceReset\n
ARM GAS  /tmp/ccY3COIh.s 			page 37


 612:Drivers/STM32F1xx_HAL_Driver/Inc/stm32f1xx_ll_bus.h ****   *         APB1RSTR     TIM3RST       LL_APB1_GRP1_ForceReset\n
 613:Drivers/STM32F1xx_HAL_Driver/Inc/stm32f1xx_ll_bus.h ****   *         APB1RSTR     TIM4RST       LL_APB1_GRP1_ForceReset\n
 614:Drivers/STM32F1xx_HAL_Driver/Inc/stm32f1xx_ll_bus.h ****   *         APB1RSTR     TIM5RST       LL_APB1_GRP1_ForceReset\n
 615:Drivers/STM32F1xx_HAL_Driver/Inc/stm32f1xx_ll_bus.h ****   *         APB1RSTR     TIM6RST       LL_APB1_GRP1_ForceReset\n
 616:Drivers/STM32F1xx_HAL_Driver/Inc/stm32f1xx_ll_bus.h ****   *         APB1RSTR     TIM7RST       LL_APB1_GRP1_ForceReset\n
 617:Drivers/STM32F1xx_HAL_Driver/Inc/stm32f1xx_ll_bus.h ****   *         APB1RSTR     UART4RST      LL_APB1_GRP1_ForceReset\n
 618:Drivers/STM32F1xx_HAL_Driver/Inc/stm32f1xx_ll_bus.h ****   *         APB1RSTR     UART5RST      LL_APB1_GRP1_ForceReset\n
 619:Drivers/STM32F1xx_HAL_Driver/Inc/stm32f1xx_ll_bus.h ****   *         APB1RSTR     USART2RST     LL_APB1_GRP1_ForceReset\n
 620:Drivers/STM32F1xx_HAL_Driver/Inc/stm32f1xx_ll_bus.h ****   *         APB1RSTR     USART3RST     LL_APB1_GRP1_ForceReset\n
 621:Drivers/STM32F1xx_HAL_Driver/Inc/stm32f1xx_ll_bus.h ****   *         APB1RSTR     USBRST        LL_APB1_GRP1_ForceReset\n
 622:Drivers/STM32F1xx_HAL_Driver/Inc/stm32f1xx_ll_bus.h ****   *         APB1RSTR     WWDGRST       LL_APB1_GRP1_ForceReset
 623:Drivers/STM32F1xx_HAL_Driver/Inc/stm32f1xx_ll_bus.h ****   * @param  Periphs This parameter can be a combination of the following values:
 624:Drivers/STM32F1xx_HAL_Driver/Inc/stm32f1xx_ll_bus.h ****   *         @arg @ref LL_APB1_GRP1_PERIPH_ALL
 625:Drivers/STM32F1xx_HAL_Driver/Inc/stm32f1xx_ll_bus.h ****   *         @arg @ref LL_APB1_GRP1_PERIPH_BKP
 626:Drivers/STM32F1xx_HAL_Driver/Inc/stm32f1xx_ll_bus.h ****   *         @arg @ref LL_APB1_GRP1_PERIPH_CAN1 (*)
 627:Drivers/STM32F1xx_HAL_Driver/Inc/stm32f1xx_ll_bus.h ****   *         @arg @ref LL_APB1_GRP1_PERIPH_CAN2 (*)
 628:Drivers/STM32F1xx_HAL_Driver/Inc/stm32f1xx_ll_bus.h ****   *         @arg @ref LL_APB1_GRP1_PERIPH_CEC (*)
 629:Drivers/STM32F1xx_HAL_Driver/Inc/stm32f1xx_ll_bus.h ****   *         @arg @ref LL_APB1_GRP1_PERIPH_DAC1 (*)
 630:Drivers/STM32F1xx_HAL_Driver/Inc/stm32f1xx_ll_bus.h ****   *         @arg @ref LL_APB1_GRP1_PERIPH_I2C1
 631:Drivers/STM32F1xx_HAL_Driver/Inc/stm32f1xx_ll_bus.h ****   *         @arg @ref LL_APB1_GRP1_PERIPH_I2C2 (*)
 632:Drivers/STM32F1xx_HAL_Driver/Inc/stm32f1xx_ll_bus.h ****   *         @arg @ref LL_APB1_GRP1_PERIPH_PWR
 633:Drivers/STM32F1xx_HAL_Driver/Inc/stm32f1xx_ll_bus.h ****   *         @arg @ref LL_APB1_GRP1_PERIPH_SPI2 (*)
 634:Drivers/STM32F1xx_HAL_Driver/Inc/stm32f1xx_ll_bus.h ****   *         @arg @ref LL_APB1_GRP1_PERIPH_SPI3 (*)
 635:Drivers/STM32F1xx_HAL_Driver/Inc/stm32f1xx_ll_bus.h ****   *         @arg @ref LL_APB1_GRP1_PERIPH_TIM12 (*)
 636:Drivers/STM32F1xx_HAL_Driver/Inc/stm32f1xx_ll_bus.h ****   *         @arg @ref LL_APB1_GRP1_PERIPH_TIM13 (*)
 637:Drivers/STM32F1xx_HAL_Driver/Inc/stm32f1xx_ll_bus.h ****   *         @arg @ref LL_APB1_GRP1_PERIPH_TIM14 (*)
 638:Drivers/STM32F1xx_HAL_Driver/Inc/stm32f1xx_ll_bus.h ****   *         @arg @ref LL_APB1_GRP1_PERIPH_TIM2
 639:Drivers/STM32F1xx_HAL_Driver/Inc/stm32f1xx_ll_bus.h ****   *         @arg @ref LL_APB1_GRP1_PERIPH_TIM3
 640:Drivers/STM32F1xx_HAL_Driver/Inc/stm32f1xx_ll_bus.h ****   *         @arg @ref LL_APB1_GRP1_PERIPH_TIM4 (*)
 641:Drivers/STM32F1xx_HAL_Driver/Inc/stm32f1xx_ll_bus.h ****   *         @arg @ref LL_APB1_GRP1_PERIPH_TIM5 (*)
 642:Drivers/STM32F1xx_HAL_Driver/Inc/stm32f1xx_ll_bus.h ****   *         @arg @ref LL_APB1_GRP1_PERIPH_TIM6 (*)
 643:Drivers/STM32F1xx_HAL_Driver/Inc/stm32f1xx_ll_bus.h ****   *         @arg @ref LL_APB1_GRP1_PERIPH_TIM7 (*)
 644:Drivers/STM32F1xx_HAL_Driver/Inc/stm32f1xx_ll_bus.h ****   *         @arg @ref LL_APB1_GRP1_PERIPH_UART4 (*)
 645:Drivers/STM32F1xx_HAL_Driver/Inc/stm32f1xx_ll_bus.h ****   *         @arg @ref LL_APB1_GRP1_PERIPH_UART5 (*)
 646:Drivers/STM32F1xx_HAL_Driver/Inc/stm32f1xx_ll_bus.h ****   *         @arg @ref LL_APB1_GRP1_PERIPH_USART2
 647:Drivers/STM32F1xx_HAL_Driver/Inc/stm32f1xx_ll_bus.h ****   *         @arg @ref LL_APB1_GRP1_PERIPH_USART3 (*)
 648:Drivers/STM32F1xx_HAL_Driver/Inc/stm32f1xx_ll_bus.h ****   *         @arg @ref LL_APB1_GRP1_PERIPH_USB (*)
 649:Drivers/STM32F1xx_HAL_Driver/Inc/stm32f1xx_ll_bus.h ****   *         @arg @ref LL_APB1_GRP1_PERIPH_WWDG
 650:Drivers/STM32F1xx_HAL_Driver/Inc/stm32f1xx_ll_bus.h ****   *
 651:Drivers/STM32F1xx_HAL_Driver/Inc/stm32f1xx_ll_bus.h ****   *         (*) value not defined in all devices.
 652:Drivers/STM32F1xx_HAL_Driver/Inc/stm32f1xx_ll_bus.h ****   * @retval None
 653:Drivers/STM32F1xx_HAL_Driver/Inc/stm32f1xx_ll_bus.h **** */
 654:Drivers/STM32F1xx_HAL_Driver/Inc/stm32f1xx_ll_bus.h **** __STATIC_INLINE void LL_APB1_GRP1_ForceReset(uint32_t Periphs)
 655:Drivers/STM32F1xx_HAL_Driver/Inc/stm32f1xx_ll_bus.h **** {
 344              		.loc 2 655 0
 345              		.cfi_startproc
 346              		@ args = 0, pretend = 0, frame = 8
 347              		@ frame_needed = 1, uses_anonymous_args = 0
 348              		@ link register save eliminated.
 349 0000 80B4     		push	{r7}
 350              	.LCFI30:
 351              		.cfi_def_cfa_offset 4
 352              		.cfi_offset 7, -4
 353 0002 83B0     		sub	sp, sp, #12
 354              	.LCFI31:
 355              		.cfi_def_cfa_offset 16
 356 0004 00AF     		add	r7, sp, #0
ARM GAS  /tmp/ccY3COIh.s 			page 38


 357              	.LCFI32:
 358              		.cfi_def_cfa_register 7
 359 0006 7860     		str	r0, [r7, #4]
 656:Drivers/STM32F1xx_HAL_Driver/Inc/stm32f1xx_ll_bus.h ****   SET_BIT(RCC->APB1RSTR, Periphs);
 360              		.loc 2 656 0
 361 0008 054B     		ldr	r3, .L10
 362 000a 1A69     		ldr	r2, [r3, #16]
 363 000c 0449     		ldr	r1, .L10
 364 000e 7B68     		ldr	r3, [r7, #4]
 365 0010 1343     		orrs	r3, r3, r2
 366 0012 0B61     		str	r3, [r1, #16]
 657:Drivers/STM32F1xx_HAL_Driver/Inc/stm32f1xx_ll_bus.h **** }
 367              		.loc 2 657 0
 368 0014 00BF     		nop
 369 0016 0C37     		adds	r7, r7, #12
 370              	.LCFI33:
 371              		.cfi_def_cfa_offset 4
 372 0018 BD46     		mov	sp, r7
 373              	.LCFI34:
 374              		.cfi_def_cfa_register 13
 375              		@ sp needed
 376 001a 80BC     		pop	{r7}
 377              	.LCFI35:
 378              		.cfi_restore 7
 379              		.cfi_def_cfa_offset 0
 380 001c 7047     		bx	lr
 381              	.L11:
 382 001e 00BF     		.align	2
 383              	.L10:
 384 0020 00100240 		.word	1073876992
 385              		.cfi_endproc
 386              	.LFE280:
 388              		.section	.text.LL_APB1_GRP1_ReleaseReset,"ax",%progbits
 389              		.align	1
 390              		.syntax unified
 391              		.thumb
 392              		.thumb_func
 393              		.fpu softvfp
 395              	LL_APB1_GRP1_ReleaseReset:
 396              	.LFB281:
 658:Drivers/STM32F1xx_HAL_Driver/Inc/stm32f1xx_ll_bus.h **** 
 659:Drivers/STM32F1xx_HAL_Driver/Inc/stm32f1xx_ll_bus.h **** /**
 660:Drivers/STM32F1xx_HAL_Driver/Inc/stm32f1xx_ll_bus.h ****   * @brief  Release APB1 peripherals reset.
 661:Drivers/STM32F1xx_HAL_Driver/Inc/stm32f1xx_ll_bus.h ****   * @rmtoll APB1RSTR     BKPRST        LL_APB1_GRP1_ReleaseReset\n
 662:Drivers/STM32F1xx_HAL_Driver/Inc/stm32f1xx_ll_bus.h ****   *         APB1RSTR     CAN1RST       LL_APB1_GRP1_ReleaseReset\n
 663:Drivers/STM32F1xx_HAL_Driver/Inc/stm32f1xx_ll_bus.h ****   *         APB1RSTR     CAN2RST       LL_APB1_GRP1_ReleaseReset\n
 664:Drivers/STM32F1xx_HAL_Driver/Inc/stm32f1xx_ll_bus.h ****   *         APB1RSTR     CECRST        LL_APB1_GRP1_ReleaseReset\n
 665:Drivers/STM32F1xx_HAL_Driver/Inc/stm32f1xx_ll_bus.h ****   *         APB1RSTR     DACRST        LL_APB1_GRP1_ReleaseReset\n
 666:Drivers/STM32F1xx_HAL_Driver/Inc/stm32f1xx_ll_bus.h ****   *         APB1RSTR     I2C1RST       LL_APB1_GRP1_ReleaseReset\n
 667:Drivers/STM32F1xx_HAL_Driver/Inc/stm32f1xx_ll_bus.h ****   *         APB1RSTR     I2C2RST       LL_APB1_GRP1_ReleaseReset\n
 668:Drivers/STM32F1xx_HAL_Driver/Inc/stm32f1xx_ll_bus.h ****   *         APB1RSTR     PWRRST        LL_APB1_GRP1_ReleaseReset\n
 669:Drivers/STM32F1xx_HAL_Driver/Inc/stm32f1xx_ll_bus.h ****   *         APB1RSTR     SPI2RST       LL_APB1_GRP1_ReleaseReset\n
 670:Drivers/STM32F1xx_HAL_Driver/Inc/stm32f1xx_ll_bus.h ****   *         APB1RSTR     SPI3RST       LL_APB1_GRP1_ReleaseReset\n
 671:Drivers/STM32F1xx_HAL_Driver/Inc/stm32f1xx_ll_bus.h ****   *         APB1RSTR     TIM12RST      LL_APB1_GRP1_ReleaseReset\n
 672:Drivers/STM32F1xx_HAL_Driver/Inc/stm32f1xx_ll_bus.h ****   *         APB1RSTR     TIM13RST      LL_APB1_GRP1_ReleaseReset\n
 673:Drivers/STM32F1xx_HAL_Driver/Inc/stm32f1xx_ll_bus.h ****   *         APB1RSTR     TIM14RST      LL_APB1_GRP1_ReleaseReset\n
 674:Drivers/STM32F1xx_HAL_Driver/Inc/stm32f1xx_ll_bus.h ****   *         APB1RSTR     TIM2RST       LL_APB1_GRP1_ReleaseReset\n
ARM GAS  /tmp/ccY3COIh.s 			page 39


 675:Drivers/STM32F1xx_HAL_Driver/Inc/stm32f1xx_ll_bus.h ****   *         APB1RSTR     TIM3RST       LL_APB1_GRP1_ReleaseReset\n
 676:Drivers/STM32F1xx_HAL_Driver/Inc/stm32f1xx_ll_bus.h ****   *         APB1RSTR     TIM4RST       LL_APB1_GRP1_ReleaseReset\n
 677:Drivers/STM32F1xx_HAL_Driver/Inc/stm32f1xx_ll_bus.h ****   *         APB1RSTR     TIM5RST       LL_APB1_GRP1_ReleaseReset\n
 678:Drivers/STM32F1xx_HAL_Driver/Inc/stm32f1xx_ll_bus.h ****   *         APB1RSTR     TIM6RST       LL_APB1_GRP1_ReleaseReset\n
 679:Drivers/STM32F1xx_HAL_Driver/Inc/stm32f1xx_ll_bus.h ****   *         APB1RSTR     TIM7RST       LL_APB1_GRP1_ReleaseReset\n
 680:Drivers/STM32F1xx_HAL_Driver/Inc/stm32f1xx_ll_bus.h ****   *         APB1RSTR     UART4RST      LL_APB1_GRP1_ReleaseReset\n
 681:Drivers/STM32F1xx_HAL_Driver/Inc/stm32f1xx_ll_bus.h ****   *         APB1RSTR     UART5RST      LL_APB1_GRP1_ReleaseReset\n
 682:Drivers/STM32F1xx_HAL_Driver/Inc/stm32f1xx_ll_bus.h ****   *         APB1RSTR     USART2RST     LL_APB1_GRP1_ReleaseReset\n
 683:Drivers/STM32F1xx_HAL_Driver/Inc/stm32f1xx_ll_bus.h ****   *         APB1RSTR     USART3RST     LL_APB1_GRP1_ReleaseReset\n
 684:Drivers/STM32F1xx_HAL_Driver/Inc/stm32f1xx_ll_bus.h ****   *         APB1RSTR     USBRST        LL_APB1_GRP1_ReleaseReset\n
 685:Drivers/STM32F1xx_HAL_Driver/Inc/stm32f1xx_ll_bus.h ****   *         APB1RSTR     WWDGRST       LL_APB1_GRP1_ReleaseReset
 686:Drivers/STM32F1xx_HAL_Driver/Inc/stm32f1xx_ll_bus.h ****   * @param  Periphs This parameter can be a combination of the following values:
 687:Drivers/STM32F1xx_HAL_Driver/Inc/stm32f1xx_ll_bus.h ****   *         @arg @ref LL_APB1_GRP1_PERIPH_ALL
 688:Drivers/STM32F1xx_HAL_Driver/Inc/stm32f1xx_ll_bus.h ****   *         @arg @ref LL_APB1_GRP1_PERIPH_BKP
 689:Drivers/STM32F1xx_HAL_Driver/Inc/stm32f1xx_ll_bus.h ****   *         @arg @ref LL_APB1_GRP1_PERIPH_CAN1 (*)
 690:Drivers/STM32F1xx_HAL_Driver/Inc/stm32f1xx_ll_bus.h ****   *         @arg @ref LL_APB1_GRP1_PERIPH_CAN2 (*)
 691:Drivers/STM32F1xx_HAL_Driver/Inc/stm32f1xx_ll_bus.h ****   *         @arg @ref LL_APB1_GRP1_PERIPH_CEC (*)
 692:Drivers/STM32F1xx_HAL_Driver/Inc/stm32f1xx_ll_bus.h ****   *         @arg @ref LL_APB1_GRP1_PERIPH_DAC1 (*)
 693:Drivers/STM32F1xx_HAL_Driver/Inc/stm32f1xx_ll_bus.h ****   *         @arg @ref LL_APB1_GRP1_PERIPH_I2C1
 694:Drivers/STM32F1xx_HAL_Driver/Inc/stm32f1xx_ll_bus.h ****   *         @arg @ref LL_APB1_GRP1_PERIPH_I2C2 (*)
 695:Drivers/STM32F1xx_HAL_Driver/Inc/stm32f1xx_ll_bus.h ****   *         @arg @ref LL_APB1_GRP1_PERIPH_PWR
 696:Drivers/STM32F1xx_HAL_Driver/Inc/stm32f1xx_ll_bus.h ****   *         @arg @ref LL_APB1_GRP1_PERIPH_SPI2 (*)
 697:Drivers/STM32F1xx_HAL_Driver/Inc/stm32f1xx_ll_bus.h ****   *         @arg @ref LL_APB1_GRP1_PERIPH_SPI3 (*)
 698:Drivers/STM32F1xx_HAL_Driver/Inc/stm32f1xx_ll_bus.h ****   *         @arg @ref LL_APB1_GRP1_PERIPH_TIM12 (*)
 699:Drivers/STM32F1xx_HAL_Driver/Inc/stm32f1xx_ll_bus.h ****   *         @arg @ref LL_APB1_GRP1_PERIPH_TIM13 (*)
 700:Drivers/STM32F1xx_HAL_Driver/Inc/stm32f1xx_ll_bus.h ****   *         @arg @ref LL_APB1_GRP1_PERIPH_TIM14 (*)
 701:Drivers/STM32F1xx_HAL_Driver/Inc/stm32f1xx_ll_bus.h ****   *         @arg @ref LL_APB1_GRP1_PERIPH_TIM2
 702:Drivers/STM32F1xx_HAL_Driver/Inc/stm32f1xx_ll_bus.h ****   *         @arg @ref LL_APB1_GRP1_PERIPH_TIM3
 703:Drivers/STM32F1xx_HAL_Driver/Inc/stm32f1xx_ll_bus.h ****   *         @arg @ref LL_APB1_GRP1_PERIPH_TIM4 (*)
 704:Drivers/STM32F1xx_HAL_Driver/Inc/stm32f1xx_ll_bus.h ****   *         @arg @ref LL_APB1_GRP1_PERIPH_TIM5 (*)
 705:Drivers/STM32F1xx_HAL_Driver/Inc/stm32f1xx_ll_bus.h ****   *         @arg @ref LL_APB1_GRP1_PERIPH_TIM6 (*)
 706:Drivers/STM32F1xx_HAL_Driver/Inc/stm32f1xx_ll_bus.h ****   *         @arg @ref LL_APB1_GRP1_PERIPH_TIM7 (*)
 707:Drivers/STM32F1xx_HAL_Driver/Inc/stm32f1xx_ll_bus.h ****   *         @arg @ref LL_APB1_GRP1_PERIPH_UART4 (*)
 708:Drivers/STM32F1xx_HAL_Driver/Inc/stm32f1xx_ll_bus.h ****   *         @arg @ref LL_APB1_GRP1_PERIPH_UART5 (*)
 709:Drivers/STM32F1xx_HAL_Driver/Inc/stm32f1xx_ll_bus.h ****   *         @arg @ref LL_APB1_GRP1_PERIPH_USART2
 710:Drivers/STM32F1xx_HAL_Driver/Inc/stm32f1xx_ll_bus.h ****   *         @arg @ref LL_APB1_GRP1_PERIPH_USART3 (*)
 711:Drivers/STM32F1xx_HAL_Driver/Inc/stm32f1xx_ll_bus.h ****   *         @arg @ref LL_APB1_GRP1_PERIPH_USB (*)
 712:Drivers/STM32F1xx_HAL_Driver/Inc/stm32f1xx_ll_bus.h ****   *         @arg @ref LL_APB1_GRP1_PERIPH_WWDG
 713:Drivers/STM32F1xx_HAL_Driver/Inc/stm32f1xx_ll_bus.h ****   *
 714:Drivers/STM32F1xx_HAL_Driver/Inc/stm32f1xx_ll_bus.h ****   *         (*) value not defined in all devices.
 715:Drivers/STM32F1xx_HAL_Driver/Inc/stm32f1xx_ll_bus.h ****   * @retval None
 716:Drivers/STM32F1xx_HAL_Driver/Inc/stm32f1xx_ll_bus.h **** */
 717:Drivers/STM32F1xx_HAL_Driver/Inc/stm32f1xx_ll_bus.h **** __STATIC_INLINE void LL_APB1_GRP1_ReleaseReset(uint32_t Periphs)
 718:Drivers/STM32F1xx_HAL_Driver/Inc/stm32f1xx_ll_bus.h **** {
 397              		.loc 2 718 0
 398              		.cfi_startproc
 399              		@ args = 0, pretend = 0, frame = 8
 400              		@ frame_needed = 1, uses_anonymous_args = 0
 401              		@ link register save eliminated.
 402 0000 80B4     		push	{r7}
 403              	.LCFI36:
 404              		.cfi_def_cfa_offset 4
 405              		.cfi_offset 7, -4
 406 0002 83B0     		sub	sp, sp, #12
 407              	.LCFI37:
 408              		.cfi_def_cfa_offset 16
 409 0004 00AF     		add	r7, sp, #0
ARM GAS  /tmp/ccY3COIh.s 			page 40


 410              	.LCFI38:
 411              		.cfi_def_cfa_register 7
 412 0006 7860     		str	r0, [r7, #4]
 719:Drivers/STM32F1xx_HAL_Driver/Inc/stm32f1xx_ll_bus.h ****   CLEAR_BIT(RCC->APB1RSTR, Periphs);
 413              		.loc 2 719 0
 414 0008 054B     		ldr	r3, .L13
 415 000a 1A69     		ldr	r2, [r3, #16]
 416 000c 7B68     		ldr	r3, [r7, #4]
 417 000e DB43     		mvns	r3, r3
 418 0010 0349     		ldr	r1, .L13
 419 0012 1340     		ands	r3, r3, r2
 420 0014 0B61     		str	r3, [r1, #16]
 720:Drivers/STM32F1xx_HAL_Driver/Inc/stm32f1xx_ll_bus.h **** }
 421              		.loc 2 720 0
 422 0016 00BF     		nop
 423 0018 0C37     		adds	r7, r7, #12
 424              	.LCFI39:
 425              		.cfi_def_cfa_offset 4
 426 001a BD46     		mov	sp, r7
 427              	.LCFI40:
 428              		.cfi_def_cfa_register 13
 429              		@ sp needed
 430 001c 80BC     		pop	{r7}
 431              	.LCFI41:
 432              		.cfi_restore 7
 433              		.cfi_def_cfa_offset 0
 434 001e 7047     		bx	lr
 435              	.L14:
 436              		.align	2
 437              	.L13:
 438 0020 00100240 		.word	1073876992
 439              		.cfi_endproc
 440              	.LFE281:
 442              		.section	.text.LL_APB2_GRP1_ForceReset,"ax",%progbits
 443              		.align	1
 444              		.syntax unified
 445              		.thumb
 446              		.thumb_func
 447              		.fpu softvfp
 449              	LL_APB2_GRP1_ForceReset:
 450              	.LFB285:
 721:Drivers/STM32F1xx_HAL_Driver/Inc/stm32f1xx_ll_bus.h **** 
 722:Drivers/STM32F1xx_HAL_Driver/Inc/stm32f1xx_ll_bus.h **** /**
 723:Drivers/STM32F1xx_HAL_Driver/Inc/stm32f1xx_ll_bus.h ****   * @}
 724:Drivers/STM32F1xx_HAL_Driver/Inc/stm32f1xx_ll_bus.h ****   */
 725:Drivers/STM32F1xx_HAL_Driver/Inc/stm32f1xx_ll_bus.h **** 
 726:Drivers/STM32F1xx_HAL_Driver/Inc/stm32f1xx_ll_bus.h **** /** @defgroup BUS_LL_EF_APB2 APB2
 727:Drivers/STM32F1xx_HAL_Driver/Inc/stm32f1xx_ll_bus.h ****   * @{
 728:Drivers/STM32F1xx_HAL_Driver/Inc/stm32f1xx_ll_bus.h ****   */
 729:Drivers/STM32F1xx_HAL_Driver/Inc/stm32f1xx_ll_bus.h **** 
 730:Drivers/STM32F1xx_HAL_Driver/Inc/stm32f1xx_ll_bus.h **** /**
 731:Drivers/STM32F1xx_HAL_Driver/Inc/stm32f1xx_ll_bus.h ****   * @brief  Enable APB2 peripherals clock.
 732:Drivers/STM32F1xx_HAL_Driver/Inc/stm32f1xx_ll_bus.h ****   * @rmtoll APB2ENR      ADC1EN        LL_APB2_GRP1_EnableClock\n
 733:Drivers/STM32F1xx_HAL_Driver/Inc/stm32f1xx_ll_bus.h ****   *         APB2ENR      ADC2EN        LL_APB2_GRP1_EnableClock\n
 734:Drivers/STM32F1xx_HAL_Driver/Inc/stm32f1xx_ll_bus.h ****   *         APB2ENR      ADC3EN        LL_APB2_GRP1_EnableClock\n
 735:Drivers/STM32F1xx_HAL_Driver/Inc/stm32f1xx_ll_bus.h ****   *         APB2ENR      AFIOEN        LL_APB2_GRP1_EnableClock\n
 736:Drivers/STM32F1xx_HAL_Driver/Inc/stm32f1xx_ll_bus.h ****   *         APB2ENR      IOPAEN        LL_APB2_GRP1_EnableClock\n
ARM GAS  /tmp/ccY3COIh.s 			page 41


 737:Drivers/STM32F1xx_HAL_Driver/Inc/stm32f1xx_ll_bus.h ****   *         APB2ENR      IOPBEN        LL_APB2_GRP1_EnableClock\n
 738:Drivers/STM32F1xx_HAL_Driver/Inc/stm32f1xx_ll_bus.h ****   *         APB2ENR      IOPCEN        LL_APB2_GRP1_EnableClock\n
 739:Drivers/STM32F1xx_HAL_Driver/Inc/stm32f1xx_ll_bus.h ****   *         APB2ENR      IOPDEN        LL_APB2_GRP1_EnableClock\n
 740:Drivers/STM32F1xx_HAL_Driver/Inc/stm32f1xx_ll_bus.h ****   *         APB2ENR      IOPEEN        LL_APB2_GRP1_EnableClock\n
 741:Drivers/STM32F1xx_HAL_Driver/Inc/stm32f1xx_ll_bus.h ****   *         APB2ENR      IOPFEN        LL_APB2_GRP1_EnableClock\n
 742:Drivers/STM32F1xx_HAL_Driver/Inc/stm32f1xx_ll_bus.h ****   *         APB2ENR      IOPGEN        LL_APB2_GRP1_EnableClock\n
 743:Drivers/STM32F1xx_HAL_Driver/Inc/stm32f1xx_ll_bus.h ****   *         APB2ENR      SPI1EN        LL_APB2_GRP1_EnableClock\n
 744:Drivers/STM32F1xx_HAL_Driver/Inc/stm32f1xx_ll_bus.h ****   *         APB2ENR      TIM10EN       LL_APB2_GRP1_EnableClock\n
 745:Drivers/STM32F1xx_HAL_Driver/Inc/stm32f1xx_ll_bus.h ****   *         APB2ENR      TIM11EN       LL_APB2_GRP1_EnableClock\n
 746:Drivers/STM32F1xx_HAL_Driver/Inc/stm32f1xx_ll_bus.h ****   *         APB2ENR      TIM15EN       LL_APB2_GRP1_EnableClock\n
 747:Drivers/STM32F1xx_HAL_Driver/Inc/stm32f1xx_ll_bus.h ****   *         APB2ENR      TIM16EN       LL_APB2_GRP1_EnableClock\n
 748:Drivers/STM32F1xx_HAL_Driver/Inc/stm32f1xx_ll_bus.h ****   *         APB2ENR      TIM17EN       LL_APB2_GRP1_EnableClock\n
 749:Drivers/STM32F1xx_HAL_Driver/Inc/stm32f1xx_ll_bus.h ****   *         APB2ENR      TIM1EN        LL_APB2_GRP1_EnableClock\n
 750:Drivers/STM32F1xx_HAL_Driver/Inc/stm32f1xx_ll_bus.h ****   *         APB2ENR      TIM8EN        LL_APB2_GRP1_EnableClock\n
 751:Drivers/STM32F1xx_HAL_Driver/Inc/stm32f1xx_ll_bus.h ****   *         APB2ENR      TIM9EN        LL_APB2_GRP1_EnableClock\n
 752:Drivers/STM32F1xx_HAL_Driver/Inc/stm32f1xx_ll_bus.h ****   *         APB2ENR      USART1EN      LL_APB2_GRP1_EnableClock
 753:Drivers/STM32F1xx_HAL_Driver/Inc/stm32f1xx_ll_bus.h ****   * @param  Periphs This parameter can be a combination of the following values:
 754:Drivers/STM32F1xx_HAL_Driver/Inc/stm32f1xx_ll_bus.h ****   *         @arg @ref LL_APB2_GRP1_PERIPH_ADC1
 755:Drivers/STM32F1xx_HAL_Driver/Inc/stm32f1xx_ll_bus.h ****   *         @arg @ref LL_APB2_GRP1_PERIPH_ADC2 (*)
 756:Drivers/STM32F1xx_HAL_Driver/Inc/stm32f1xx_ll_bus.h ****   *         @arg @ref LL_APB2_GRP1_PERIPH_ADC3 (*)
 757:Drivers/STM32F1xx_HAL_Driver/Inc/stm32f1xx_ll_bus.h ****   *         @arg @ref LL_APB2_GRP1_PERIPH_AFIO
 758:Drivers/STM32F1xx_HAL_Driver/Inc/stm32f1xx_ll_bus.h ****   *         @arg @ref LL_APB2_GRP1_PERIPH_GPIOA
 759:Drivers/STM32F1xx_HAL_Driver/Inc/stm32f1xx_ll_bus.h ****   *         @arg @ref LL_APB2_GRP1_PERIPH_GPIOB
 760:Drivers/STM32F1xx_HAL_Driver/Inc/stm32f1xx_ll_bus.h ****   *         @arg @ref LL_APB2_GRP1_PERIPH_GPIOC
 761:Drivers/STM32F1xx_HAL_Driver/Inc/stm32f1xx_ll_bus.h ****   *         @arg @ref LL_APB2_GRP1_PERIPH_GPIOD
 762:Drivers/STM32F1xx_HAL_Driver/Inc/stm32f1xx_ll_bus.h ****   *         @arg @ref LL_APB2_GRP1_PERIPH_GPIOE (*)
 763:Drivers/STM32F1xx_HAL_Driver/Inc/stm32f1xx_ll_bus.h ****   *         @arg @ref LL_APB2_GRP1_PERIPH_GPIOF (*)
 764:Drivers/STM32F1xx_HAL_Driver/Inc/stm32f1xx_ll_bus.h ****   *         @arg @ref LL_APB2_GRP1_PERIPH_GPIOG (*)
 765:Drivers/STM32F1xx_HAL_Driver/Inc/stm32f1xx_ll_bus.h ****   *         @arg @ref LL_APB2_GRP1_PERIPH_SPI1
 766:Drivers/STM32F1xx_HAL_Driver/Inc/stm32f1xx_ll_bus.h ****   *         @arg @ref LL_APB2_GRP1_PERIPH_TIM10 (*)
 767:Drivers/STM32F1xx_HAL_Driver/Inc/stm32f1xx_ll_bus.h ****   *         @arg @ref LL_APB2_GRP1_PERIPH_TIM11 (*)
 768:Drivers/STM32F1xx_HAL_Driver/Inc/stm32f1xx_ll_bus.h ****   *         @arg @ref LL_APB2_GRP1_PERIPH_TIM15 (*)
 769:Drivers/STM32F1xx_HAL_Driver/Inc/stm32f1xx_ll_bus.h ****   *         @arg @ref LL_APB2_GRP1_PERIPH_TIM16 (*)
 770:Drivers/STM32F1xx_HAL_Driver/Inc/stm32f1xx_ll_bus.h ****   *         @arg @ref LL_APB2_GRP1_PERIPH_TIM17 (*)
 771:Drivers/STM32F1xx_HAL_Driver/Inc/stm32f1xx_ll_bus.h ****   *         @arg @ref LL_APB2_GRP1_PERIPH_TIM1
 772:Drivers/STM32F1xx_HAL_Driver/Inc/stm32f1xx_ll_bus.h ****   *         @arg @ref LL_APB2_GRP1_PERIPH_TIM8 (*)
 773:Drivers/STM32F1xx_HAL_Driver/Inc/stm32f1xx_ll_bus.h ****   *         @arg @ref LL_APB2_GRP1_PERIPH_TIM9 (*)
 774:Drivers/STM32F1xx_HAL_Driver/Inc/stm32f1xx_ll_bus.h ****   *         @arg @ref LL_APB2_GRP1_PERIPH_USART1
 775:Drivers/STM32F1xx_HAL_Driver/Inc/stm32f1xx_ll_bus.h ****   *
 776:Drivers/STM32F1xx_HAL_Driver/Inc/stm32f1xx_ll_bus.h ****   *         (*) value not defined in all devices.
 777:Drivers/STM32F1xx_HAL_Driver/Inc/stm32f1xx_ll_bus.h ****   * @retval None
 778:Drivers/STM32F1xx_HAL_Driver/Inc/stm32f1xx_ll_bus.h **** */
 779:Drivers/STM32F1xx_HAL_Driver/Inc/stm32f1xx_ll_bus.h **** __STATIC_INLINE void LL_APB2_GRP1_EnableClock(uint32_t Periphs)
 780:Drivers/STM32F1xx_HAL_Driver/Inc/stm32f1xx_ll_bus.h **** {
 781:Drivers/STM32F1xx_HAL_Driver/Inc/stm32f1xx_ll_bus.h ****   __IO uint32_t tmpreg;
 782:Drivers/STM32F1xx_HAL_Driver/Inc/stm32f1xx_ll_bus.h ****   SET_BIT(RCC->APB2ENR, Periphs);
 783:Drivers/STM32F1xx_HAL_Driver/Inc/stm32f1xx_ll_bus.h ****   /* Delay after an RCC peripheral clock enabling */
 784:Drivers/STM32F1xx_HAL_Driver/Inc/stm32f1xx_ll_bus.h ****   tmpreg = READ_BIT(RCC->APB2ENR, Periphs);
 785:Drivers/STM32F1xx_HAL_Driver/Inc/stm32f1xx_ll_bus.h ****   (void)tmpreg;
 786:Drivers/STM32F1xx_HAL_Driver/Inc/stm32f1xx_ll_bus.h **** }
 787:Drivers/STM32F1xx_HAL_Driver/Inc/stm32f1xx_ll_bus.h **** 
 788:Drivers/STM32F1xx_HAL_Driver/Inc/stm32f1xx_ll_bus.h **** /**
 789:Drivers/STM32F1xx_HAL_Driver/Inc/stm32f1xx_ll_bus.h ****   * @brief  Check if APB2 peripheral clock is enabled or not
 790:Drivers/STM32F1xx_HAL_Driver/Inc/stm32f1xx_ll_bus.h ****   * @rmtoll APB2ENR      ADC1EN        LL_APB2_GRP1_IsEnabledClock\n
 791:Drivers/STM32F1xx_HAL_Driver/Inc/stm32f1xx_ll_bus.h ****   *         APB2ENR      ADC2EN        LL_APB2_GRP1_IsEnabledClock\n
 792:Drivers/STM32F1xx_HAL_Driver/Inc/stm32f1xx_ll_bus.h ****   *         APB2ENR      ADC3EN        LL_APB2_GRP1_IsEnabledClock\n
 793:Drivers/STM32F1xx_HAL_Driver/Inc/stm32f1xx_ll_bus.h ****   *         APB2ENR      AFIOEN        LL_APB2_GRP1_IsEnabledClock\n
ARM GAS  /tmp/ccY3COIh.s 			page 42


 794:Drivers/STM32F1xx_HAL_Driver/Inc/stm32f1xx_ll_bus.h ****   *         APB2ENR      IOPAEN        LL_APB2_GRP1_IsEnabledClock\n
 795:Drivers/STM32F1xx_HAL_Driver/Inc/stm32f1xx_ll_bus.h ****   *         APB2ENR      IOPBEN        LL_APB2_GRP1_IsEnabledClock\n
 796:Drivers/STM32F1xx_HAL_Driver/Inc/stm32f1xx_ll_bus.h ****   *         APB2ENR      IOPCEN        LL_APB2_GRP1_IsEnabledClock\n
 797:Drivers/STM32F1xx_HAL_Driver/Inc/stm32f1xx_ll_bus.h ****   *         APB2ENR      IOPDEN        LL_APB2_GRP1_IsEnabledClock\n
 798:Drivers/STM32F1xx_HAL_Driver/Inc/stm32f1xx_ll_bus.h ****   *         APB2ENR      IOPEEN        LL_APB2_GRP1_IsEnabledClock\n
 799:Drivers/STM32F1xx_HAL_Driver/Inc/stm32f1xx_ll_bus.h ****   *         APB2ENR      IOPFEN        LL_APB2_GRP1_IsEnabledClock\n
 800:Drivers/STM32F1xx_HAL_Driver/Inc/stm32f1xx_ll_bus.h ****   *         APB2ENR      IOPGEN        LL_APB2_GRP1_IsEnabledClock\n
 801:Drivers/STM32F1xx_HAL_Driver/Inc/stm32f1xx_ll_bus.h ****   *         APB2ENR      SPI1EN        LL_APB2_GRP1_IsEnabledClock\n
 802:Drivers/STM32F1xx_HAL_Driver/Inc/stm32f1xx_ll_bus.h ****   *         APB2ENR      TIM10EN       LL_APB2_GRP1_IsEnabledClock\n
 803:Drivers/STM32F1xx_HAL_Driver/Inc/stm32f1xx_ll_bus.h ****   *         APB2ENR      TIM11EN       LL_APB2_GRP1_IsEnabledClock\n
 804:Drivers/STM32F1xx_HAL_Driver/Inc/stm32f1xx_ll_bus.h ****   *         APB2ENR      TIM15EN       LL_APB2_GRP1_IsEnabledClock\n
 805:Drivers/STM32F1xx_HAL_Driver/Inc/stm32f1xx_ll_bus.h ****   *         APB2ENR      TIM16EN       LL_APB2_GRP1_IsEnabledClock\n
 806:Drivers/STM32F1xx_HAL_Driver/Inc/stm32f1xx_ll_bus.h ****   *         APB2ENR      TIM17EN       LL_APB2_GRP1_IsEnabledClock\n
 807:Drivers/STM32F1xx_HAL_Driver/Inc/stm32f1xx_ll_bus.h ****   *         APB2ENR      TIM1EN        LL_APB2_GRP1_IsEnabledClock\n
 808:Drivers/STM32F1xx_HAL_Driver/Inc/stm32f1xx_ll_bus.h ****   *         APB2ENR      TIM8EN        LL_APB2_GRP1_IsEnabledClock\n
 809:Drivers/STM32F1xx_HAL_Driver/Inc/stm32f1xx_ll_bus.h ****   *         APB2ENR      TIM9EN        LL_APB2_GRP1_IsEnabledClock\n
 810:Drivers/STM32F1xx_HAL_Driver/Inc/stm32f1xx_ll_bus.h ****   *         APB2ENR      USART1EN      LL_APB2_GRP1_IsEnabledClock
 811:Drivers/STM32F1xx_HAL_Driver/Inc/stm32f1xx_ll_bus.h ****   * @param  Periphs This parameter can be a combination of the following values:
 812:Drivers/STM32F1xx_HAL_Driver/Inc/stm32f1xx_ll_bus.h ****   *         @arg @ref LL_APB2_GRP1_PERIPH_ADC1
 813:Drivers/STM32F1xx_HAL_Driver/Inc/stm32f1xx_ll_bus.h ****   *         @arg @ref LL_APB2_GRP1_PERIPH_ADC2 (*)
 814:Drivers/STM32F1xx_HAL_Driver/Inc/stm32f1xx_ll_bus.h ****   *         @arg @ref LL_APB2_GRP1_PERIPH_ADC3 (*)
 815:Drivers/STM32F1xx_HAL_Driver/Inc/stm32f1xx_ll_bus.h ****   *         @arg @ref LL_APB2_GRP1_PERIPH_AFIO
 816:Drivers/STM32F1xx_HAL_Driver/Inc/stm32f1xx_ll_bus.h ****   *         @arg @ref LL_APB2_GRP1_PERIPH_GPIOA
 817:Drivers/STM32F1xx_HAL_Driver/Inc/stm32f1xx_ll_bus.h ****   *         @arg @ref LL_APB2_GRP1_PERIPH_GPIOB
 818:Drivers/STM32F1xx_HAL_Driver/Inc/stm32f1xx_ll_bus.h ****   *         @arg @ref LL_APB2_GRP1_PERIPH_GPIOC
 819:Drivers/STM32F1xx_HAL_Driver/Inc/stm32f1xx_ll_bus.h ****   *         @arg @ref LL_APB2_GRP1_PERIPH_GPIOD
 820:Drivers/STM32F1xx_HAL_Driver/Inc/stm32f1xx_ll_bus.h ****   *         @arg @ref LL_APB2_GRP1_PERIPH_GPIOE (*)
 821:Drivers/STM32F1xx_HAL_Driver/Inc/stm32f1xx_ll_bus.h ****   *         @arg @ref LL_APB2_GRP1_PERIPH_GPIOF (*)
 822:Drivers/STM32F1xx_HAL_Driver/Inc/stm32f1xx_ll_bus.h ****   *         @arg @ref LL_APB2_GRP1_PERIPH_GPIOG (*)
 823:Drivers/STM32F1xx_HAL_Driver/Inc/stm32f1xx_ll_bus.h ****   *         @arg @ref LL_APB2_GRP1_PERIPH_SPI1
 824:Drivers/STM32F1xx_HAL_Driver/Inc/stm32f1xx_ll_bus.h ****   *         @arg @ref LL_APB2_GRP1_PERIPH_TIM10 (*)
 825:Drivers/STM32F1xx_HAL_Driver/Inc/stm32f1xx_ll_bus.h ****   *         @arg @ref LL_APB2_GRP1_PERIPH_TIM11 (*)
 826:Drivers/STM32F1xx_HAL_Driver/Inc/stm32f1xx_ll_bus.h ****   *         @arg @ref LL_APB2_GRP1_PERIPH_TIM15 (*)
 827:Drivers/STM32F1xx_HAL_Driver/Inc/stm32f1xx_ll_bus.h ****   *         @arg @ref LL_APB2_GRP1_PERIPH_TIM16 (*)
 828:Drivers/STM32F1xx_HAL_Driver/Inc/stm32f1xx_ll_bus.h ****   *         @arg @ref LL_APB2_GRP1_PERIPH_TIM17 (*)
 829:Drivers/STM32F1xx_HAL_Driver/Inc/stm32f1xx_ll_bus.h ****   *         @arg @ref LL_APB2_GRP1_PERIPH_TIM1
 830:Drivers/STM32F1xx_HAL_Driver/Inc/stm32f1xx_ll_bus.h ****   *         @arg @ref LL_APB2_GRP1_PERIPH_TIM8 (*)
 831:Drivers/STM32F1xx_HAL_Driver/Inc/stm32f1xx_ll_bus.h ****   *         @arg @ref LL_APB2_GRP1_PERIPH_TIM9 (*)
 832:Drivers/STM32F1xx_HAL_Driver/Inc/stm32f1xx_ll_bus.h ****   *         @arg @ref LL_APB2_GRP1_PERIPH_USART1
 833:Drivers/STM32F1xx_HAL_Driver/Inc/stm32f1xx_ll_bus.h ****   *
 834:Drivers/STM32F1xx_HAL_Driver/Inc/stm32f1xx_ll_bus.h ****   *         (*) value not defined in all devices.
 835:Drivers/STM32F1xx_HAL_Driver/Inc/stm32f1xx_ll_bus.h ****   * @retval State of Periphs (1 or 0).
 836:Drivers/STM32F1xx_HAL_Driver/Inc/stm32f1xx_ll_bus.h **** */
 837:Drivers/STM32F1xx_HAL_Driver/Inc/stm32f1xx_ll_bus.h **** __STATIC_INLINE uint32_t LL_APB2_GRP1_IsEnabledClock(uint32_t Periphs)
 838:Drivers/STM32F1xx_HAL_Driver/Inc/stm32f1xx_ll_bus.h **** {
 839:Drivers/STM32F1xx_HAL_Driver/Inc/stm32f1xx_ll_bus.h ****   return (READ_BIT(RCC->APB2ENR, Periphs) == Periphs);
 840:Drivers/STM32F1xx_HAL_Driver/Inc/stm32f1xx_ll_bus.h **** }
 841:Drivers/STM32F1xx_HAL_Driver/Inc/stm32f1xx_ll_bus.h **** 
 842:Drivers/STM32F1xx_HAL_Driver/Inc/stm32f1xx_ll_bus.h **** /**
 843:Drivers/STM32F1xx_HAL_Driver/Inc/stm32f1xx_ll_bus.h ****   * @brief  Disable APB2 peripherals clock.
 844:Drivers/STM32F1xx_HAL_Driver/Inc/stm32f1xx_ll_bus.h ****   * @rmtoll APB2ENR      ADC1EN        LL_APB2_GRP1_DisableClock\n
 845:Drivers/STM32F1xx_HAL_Driver/Inc/stm32f1xx_ll_bus.h ****   *         APB2ENR      ADC2EN        LL_APB2_GRP1_DisableClock\n
 846:Drivers/STM32F1xx_HAL_Driver/Inc/stm32f1xx_ll_bus.h ****   *         APB2ENR      ADC3EN        LL_APB2_GRP1_DisableClock\n
 847:Drivers/STM32F1xx_HAL_Driver/Inc/stm32f1xx_ll_bus.h ****   *         APB2ENR      AFIOEN        LL_APB2_GRP1_DisableClock\n
 848:Drivers/STM32F1xx_HAL_Driver/Inc/stm32f1xx_ll_bus.h ****   *         APB2ENR      IOPAEN        LL_APB2_GRP1_DisableClock\n
 849:Drivers/STM32F1xx_HAL_Driver/Inc/stm32f1xx_ll_bus.h ****   *         APB2ENR      IOPBEN        LL_APB2_GRP1_DisableClock\n
 850:Drivers/STM32F1xx_HAL_Driver/Inc/stm32f1xx_ll_bus.h ****   *         APB2ENR      IOPCEN        LL_APB2_GRP1_DisableClock\n
ARM GAS  /tmp/ccY3COIh.s 			page 43


 851:Drivers/STM32F1xx_HAL_Driver/Inc/stm32f1xx_ll_bus.h ****   *         APB2ENR      IOPDEN        LL_APB2_GRP1_DisableClock\n
 852:Drivers/STM32F1xx_HAL_Driver/Inc/stm32f1xx_ll_bus.h ****   *         APB2ENR      IOPEEN        LL_APB2_GRP1_DisableClock\n
 853:Drivers/STM32F1xx_HAL_Driver/Inc/stm32f1xx_ll_bus.h ****   *         APB2ENR      IOPFEN        LL_APB2_GRP1_DisableClock\n
 854:Drivers/STM32F1xx_HAL_Driver/Inc/stm32f1xx_ll_bus.h ****   *         APB2ENR      IOPGEN        LL_APB2_GRP1_DisableClock\n
 855:Drivers/STM32F1xx_HAL_Driver/Inc/stm32f1xx_ll_bus.h ****   *         APB2ENR      SPI1EN        LL_APB2_GRP1_DisableClock\n
 856:Drivers/STM32F1xx_HAL_Driver/Inc/stm32f1xx_ll_bus.h ****   *         APB2ENR      TIM10EN       LL_APB2_GRP1_DisableClock\n
 857:Drivers/STM32F1xx_HAL_Driver/Inc/stm32f1xx_ll_bus.h ****   *         APB2ENR      TIM11EN       LL_APB2_GRP1_DisableClock\n
 858:Drivers/STM32F1xx_HAL_Driver/Inc/stm32f1xx_ll_bus.h ****   *         APB2ENR      TIM15EN       LL_APB2_GRP1_DisableClock\n
 859:Drivers/STM32F1xx_HAL_Driver/Inc/stm32f1xx_ll_bus.h ****   *         APB2ENR      TIM16EN       LL_APB2_GRP1_DisableClock\n
 860:Drivers/STM32F1xx_HAL_Driver/Inc/stm32f1xx_ll_bus.h ****   *         APB2ENR      TIM17EN       LL_APB2_GRP1_DisableClock\n
 861:Drivers/STM32F1xx_HAL_Driver/Inc/stm32f1xx_ll_bus.h ****   *         APB2ENR      TIM1EN        LL_APB2_GRP1_DisableClock\n
 862:Drivers/STM32F1xx_HAL_Driver/Inc/stm32f1xx_ll_bus.h ****   *         APB2ENR      TIM8EN        LL_APB2_GRP1_DisableClock\n
 863:Drivers/STM32F1xx_HAL_Driver/Inc/stm32f1xx_ll_bus.h ****   *         APB2ENR      TIM9EN        LL_APB2_GRP1_DisableClock\n
 864:Drivers/STM32F1xx_HAL_Driver/Inc/stm32f1xx_ll_bus.h ****   *         APB2ENR      USART1EN      LL_APB2_GRP1_DisableClock
 865:Drivers/STM32F1xx_HAL_Driver/Inc/stm32f1xx_ll_bus.h ****   * @param  Periphs This parameter can be a combination of the following values:
 866:Drivers/STM32F1xx_HAL_Driver/Inc/stm32f1xx_ll_bus.h ****   *         @arg @ref LL_APB2_GRP1_PERIPH_ADC1
 867:Drivers/STM32F1xx_HAL_Driver/Inc/stm32f1xx_ll_bus.h ****   *         @arg @ref LL_APB2_GRP1_PERIPH_ADC2 (*)
 868:Drivers/STM32F1xx_HAL_Driver/Inc/stm32f1xx_ll_bus.h ****   *         @arg @ref LL_APB2_GRP1_PERIPH_ADC3 (*)
 869:Drivers/STM32F1xx_HAL_Driver/Inc/stm32f1xx_ll_bus.h ****   *         @arg @ref LL_APB2_GRP1_PERIPH_AFIO
 870:Drivers/STM32F1xx_HAL_Driver/Inc/stm32f1xx_ll_bus.h ****   *         @arg @ref LL_APB2_GRP1_PERIPH_GPIOA
 871:Drivers/STM32F1xx_HAL_Driver/Inc/stm32f1xx_ll_bus.h ****   *         @arg @ref LL_APB2_GRP1_PERIPH_GPIOB
 872:Drivers/STM32F1xx_HAL_Driver/Inc/stm32f1xx_ll_bus.h ****   *         @arg @ref LL_APB2_GRP1_PERIPH_GPIOC
 873:Drivers/STM32F1xx_HAL_Driver/Inc/stm32f1xx_ll_bus.h ****   *         @arg @ref LL_APB2_GRP1_PERIPH_GPIOD
 874:Drivers/STM32F1xx_HAL_Driver/Inc/stm32f1xx_ll_bus.h ****   *         @arg @ref LL_APB2_GRP1_PERIPH_GPIOE (*)
 875:Drivers/STM32F1xx_HAL_Driver/Inc/stm32f1xx_ll_bus.h ****   *         @arg @ref LL_APB2_GRP1_PERIPH_GPIOF (*)
 876:Drivers/STM32F1xx_HAL_Driver/Inc/stm32f1xx_ll_bus.h ****   *         @arg @ref LL_APB2_GRP1_PERIPH_GPIOG (*)
 877:Drivers/STM32F1xx_HAL_Driver/Inc/stm32f1xx_ll_bus.h ****   *         @arg @ref LL_APB2_GRP1_PERIPH_SPI1
 878:Drivers/STM32F1xx_HAL_Driver/Inc/stm32f1xx_ll_bus.h ****   *         @arg @ref LL_APB2_GRP1_PERIPH_TIM10 (*)
 879:Drivers/STM32F1xx_HAL_Driver/Inc/stm32f1xx_ll_bus.h ****   *         @arg @ref LL_APB2_GRP1_PERIPH_TIM11 (*)
 880:Drivers/STM32F1xx_HAL_Driver/Inc/stm32f1xx_ll_bus.h ****   *         @arg @ref LL_APB2_GRP1_PERIPH_TIM15 (*)
 881:Drivers/STM32F1xx_HAL_Driver/Inc/stm32f1xx_ll_bus.h ****   *         @arg @ref LL_APB2_GRP1_PERIPH_TIM16 (*)
 882:Drivers/STM32F1xx_HAL_Driver/Inc/stm32f1xx_ll_bus.h ****   *         @arg @ref LL_APB2_GRP1_PERIPH_TIM17 (*)
 883:Drivers/STM32F1xx_HAL_Driver/Inc/stm32f1xx_ll_bus.h ****   *         @arg @ref LL_APB2_GRP1_PERIPH_TIM1
 884:Drivers/STM32F1xx_HAL_Driver/Inc/stm32f1xx_ll_bus.h ****   *         @arg @ref LL_APB2_GRP1_PERIPH_TIM8 (*)
 885:Drivers/STM32F1xx_HAL_Driver/Inc/stm32f1xx_ll_bus.h ****   *         @arg @ref LL_APB2_GRP1_PERIPH_TIM9 (*)
 886:Drivers/STM32F1xx_HAL_Driver/Inc/stm32f1xx_ll_bus.h ****   *         @arg @ref LL_APB2_GRP1_PERIPH_USART1
 887:Drivers/STM32F1xx_HAL_Driver/Inc/stm32f1xx_ll_bus.h ****   *
 888:Drivers/STM32F1xx_HAL_Driver/Inc/stm32f1xx_ll_bus.h ****   *         (*) value not defined in all devices.
 889:Drivers/STM32F1xx_HAL_Driver/Inc/stm32f1xx_ll_bus.h ****   * @retval None
 890:Drivers/STM32F1xx_HAL_Driver/Inc/stm32f1xx_ll_bus.h **** */
 891:Drivers/STM32F1xx_HAL_Driver/Inc/stm32f1xx_ll_bus.h **** __STATIC_INLINE void LL_APB2_GRP1_DisableClock(uint32_t Periphs)
 892:Drivers/STM32F1xx_HAL_Driver/Inc/stm32f1xx_ll_bus.h **** {
 893:Drivers/STM32F1xx_HAL_Driver/Inc/stm32f1xx_ll_bus.h ****   CLEAR_BIT(RCC->APB2ENR, Periphs);
 894:Drivers/STM32F1xx_HAL_Driver/Inc/stm32f1xx_ll_bus.h **** }
 895:Drivers/STM32F1xx_HAL_Driver/Inc/stm32f1xx_ll_bus.h **** 
 896:Drivers/STM32F1xx_HAL_Driver/Inc/stm32f1xx_ll_bus.h **** /**
 897:Drivers/STM32F1xx_HAL_Driver/Inc/stm32f1xx_ll_bus.h ****   * @brief  Force APB2 peripherals reset.
 898:Drivers/STM32F1xx_HAL_Driver/Inc/stm32f1xx_ll_bus.h ****   * @rmtoll APB2RSTR     ADC1RST       LL_APB2_GRP1_ForceReset\n
 899:Drivers/STM32F1xx_HAL_Driver/Inc/stm32f1xx_ll_bus.h ****   *         APB2RSTR     ADC2RST       LL_APB2_GRP1_ForceReset\n
 900:Drivers/STM32F1xx_HAL_Driver/Inc/stm32f1xx_ll_bus.h ****   *         APB2RSTR     ADC3RST       LL_APB2_GRP1_ForceReset\n
 901:Drivers/STM32F1xx_HAL_Driver/Inc/stm32f1xx_ll_bus.h ****   *         APB2RSTR     AFIORST       LL_APB2_GRP1_ForceReset\n
 902:Drivers/STM32F1xx_HAL_Driver/Inc/stm32f1xx_ll_bus.h ****   *         APB2RSTR     IOPARST       LL_APB2_GRP1_ForceReset\n
 903:Drivers/STM32F1xx_HAL_Driver/Inc/stm32f1xx_ll_bus.h ****   *         APB2RSTR     IOPBRST       LL_APB2_GRP1_ForceReset\n
 904:Drivers/STM32F1xx_HAL_Driver/Inc/stm32f1xx_ll_bus.h ****   *         APB2RSTR     IOPCRST       LL_APB2_GRP1_ForceReset\n
 905:Drivers/STM32F1xx_HAL_Driver/Inc/stm32f1xx_ll_bus.h ****   *         APB2RSTR     IOPDRST       LL_APB2_GRP1_ForceReset\n
 906:Drivers/STM32F1xx_HAL_Driver/Inc/stm32f1xx_ll_bus.h ****   *         APB2RSTR     IOPERST       LL_APB2_GRP1_ForceReset\n
 907:Drivers/STM32F1xx_HAL_Driver/Inc/stm32f1xx_ll_bus.h ****   *         APB2RSTR     IOPFRST       LL_APB2_GRP1_ForceReset\n
ARM GAS  /tmp/ccY3COIh.s 			page 44


 908:Drivers/STM32F1xx_HAL_Driver/Inc/stm32f1xx_ll_bus.h ****   *         APB2RSTR     IOPGRST       LL_APB2_GRP1_ForceReset\n
 909:Drivers/STM32F1xx_HAL_Driver/Inc/stm32f1xx_ll_bus.h ****   *         APB2RSTR     SPI1RST       LL_APB2_GRP1_ForceReset\n
 910:Drivers/STM32F1xx_HAL_Driver/Inc/stm32f1xx_ll_bus.h ****   *         APB2RSTR     TIM10RST      LL_APB2_GRP1_ForceReset\n
 911:Drivers/STM32F1xx_HAL_Driver/Inc/stm32f1xx_ll_bus.h ****   *         APB2RSTR     TIM11RST      LL_APB2_GRP1_ForceReset\n
 912:Drivers/STM32F1xx_HAL_Driver/Inc/stm32f1xx_ll_bus.h ****   *         APB2RSTR     TIM15RST      LL_APB2_GRP1_ForceReset\n
 913:Drivers/STM32F1xx_HAL_Driver/Inc/stm32f1xx_ll_bus.h ****   *         APB2RSTR     TIM16RST      LL_APB2_GRP1_ForceReset\n
 914:Drivers/STM32F1xx_HAL_Driver/Inc/stm32f1xx_ll_bus.h ****   *         APB2RSTR     TIM17RST      LL_APB2_GRP1_ForceReset\n
 915:Drivers/STM32F1xx_HAL_Driver/Inc/stm32f1xx_ll_bus.h ****   *         APB2RSTR     TIM1RST       LL_APB2_GRP1_ForceReset\n
 916:Drivers/STM32F1xx_HAL_Driver/Inc/stm32f1xx_ll_bus.h ****   *         APB2RSTR     TIM8RST       LL_APB2_GRP1_ForceReset\n
 917:Drivers/STM32F1xx_HAL_Driver/Inc/stm32f1xx_ll_bus.h ****   *         APB2RSTR     TIM9RST       LL_APB2_GRP1_ForceReset\n
 918:Drivers/STM32F1xx_HAL_Driver/Inc/stm32f1xx_ll_bus.h ****   *         APB2RSTR     USART1RST     LL_APB2_GRP1_ForceReset
 919:Drivers/STM32F1xx_HAL_Driver/Inc/stm32f1xx_ll_bus.h ****   * @param  Periphs This parameter can be a combination of the following values:
 920:Drivers/STM32F1xx_HAL_Driver/Inc/stm32f1xx_ll_bus.h ****   *         @arg @ref LL_APB2_GRP1_PERIPH_ALL
 921:Drivers/STM32F1xx_HAL_Driver/Inc/stm32f1xx_ll_bus.h ****   *         @arg @ref LL_APB2_GRP1_PERIPH_ADC1
 922:Drivers/STM32F1xx_HAL_Driver/Inc/stm32f1xx_ll_bus.h ****   *         @arg @ref LL_APB2_GRP1_PERIPH_ADC2 (*)
 923:Drivers/STM32F1xx_HAL_Driver/Inc/stm32f1xx_ll_bus.h ****   *         @arg @ref LL_APB2_GRP1_PERIPH_ADC3 (*)
 924:Drivers/STM32F1xx_HAL_Driver/Inc/stm32f1xx_ll_bus.h ****   *         @arg @ref LL_APB2_GRP1_PERIPH_AFIO
 925:Drivers/STM32F1xx_HAL_Driver/Inc/stm32f1xx_ll_bus.h ****   *         @arg @ref LL_APB2_GRP1_PERIPH_GPIOA
 926:Drivers/STM32F1xx_HAL_Driver/Inc/stm32f1xx_ll_bus.h ****   *         @arg @ref LL_APB2_GRP1_PERIPH_GPIOB
 927:Drivers/STM32F1xx_HAL_Driver/Inc/stm32f1xx_ll_bus.h ****   *         @arg @ref LL_APB2_GRP1_PERIPH_GPIOC
 928:Drivers/STM32F1xx_HAL_Driver/Inc/stm32f1xx_ll_bus.h ****   *         @arg @ref LL_APB2_GRP1_PERIPH_GPIOD
 929:Drivers/STM32F1xx_HAL_Driver/Inc/stm32f1xx_ll_bus.h ****   *         @arg @ref LL_APB2_GRP1_PERIPH_GPIOE (*)
 930:Drivers/STM32F1xx_HAL_Driver/Inc/stm32f1xx_ll_bus.h ****   *         @arg @ref LL_APB2_GRP1_PERIPH_GPIOF (*)
 931:Drivers/STM32F1xx_HAL_Driver/Inc/stm32f1xx_ll_bus.h ****   *         @arg @ref LL_APB2_GRP1_PERIPH_GPIOG (*)
 932:Drivers/STM32F1xx_HAL_Driver/Inc/stm32f1xx_ll_bus.h ****   *         @arg @ref LL_APB2_GRP1_PERIPH_SPI1
 933:Drivers/STM32F1xx_HAL_Driver/Inc/stm32f1xx_ll_bus.h ****   *         @arg @ref LL_APB2_GRP1_PERIPH_TIM10 (*)
 934:Drivers/STM32F1xx_HAL_Driver/Inc/stm32f1xx_ll_bus.h ****   *         @arg @ref LL_APB2_GRP1_PERIPH_TIM11 (*)
 935:Drivers/STM32F1xx_HAL_Driver/Inc/stm32f1xx_ll_bus.h ****   *         @arg @ref LL_APB2_GRP1_PERIPH_TIM15 (*)
 936:Drivers/STM32F1xx_HAL_Driver/Inc/stm32f1xx_ll_bus.h ****   *         @arg @ref LL_APB2_GRP1_PERIPH_TIM16 (*)
 937:Drivers/STM32F1xx_HAL_Driver/Inc/stm32f1xx_ll_bus.h ****   *         @arg @ref LL_APB2_GRP1_PERIPH_TIM17 (*)
 938:Drivers/STM32F1xx_HAL_Driver/Inc/stm32f1xx_ll_bus.h ****   *         @arg @ref LL_APB2_GRP1_PERIPH_TIM1
 939:Drivers/STM32F1xx_HAL_Driver/Inc/stm32f1xx_ll_bus.h ****   *         @arg @ref LL_APB2_GRP1_PERIPH_TIM8 (*)
 940:Drivers/STM32F1xx_HAL_Driver/Inc/stm32f1xx_ll_bus.h ****   *         @arg @ref LL_APB2_GRP1_PERIPH_TIM9 (*)
 941:Drivers/STM32F1xx_HAL_Driver/Inc/stm32f1xx_ll_bus.h ****   *         @arg @ref LL_APB2_GRP1_PERIPH_USART1
 942:Drivers/STM32F1xx_HAL_Driver/Inc/stm32f1xx_ll_bus.h ****   *
 943:Drivers/STM32F1xx_HAL_Driver/Inc/stm32f1xx_ll_bus.h ****   *         (*) value not defined in all devices.
 944:Drivers/STM32F1xx_HAL_Driver/Inc/stm32f1xx_ll_bus.h ****   * @retval None
 945:Drivers/STM32F1xx_HAL_Driver/Inc/stm32f1xx_ll_bus.h **** */
 946:Drivers/STM32F1xx_HAL_Driver/Inc/stm32f1xx_ll_bus.h **** __STATIC_INLINE void LL_APB2_GRP1_ForceReset(uint32_t Periphs)
 947:Drivers/STM32F1xx_HAL_Driver/Inc/stm32f1xx_ll_bus.h **** {
 451              		.loc 2 947 0
 452              		.cfi_startproc
 453              		@ args = 0, pretend = 0, frame = 8
 454              		@ frame_needed = 1, uses_anonymous_args = 0
 455              		@ link register save eliminated.
 456 0000 80B4     		push	{r7}
 457              	.LCFI42:
 458              		.cfi_def_cfa_offset 4
 459              		.cfi_offset 7, -4
 460 0002 83B0     		sub	sp, sp, #12
 461              	.LCFI43:
 462              		.cfi_def_cfa_offset 16
 463 0004 00AF     		add	r7, sp, #0
 464              	.LCFI44:
 465              		.cfi_def_cfa_register 7
 466 0006 7860     		str	r0, [r7, #4]
 948:Drivers/STM32F1xx_HAL_Driver/Inc/stm32f1xx_ll_bus.h ****   SET_BIT(RCC->APB2RSTR, Periphs);
ARM GAS  /tmp/ccY3COIh.s 			page 45


 467              		.loc 2 948 0
 468 0008 054B     		ldr	r3, .L16
 469 000a DA68     		ldr	r2, [r3, #12]
 470 000c 0449     		ldr	r1, .L16
 471 000e 7B68     		ldr	r3, [r7, #4]
 472 0010 1343     		orrs	r3, r3, r2
 473 0012 CB60     		str	r3, [r1, #12]
 949:Drivers/STM32F1xx_HAL_Driver/Inc/stm32f1xx_ll_bus.h **** }
 474              		.loc 2 949 0
 475 0014 00BF     		nop
 476 0016 0C37     		adds	r7, r7, #12
 477              	.LCFI45:
 478              		.cfi_def_cfa_offset 4
 479 0018 BD46     		mov	sp, r7
 480              	.LCFI46:
 481              		.cfi_def_cfa_register 13
 482              		@ sp needed
 483 001a 80BC     		pop	{r7}
 484              	.LCFI47:
 485              		.cfi_restore 7
 486              		.cfi_def_cfa_offset 0
 487 001c 7047     		bx	lr
 488              	.L17:
 489 001e 00BF     		.align	2
 490              	.L16:
 491 0020 00100240 		.word	1073876992
 492              		.cfi_endproc
 493              	.LFE285:
 495              		.section	.text.LL_APB2_GRP1_ReleaseReset,"ax",%progbits
 496              		.align	1
 497              		.syntax unified
 498              		.thumb
 499              		.thumb_func
 500              		.fpu softvfp
 502              	LL_APB2_GRP1_ReleaseReset:
 503              	.LFB286:
 950:Drivers/STM32F1xx_HAL_Driver/Inc/stm32f1xx_ll_bus.h **** 
 951:Drivers/STM32F1xx_HAL_Driver/Inc/stm32f1xx_ll_bus.h **** /**
 952:Drivers/STM32F1xx_HAL_Driver/Inc/stm32f1xx_ll_bus.h ****   * @brief  Release APB2 peripherals reset.
 953:Drivers/STM32F1xx_HAL_Driver/Inc/stm32f1xx_ll_bus.h ****   * @rmtoll APB2RSTR     ADC1RST       LL_APB2_GRP1_ReleaseReset\n
 954:Drivers/STM32F1xx_HAL_Driver/Inc/stm32f1xx_ll_bus.h ****   *         APB2RSTR     ADC2RST       LL_APB2_GRP1_ReleaseReset\n
 955:Drivers/STM32F1xx_HAL_Driver/Inc/stm32f1xx_ll_bus.h ****   *         APB2RSTR     ADC3RST       LL_APB2_GRP1_ReleaseReset\n
 956:Drivers/STM32F1xx_HAL_Driver/Inc/stm32f1xx_ll_bus.h ****   *         APB2RSTR     AFIORST       LL_APB2_GRP1_ReleaseReset\n
 957:Drivers/STM32F1xx_HAL_Driver/Inc/stm32f1xx_ll_bus.h ****   *         APB2RSTR     IOPARST       LL_APB2_GRP1_ReleaseReset\n
 958:Drivers/STM32F1xx_HAL_Driver/Inc/stm32f1xx_ll_bus.h ****   *         APB2RSTR     IOPBRST       LL_APB2_GRP1_ReleaseReset\n
 959:Drivers/STM32F1xx_HAL_Driver/Inc/stm32f1xx_ll_bus.h ****   *         APB2RSTR     IOPCRST       LL_APB2_GRP1_ReleaseReset\n
 960:Drivers/STM32F1xx_HAL_Driver/Inc/stm32f1xx_ll_bus.h ****   *         APB2RSTR     IOPDRST       LL_APB2_GRP1_ReleaseReset\n
 961:Drivers/STM32F1xx_HAL_Driver/Inc/stm32f1xx_ll_bus.h ****   *         APB2RSTR     IOPERST       LL_APB2_GRP1_ReleaseReset\n
 962:Drivers/STM32F1xx_HAL_Driver/Inc/stm32f1xx_ll_bus.h ****   *         APB2RSTR     IOPFRST       LL_APB2_GRP1_ReleaseReset\n
 963:Drivers/STM32F1xx_HAL_Driver/Inc/stm32f1xx_ll_bus.h ****   *         APB2RSTR     IOPGRST       LL_APB2_GRP1_ReleaseReset\n
 964:Drivers/STM32F1xx_HAL_Driver/Inc/stm32f1xx_ll_bus.h ****   *         APB2RSTR     SPI1RST       LL_APB2_GRP1_ReleaseReset\n
 965:Drivers/STM32F1xx_HAL_Driver/Inc/stm32f1xx_ll_bus.h ****   *         APB2RSTR     TIM10RST      LL_APB2_GRP1_ReleaseReset\n
 966:Drivers/STM32F1xx_HAL_Driver/Inc/stm32f1xx_ll_bus.h ****   *         APB2RSTR     TIM11RST      LL_APB2_GRP1_ReleaseReset\n
 967:Drivers/STM32F1xx_HAL_Driver/Inc/stm32f1xx_ll_bus.h ****   *         APB2RSTR     TIM15RST      LL_APB2_GRP1_ReleaseReset\n
 968:Drivers/STM32F1xx_HAL_Driver/Inc/stm32f1xx_ll_bus.h ****   *         APB2RSTR     TIM16RST      LL_APB2_GRP1_ReleaseReset\n
 969:Drivers/STM32F1xx_HAL_Driver/Inc/stm32f1xx_ll_bus.h ****   *         APB2RSTR     TIM17RST      LL_APB2_GRP1_ReleaseReset\n
 970:Drivers/STM32F1xx_HAL_Driver/Inc/stm32f1xx_ll_bus.h ****   *         APB2RSTR     TIM1RST       LL_APB2_GRP1_ReleaseReset\n
ARM GAS  /tmp/ccY3COIh.s 			page 46


 971:Drivers/STM32F1xx_HAL_Driver/Inc/stm32f1xx_ll_bus.h ****   *         APB2RSTR     TIM8RST       LL_APB2_GRP1_ReleaseReset\n
 972:Drivers/STM32F1xx_HAL_Driver/Inc/stm32f1xx_ll_bus.h ****   *         APB2RSTR     TIM9RST       LL_APB2_GRP1_ReleaseReset\n
 973:Drivers/STM32F1xx_HAL_Driver/Inc/stm32f1xx_ll_bus.h ****   *         APB2RSTR     USART1RST     LL_APB2_GRP1_ReleaseReset
 974:Drivers/STM32F1xx_HAL_Driver/Inc/stm32f1xx_ll_bus.h ****   * @param  Periphs This parameter can be a combination of the following values:
 975:Drivers/STM32F1xx_HAL_Driver/Inc/stm32f1xx_ll_bus.h ****   *         @arg @ref LL_APB2_GRP1_PERIPH_ALL
 976:Drivers/STM32F1xx_HAL_Driver/Inc/stm32f1xx_ll_bus.h ****   *         @arg @ref LL_APB2_GRP1_PERIPH_ADC1
 977:Drivers/STM32F1xx_HAL_Driver/Inc/stm32f1xx_ll_bus.h ****   *         @arg @ref LL_APB2_GRP1_PERIPH_ADC2 (*)
 978:Drivers/STM32F1xx_HAL_Driver/Inc/stm32f1xx_ll_bus.h ****   *         @arg @ref LL_APB2_GRP1_PERIPH_ADC3 (*)
 979:Drivers/STM32F1xx_HAL_Driver/Inc/stm32f1xx_ll_bus.h ****   *         @arg @ref LL_APB2_GRP1_PERIPH_AFIO
 980:Drivers/STM32F1xx_HAL_Driver/Inc/stm32f1xx_ll_bus.h ****   *         @arg @ref LL_APB2_GRP1_PERIPH_GPIOA
 981:Drivers/STM32F1xx_HAL_Driver/Inc/stm32f1xx_ll_bus.h ****   *         @arg @ref LL_APB2_GRP1_PERIPH_GPIOB
 982:Drivers/STM32F1xx_HAL_Driver/Inc/stm32f1xx_ll_bus.h ****   *         @arg @ref LL_APB2_GRP1_PERIPH_GPIOC
 983:Drivers/STM32F1xx_HAL_Driver/Inc/stm32f1xx_ll_bus.h ****   *         @arg @ref LL_APB2_GRP1_PERIPH_GPIOD
 984:Drivers/STM32F1xx_HAL_Driver/Inc/stm32f1xx_ll_bus.h ****   *         @arg @ref LL_APB2_GRP1_PERIPH_GPIOE (*)
 985:Drivers/STM32F1xx_HAL_Driver/Inc/stm32f1xx_ll_bus.h ****   *         @arg @ref LL_APB2_GRP1_PERIPH_GPIOF (*)
 986:Drivers/STM32F1xx_HAL_Driver/Inc/stm32f1xx_ll_bus.h ****   *         @arg @ref LL_APB2_GRP1_PERIPH_GPIOG (*)
 987:Drivers/STM32F1xx_HAL_Driver/Inc/stm32f1xx_ll_bus.h ****   *         @arg @ref LL_APB2_GRP1_PERIPH_SPI1
 988:Drivers/STM32F1xx_HAL_Driver/Inc/stm32f1xx_ll_bus.h ****   *         @arg @ref LL_APB2_GRP1_PERIPH_TIM10 (*)
 989:Drivers/STM32F1xx_HAL_Driver/Inc/stm32f1xx_ll_bus.h ****   *         @arg @ref LL_APB2_GRP1_PERIPH_TIM11 (*)
 990:Drivers/STM32F1xx_HAL_Driver/Inc/stm32f1xx_ll_bus.h ****   *         @arg @ref LL_APB2_GRP1_PERIPH_TIM15 (*)
 991:Drivers/STM32F1xx_HAL_Driver/Inc/stm32f1xx_ll_bus.h ****   *         @arg @ref LL_APB2_GRP1_PERIPH_TIM16 (*)
 992:Drivers/STM32F1xx_HAL_Driver/Inc/stm32f1xx_ll_bus.h ****   *         @arg @ref LL_APB2_GRP1_PERIPH_TIM17 (*)
 993:Drivers/STM32F1xx_HAL_Driver/Inc/stm32f1xx_ll_bus.h ****   *         @arg @ref LL_APB2_GRP1_PERIPH_TIM1
 994:Drivers/STM32F1xx_HAL_Driver/Inc/stm32f1xx_ll_bus.h ****   *         @arg @ref LL_APB2_GRP1_PERIPH_TIM8 (*)
 995:Drivers/STM32F1xx_HAL_Driver/Inc/stm32f1xx_ll_bus.h ****   *         @arg @ref LL_APB2_GRP1_PERIPH_TIM9 (*)
 996:Drivers/STM32F1xx_HAL_Driver/Inc/stm32f1xx_ll_bus.h ****   *         @arg @ref LL_APB2_GRP1_PERIPH_USART1
 997:Drivers/STM32F1xx_HAL_Driver/Inc/stm32f1xx_ll_bus.h ****   *
 998:Drivers/STM32F1xx_HAL_Driver/Inc/stm32f1xx_ll_bus.h ****   *         (*) value not defined in all devices.
 999:Drivers/STM32F1xx_HAL_Driver/Inc/stm32f1xx_ll_bus.h ****   * @retval None
1000:Drivers/STM32F1xx_HAL_Driver/Inc/stm32f1xx_ll_bus.h **** */
1001:Drivers/STM32F1xx_HAL_Driver/Inc/stm32f1xx_ll_bus.h **** __STATIC_INLINE void LL_APB2_GRP1_ReleaseReset(uint32_t Periphs)
1002:Drivers/STM32F1xx_HAL_Driver/Inc/stm32f1xx_ll_bus.h **** {
 504              		.loc 2 1002 0
 505              		.cfi_startproc
 506              		@ args = 0, pretend = 0, frame = 8
 507              		@ frame_needed = 1, uses_anonymous_args = 0
 508              		@ link register save eliminated.
 509 0000 80B4     		push	{r7}
 510              	.LCFI48:
 511              		.cfi_def_cfa_offset 4
 512              		.cfi_offset 7, -4
 513 0002 83B0     		sub	sp, sp, #12
 514              	.LCFI49:
 515              		.cfi_def_cfa_offset 16
 516 0004 00AF     		add	r7, sp, #0
 517              	.LCFI50:
 518              		.cfi_def_cfa_register 7
 519 0006 7860     		str	r0, [r7, #4]
1003:Drivers/STM32F1xx_HAL_Driver/Inc/stm32f1xx_ll_bus.h ****   CLEAR_BIT(RCC->APB2RSTR, Periphs);
 520              		.loc 2 1003 0
 521 0008 054B     		ldr	r3, .L19
 522 000a DA68     		ldr	r2, [r3, #12]
 523 000c 7B68     		ldr	r3, [r7, #4]
 524 000e DB43     		mvns	r3, r3
 525 0010 0349     		ldr	r1, .L19
 526 0012 1340     		ands	r3, r3, r2
 527 0014 CB60     		str	r3, [r1, #12]
ARM GAS  /tmp/ccY3COIh.s 			page 47


1004:Drivers/STM32F1xx_HAL_Driver/Inc/stm32f1xx_ll_bus.h **** }
 528              		.loc 2 1004 0
 529 0016 00BF     		nop
 530 0018 0C37     		adds	r7, r7, #12
 531              	.LCFI51:
 532              		.cfi_def_cfa_offset 4
 533 001a BD46     		mov	sp, r7
 534              	.LCFI52:
 535              		.cfi_def_cfa_register 13
 536              		@ sp needed
 537 001c 80BC     		pop	{r7}
 538              	.LCFI53:
 539              		.cfi_restore 7
 540              		.cfi_def_cfa_offset 0
 541 001e 7047     		bx	lr
 542              	.L20:
 543              		.align	2
 544              	.L19:
 545 0020 00100240 		.word	1073876992
 546              		.cfi_endproc
 547              	.LFE286:
 549              		.section	.text.LL_USART_DeInit,"ax",%progbits
 550              		.align	1
 551              		.global	LL_USART_DeInit
 552              		.syntax unified
 553              		.thumb
 554              		.thumb_func
 555              		.fpu softvfp
 557              	LL_USART_DeInit:
 558              	.LFB287:
 559              		.file 3 "Drivers/STM32F1xx_HAL_Driver/Src/stm32f1xx_ll_usart.c"
   1:Drivers/STM32F1xx_HAL_Driver/Src/stm32f1xx_ll_usart.c **** /**
   2:Drivers/STM32F1xx_HAL_Driver/Src/stm32f1xx_ll_usart.c ****   ******************************************************************************
   3:Drivers/STM32F1xx_HAL_Driver/Src/stm32f1xx_ll_usart.c ****   * @file    stm32f1xx_ll_usart.c
   4:Drivers/STM32F1xx_HAL_Driver/Src/stm32f1xx_ll_usart.c ****   * @author  MCD Application Team
   5:Drivers/STM32F1xx_HAL_Driver/Src/stm32f1xx_ll_usart.c ****   * @brief   USART LL module driver.
   6:Drivers/STM32F1xx_HAL_Driver/Src/stm32f1xx_ll_usart.c ****   ******************************************************************************
   7:Drivers/STM32F1xx_HAL_Driver/Src/stm32f1xx_ll_usart.c ****   * @attention
   8:Drivers/STM32F1xx_HAL_Driver/Src/stm32f1xx_ll_usart.c ****   *
   9:Drivers/STM32F1xx_HAL_Driver/Src/stm32f1xx_ll_usart.c ****   * <h2><center>&copy; COPYRIGHT(c) 2016 STMicroelectronics</center></h2>
  10:Drivers/STM32F1xx_HAL_Driver/Src/stm32f1xx_ll_usart.c ****   *
  11:Drivers/STM32F1xx_HAL_Driver/Src/stm32f1xx_ll_usart.c ****   * Redistribution and use in source and binary forms, with or without modification,
  12:Drivers/STM32F1xx_HAL_Driver/Src/stm32f1xx_ll_usart.c ****   * are permitted provided that the following conditions are met:
  13:Drivers/STM32F1xx_HAL_Driver/Src/stm32f1xx_ll_usart.c ****   *   1. Redistributions of source code must retain the above copyright notice,
  14:Drivers/STM32F1xx_HAL_Driver/Src/stm32f1xx_ll_usart.c ****   *      this list of conditions and the following disclaimer.
  15:Drivers/STM32F1xx_HAL_Driver/Src/stm32f1xx_ll_usart.c ****   *   2. Redistributions in binary form must reproduce the above copyright notice,
  16:Drivers/STM32F1xx_HAL_Driver/Src/stm32f1xx_ll_usart.c ****   *      this list of conditions and the following disclaimer in the documentation
  17:Drivers/STM32F1xx_HAL_Driver/Src/stm32f1xx_ll_usart.c ****   *      and/or other materials provided with the distribution.
  18:Drivers/STM32F1xx_HAL_Driver/Src/stm32f1xx_ll_usart.c ****   *   3. Neither the name of STMicroelectronics nor the names of its contributors
  19:Drivers/STM32F1xx_HAL_Driver/Src/stm32f1xx_ll_usart.c ****   *      may be used to endorse or promote products derived from this software
  20:Drivers/STM32F1xx_HAL_Driver/Src/stm32f1xx_ll_usart.c ****   *      without specific prior written permission.
  21:Drivers/STM32F1xx_HAL_Driver/Src/stm32f1xx_ll_usart.c ****   *
  22:Drivers/STM32F1xx_HAL_Driver/Src/stm32f1xx_ll_usart.c ****   * THIS SOFTWARE IS PROVIDED BY THE COPYRIGHT HOLDERS AND CONTRIBUTORS "AS IS"
  23:Drivers/STM32F1xx_HAL_Driver/Src/stm32f1xx_ll_usart.c ****   * AND ANY EXPRESS OR IMPLIED WARRANTIES, INCLUDING, BUT NOT LIMITED TO, THE
  24:Drivers/STM32F1xx_HAL_Driver/Src/stm32f1xx_ll_usart.c ****   * IMPLIED WARRANTIES OF MERCHANTABILITY AND FITNESS FOR A PARTICULAR PURPOSE ARE
  25:Drivers/STM32F1xx_HAL_Driver/Src/stm32f1xx_ll_usart.c ****   * DISCLAIMED. IN NO EVENT SHALL THE COPYRIGHT HOLDER OR CONTRIBUTORS BE LIABLE
  26:Drivers/STM32F1xx_HAL_Driver/Src/stm32f1xx_ll_usart.c ****   * FOR ANY DIRECT, INDIRECT, INCIDENTAL, SPECIAL, EXEMPLARY, OR CONSEQUENTIAL
ARM GAS  /tmp/ccY3COIh.s 			page 48


  27:Drivers/STM32F1xx_HAL_Driver/Src/stm32f1xx_ll_usart.c ****   * DAMAGES (INCLUDING, BUT NOT LIMITED TO, PROCUREMENT OF SUBSTITUTE GOODS OR
  28:Drivers/STM32F1xx_HAL_Driver/Src/stm32f1xx_ll_usart.c ****   * SERVICES; LOSS OF USE, DATA, OR PROFITS; OR BUSINESS INTERRUPTION) HOWEVER
  29:Drivers/STM32F1xx_HAL_Driver/Src/stm32f1xx_ll_usart.c ****   * CAUSED AND ON ANY THEORY OF LIABILITY, WHETHER IN CONTRACT, STRICT LIABILITY,
  30:Drivers/STM32F1xx_HAL_Driver/Src/stm32f1xx_ll_usart.c ****   * OR TORT (INCLUDING NEGLIGENCE OR OTHERWISE) ARISING IN ANY WAY OUT OF THE USE
  31:Drivers/STM32F1xx_HAL_Driver/Src/stm32f1xx_ll_usart.c ****   * OF THIS SOFTWARE, EVEN IF ADVISED OF THE POSSIBILITY OF SUCH DAMAGE.
  32:Drivers/STM32F1xx_HAL_Driver/Src/stm32f1xx_ll_usart.c ****   *
  33:Drivers/STM32F1xx_HAL_Driver/Src/stm32f1xx_ll_usart.c ****   ******************************************************************************
  34:Drivers/STM32F1xx_HAL_Driver/Src/stm32f1xx_ll_usart.c ****   */
  35:Drivers/STM32F1xx_HAL_Driver/Src/stm32f1xx_ll_usart.c **** #if defined(USE_FULL_LL_DRIVER)
  36:Drivers/STM32F1xx_HAL_Driver/Src/stm32f1xx_ll_usart.c **** 
  37:Drivers/STM32F1xx_HAL_Driver/Src/stm32f1xx_ll_usart.c **** /* Includes ------------------------------------------------------------------*/
  38:Drivers/STM32F1xx_HAL_Driver/Src/stm32f1xx_ll_usart.c **** #include "stm32f1xx_ll_usart.h"
  39:Drivers/STM32F1xx_HAL_Driver/Src/stm32f1xx_ll_usart.c **** #include "stm32f1xx_ll_rcc.h"
  40:Drivers/STM32F1xx_HAL_Driver/Src/stm32f1xx_ll_usart.c **** #include "stm32f1xx_ll_bus.h"
